(dp1
S'output'
p2
S"<class 'httplib.BadStatusLine'> ''"
p3
sS'layer'
p4
S'/home/monika/Desktop/web2py/applications/testapp/controllers/default.py'
p5
sS'code'
p6
S'# -*- coding: utf-8 -*-\n# this file is released under public domain and you can use without limitations\n\n#########################################################################\n## This is a sample controller\n## - index is the default action of any application\n## - user is required for authentication and authorization\n## - download is for downloading files uploaded in the db (does streaming)\n## - call exposes all registered services (none by default)\n#########################################################################\ndef user():\n    """\n    exposes:\n    http://..../[app]/default/user/login\n    http://..../[app]/default/user/logout\n    http://..../[app]/default/user/register\n    http://..../[app]/default/user/profile\n    http://..../[app]/default/user/retrieve_password\n    http://..../[app]/default/user/change_password\n    http://..../[app]/default/user/manage_users (requires membership in \n    use @auth.requires_login()\n        @auth.requires_membership(\'group name\')\n        @auth.requires_permission(\'read\',\'table name\',record_id)\n    to decorate functions that need access control\n    """\n    return dict(form=auth())\n\n#@cache.action()\ndef download():\n    """\n    allows downloading of uploaded files\n    http://..../[app]/default/download/[filename]\n    """\n    return response.download(request, db)\n\n\ndef call():\n    """\n    exposes services. for example:\n    http://..../[app]/default/call/jsonrpc\n    decorate with @services.jsonrpc the functions to expose\n    supports xml, json, xmlrpc, jsonrpc, amfrpc, rss, csv\n    """\n    return service()\n\n\n@auth.requires_signature()\ndef data():\n    """\n    http://..../[app]/default/data/tables\n    http://..../[app]/default/data/create/[table]\n    http://..../[app]/default/data/read/[table]/[id]\n    http://..../[app]/default/data/update/[table]/[id]\n    http://..../[app]/default/data/delete/[table]/[id]\n    http://..../[app]/default/data/select/[table]\n    http://..../[app]/default/data/search/[table]\n    but URLs must be signed, i.e. linked with\n      A(\'table\',_href=URL(\'data/tables\',user_signature=True))\n    or with the signed load operator\n      LOAD(\'default\',\'data.load\',args=\'tables\',ajax=True,user_signature=True)\n    """\n    return dict(form=crud())\n    \n    \n    \ndef unit_testing():\n    import commands\n    form = FORM(  TABLE\n         (  TR(INPUT(_name=\'testcase65\', _type=\'checkbox\', _value="65"),\'All\'),\n            TR(INPUT(_name=\'testcase1\', _type=\'checkbox\', _value="1"),\'Login\'),\n            TR(INPUT(_name=\'testcase15\', _type=\'checkbox\', _value="15"),\'Configure System: Add Host\'),\n           TR(INPUT(_name=\'testcase16\', _type=\'checkbox\', _value="16"),\'Configure System: Add Template\'),\n           TR(INPUT(_name=\'testcase17\', _type=\'checkbox\', _value="17"),\'Configure System: Add Datastore\'),\n           TR(INPUT(_name=\'testcase59\', _type=\'checkbox\', _value="59"),\'Configure System:Add Security Domain\'),\n            TR(INPUT(_name=\'testcase2\', _type=\'checkbox\', _value="2"),\'Request VM\'),\n            TR(INPUT(_name=\'testcase3\', _type=\'checkbox\', _value="3"),\'My VMs\'),\n            TR(INPUT(_name=\'testcase4\', _type=\'checkbox\', _value="4"),\'My Pending Tasks\'),\n            TR(INPUT(_name=\'testcase5\', _type=\'checkbox\', _value="5"),\'My Completed Tasks\'),\n            TR(INPUT(_name=\'testcase6\', _type=\'checkbox\', _value="6"),\'My Failed Taskss\'),\n            TR(INPUT(_name=\'testcase7\', _type=\'checkbox\', _value="7"),\'Pending Faculty-Level VM Approvals(Install VM)\'),\n            TR(INPUT(_name=\'testcase46\', _type=\'checkbox\', _value="46"),\'Pending Faculty-Level VM Approvals(Clone VM)\'),\n            TR(INPUT(_name=\'testcase49\', _type=\'checkbox\', _value="49"),\'Pending Faculty-Level VM Approvals(Attach Disk)\'),\n            TR(INPUT(_name=\'testcase50\', _type=\'checkbox\', _value="50"),\'Pending Faculty-Level VM Approvals(Edit Configuration)\'),\n            TR(INPUT(_name=\'testcase8\', _type=\'checkbox\', _value="8"),\'Pending Org-Level VM Approvals(Install VM)\'),\n            TR(INPUT(_name=\'testcase51\', _type=\'checkbox\', _value="51"),\'Pending Org-Level VM Approvals(Clone VM)\'),\n            TR(INPUT(_name=\'testcase52\', _type=\'checkbox\', _value="52"),\'Pending Org-Level VM Approvals(Attach Disk)\'),\n            TR(INPUT(_name=\'testcase53\', _type=\'checkbox\', _value="53"),\'Pending Org-Level VM Approvals(Edit Configuration)\'),\n           TR(INPUT(_name=\'testcase9\', _type=\'checkbox\', _value="9"),\'List All Org-Level VMs\',),\n           TR(INPUT(_name=\'testcase10\', _type=\'checkbox\', _value="10"),\'All VMs\'),\n           TR(INPUT(_name=\'testcase19\', _type=\'checkbox\', _value="19"),\'Pending VM Requests(Install VM)\'),\n           TR(INPUT(_name=\'testcase54\', _type=\'checkbox\', _value="54"),\'Pending VM Requests(Clone VM)\'),\n           TR(INPUT(_name=\'testcase55\', _type=\'checkbox\', _value="55"),\'Pending VM Requests(Attach Disk)\'),\n           TR(INPUT(_name=\'testcase56\', _type=\'checkbox\', _value="56"),\'Pending VM Requests(Edit Configuration)\'),\n           TR(INPUT(_name=\'testcase11\', _type=\'checkbox\', _value="11"),\'Host and VMs\',),\n           TR(INPUT(_name=\'testcase12\', _type=\'checkbox\', _value="12"),\'Pending Tasks\'),\n           TR(INPUT(_name=\'testcase13\', _type=\'checkbox\', _value="13"),\'Completed Tasks\'),\n           TR(INPUT(_name=\'testcase14\', _type=\'checkbox\', _value="14"),\'Failed Tasks\'),\n           \n           TR(INPUT(_name=\'testcase18\', _type=\'checkbox\', _value="18"),\'Take VM snapshot    (Running )\'),\n           TR(INPUT(_name=\'testcase20\', _type=\'checkbox\', _value="20"),\'Pause VM    (Running )\'),\n           \n           TR(INPUT(_name=\'testcase21\', _type=\'checkbox\', _value="21"),\'Add User to VM   (Running )\'),\n           \n           TR(INPUT(_name=\'testcase22\', _type=\'checkbox\', _value="22"),\'Delete VM    (Running)\'),\n           TR(INPUT(_name=\'testcase23\', _type=\'checkbox\', _value="23"),\'Gracefully shut down VM    (Running )\'),\n           TR(INPUT(_name=\'testcase24\', _type=\'checkbox\', _value="24"),\'Forcefully power off VM   (Running )\'),\n            TR(INPUT(_name=\'testcase25\', _type=\'checkbox\', _value="25"),\'Attach Extra Disk to VM   (Running )\'),\n          TR(INPUT(_name=\'testcase57\', _type=\'checkbox\', _value="57"),\'Migrate VM(Runnig)\'),\n           TR(INPUT(_name=\'testcase26\', _type=\'checkbox\', _value="26"),\'Take VM snapshot   (Paused )\'),\n           TR(INPUT(_name=\'testcase27\', _type=\'checkbox\', _value="27"),\'Migrate VM(Paused)\'),\n           TR(INPUT(_name=\'testcase28\', _type=\'checkbox\', _value="28"),\'Unpause VM   (Paused )\'),\n           TR(INPUT(_name=\'testcase29\', _type=\'checkbox\', _value="29"),\'Add User to VM  (Paused )\'),\n           TR(INPUT(_name=\'testcase30\', _type=\'checkbox\', _value="30"),\'Delete VM   (Paused )\'),\n           TR(INPUT(_name=\'testcase31\', _type=\'checkbox\', _value="31"),\'Adjust VM Resources Utilization   (Paused )\'),\n           TR(INPUT(_name=\'testcase32\', _type=\'checkbox\', _value="32"),\'Forcefully power off VM   (Paused)\'),\n           TR(INPUT(_name=\'testcase33\', _type=\'checkbox\', _value="33"),\'Delete Addtional User   (Paused )\'), \n           TR(INPUT(_name=\'testcase47\', _type=\'checkbox\', _value="47"),\'Revert Snapshot    (Paused )\'),\n           TR(INPUT(_name=\'testcase42\', _type=\'checkbox\', _value="42"),\'Delete Snapshot    (Paused )\'),\n           TR(INPUT(_name=\'testcase34\', _type=\'checkbox\', _value="34"),\'Edit VM Config   (Running )\'),\n           TR(INPUT(_name=\'testcase35\', _type=\'checkbox\', _value="35"),\'Turn on VM   (Shutdown )\'),\n           TR(INPUT(_name=\'testcase36\', _type=\'checkbox\', _value="36"),\'Add User to VM  (Shutdown)\'),\n           TR(INPUT(_name=\'testcase37\', _type=\'checkbox\', _value="37"),\'Delete VM   (Shutdown )\'),\n           TR(INPUT(_name=\'testcase38\', _type=\'checkbox\', _value="38"),\'Attach Extra Disk  (Shutdown )\'),\n           TR(INPUT(_name=\'testcase39\', _type=\'checkbox\', _value="39"),\'Request Clone VM   (Shutdown )\'),\n            TR(INPUT(_name=\'testcase40\', _type=\'checkbox\', _value="40"),\'Edit VM Config   (Shutdown )\'),\n           TR(INPUT(_name=\'testcase41\', _type=\'checkbox\', _value="41"),\'Assign VNC   (Shutdown )\'),\n           TR(INPUT(_name=\'testcase58\', _type=\'checkbox\', _value="58"),\'Migrate VM(Shutdown)\'),\n           TR(INPUT(_name=\'testcase43\', _type=\'checkbox\', _value="43"),\'Take VM snapshot   (Shutdown )\'),\n            \n            TR(INPUT(_name=\'testcase44\', _type=\'checkbox\', _value="44"),\'Approve VM(Org-admin)\'),\n           TR(INPUT(_name=\'testcase45\', _type=\'checkbox\', _value="45"),\'Reject VM(Org-admin)\'), \n            TR(INPUT(_name=\'testcase60\', _type=\'checkbox\', _value="60"),\'Approve VM(Faculty)\'),\n           TR(INPUT(_name=\'testcase61\', _type=\'checkbox\', _value="61"),\'Reject VM(Faculty)\'), \n               TR(INPUT(_name=\'testcase62\', _type=\'checkbox\', _value="62"),\'Approve VM(Admin)\'),\n           TR(INPUT(_name=\'testcase63\', _type=\'checkbox\', _value="63"),\'Reject VM(Admin)\'), \n           TR(INPUT(_name=\'testcase48\', _type=\'checkbox\', _value="48"),\'Sanity Table\'),\n           \n           BR(),\n           TR(INPUT(_type=\'submit\',_value=\'submit\'))\n          )\n      )\n    if form.process().accepted:\n        for i in range(1,70):\n            test_case_no=request.vars[\'testcase\'+str(i)]\n            if test_case_no!=None:\n                \n                print test_case_no\n                if test_case_no=="65":\n                    for j in range(1,65):\n                        test_case_no=str(j)\n                        test_script(test_case_no)\n                else:\n                    test_script(test_case_no)\n        \n    elif form.errors:\n        response.flash = \'form has errors\'\n    else:\n        response.flash = \'please fill the form\'\n    return dict(form=form)\n    \n\ndef index():\n    try:\n        import commands\n        form = FORM( TABLE\n                  (  TR(INPUT(_name=\'testcase1\', _type=\'radio\', _value="1"),\'Unit Testing\'),\n                     TR(INPUT(_name=\'testcase2\', _type=\'radio\', _value="2"),\'Integration Testing\'),\n                     TR(INPUT(_name=\'testcase3\', _type=\'radio\', _value="3"),\'Stress Testing\'),\n                     TR(INPUT(_name=\'testcase4\', _type=\'radio\', _value="4"),\'Network Testing\'),\n                     BR(),\n                     TR(INPUT(_type=\'submit\',_value=\'submit\'))\n                  )\n                )        \n        if form.process().accepted:\n            if request.vars[\'testcase1\']!=None:\n                redirect(URL(\'unit_testing\'))\n            if request.vars[\'testcase2\']!=None:\n                redirect(URL(\'integration_testing\')) \n            if request.vars[\'testcase3\']!=None:\n                redirect(URL(\'stress_testing\'))  \n            if request.vars[\'testcase4\']!=None:\n                redirect(URL(\'network_testing\'))        \n        elif form.errors:\n            response.flash = \'form has errors\'\n        else:\n            response.flash = \'please fill the form\'\n        return dict(form=form)\n    except Exception as e:\n        print e\n\n\ndef network_testing():\n   \n    import commands\n    form = FORM(TABLE\n             (   \n              \n    TR(INPUT(_name=\'testcase79\', _type=\'checkbox\', _value="134"),\'Packages Install on Host \'),\n   \n     TR(INPUT(_name=\'testcase78\', _type=\'checkbox\', _value="135"),\'Packages Install on Baadal \'),\n    \n    TR(INPUT(_name=\'testcase80\', _type=\'checkbox\', _value="80"),\'VM status on Host \'),\n    BR(),\n    TR(INPUT(_type=\'submit\',_value=\'submit\'))\n            )\n            )\n    if form.process().accepted:\n        if request.vars[\'testcase78\']!=None:\n            packages_install_test(134)\n        if request.vars[\'testcase79\']!=None:\n            packages_install_host(135) \n        if request.vars[\'testcase80\']!=None:\n            check_stat_on_host()    \n    elif form.errors:\n        response.flash = \'form has errors\'\n    else:\n        response.flash = \'please fill the form\'\n    return dict(form=form)\n    \n    \ndef stress_testing(): \n\n    import commands\n    form = FORM(  TABLE\n        (   TR(INPUT(_name=\'testcase0\', _type=\'checkbox\', _value="0"),\'All\'), \n            BR(),\n            TR(INPUT(_type=\'submit\',_value=\'submit\'))\n        )\n        )\n              \n    if form.process().accepted:\n        test_case_no=request.vars[\'testcase0\']\n        if test_case_no!=None:\n            stress_test_script()\n    elif form.errors:\n        response.flash = \'form has errors\'\n    else:\n        response.flash = \'please fill the form\'\n    return dict(form=form)\n    \n   \ndef integration_testing(): \n    import commands\n    form = FORM(  TABLE\n                  (    TR(INPUT(_name=\'testcase130\', _type=\'checkbox\', _value="130"),\'VM Performance(Memory)\'),\n                       TR(INPUT(_name=\'testcase131\', _type=\'checkbox\', _value="131"),\'VM Performance(CPU)\'),\n                       TR(INPUT(_name=\'testcase132\', _type=\'checkbox\', _value="132"),\'VM Performance(Network)\'),\n                       TR(INPUT(_name=\'testcase133\', _type=\'checkbox\', _value="133"),\'VM Performance(Disk)\'),\n                        TR(INPUT(_name=\'testcase126\', _type=\'checkbox\', _value="126"),\'VM Performance   (Shutdown )\'),\n                    \n                    TR(INPUT(_name=\'testcase72\', _type=\'checkbox\', _value="72"),\'User Request VM(Approved by Faculty,org-admin,admin)\'),\n                     TR(INPUT(_name=\'testcase73\', _type=\'checkbox\', _value="73"),\'User Request VM(Approved by Faculty and Rejected by org-admin)\'),\n                      TR(INPUT(_name=\'testcase74\', _type=\'checkbox\', _value="74"),\'User Request VM(Approved by Faculty,org-admin and Rejected by admin)\'),\n                      TR(INPUT(_name=\'testcase75\', _type=\'checkbox\', _value="76"),\'User Request VM(Rejected by Faculty )\'),\n                    TR(INPUT(_name=\'testcase76\', _type=\'checkbox\', _value="76"),\'Faculty Request VM(Rejected by org-admin)\'),\n                    TR(INPUT(_name=\'testcase77\', _type=\'checkbox\', _value="77"),\'Faculty Request VM(Approved by org-admin  and Rejected by admin)\'),\n                    TR(INPUT(_name=\'testcase78\', _type=\'checkbox\', _value="78"),\'Faculty Request VM(Approved by org-admin, admin)\'),\n                    \n                    \n                   \n                    \n                    \n                  \n                    \n                    \n                    TR(INPUT(_name=\'testcase79\', _type=\'checkbox\', _value="79"),\'Take VM snapshot    (Running )\'),\n                    TR(INPUT(_name=\'testcase80\', _type=\'checkbox\', _value="80"),\'Pause VM   (Running )\'),\n                   TR(INPUT(_name=\'testcase81\', _type=\'checkbox\', _value="81"),\'Add User to VM   (Running )\'),\n                   TR(INPUT(_name=\'testcase82\', _type=\'checkbox\', _value="82"),\'Delete VM    (Running)\'),\n                   TR(INPUT(_name=\'testcase83\', _type=\'checkbox\', _value="83"),\'Gracefully shut down VM    (Running )\'),\n                   TR(INPUT(_name=\'testcase84\', _type=\'checkbox\', _value="84"),\'Forcefully power off VM   (Running )\'),\n                    TR(INPUT(_name=\'testcase86\', _type=\'checkbox\', _value="86") ,\'Migrate VM   (Running )\'),\n                      TR(INPUT(_name=\'testcase88\', _type=\'checkbox\', _value="88"),\'Take VM snapshot   (Paused )\'),\n                      TR(INPUT(_name=\'testcase89\', _type=\'checkbox\', _value="89"),\'Unpause VM   (Paused )\'),\n                      TR(INPUT(_name=\'testcase90\', _type=\'checkbox\', _value="90"),\'Add User to VM  (Paused )\'),\n                      TR(INPUT(_name=\'testcase91\', _type=\'checkbox\', _value="91"),\'Delete VM   (Paused )\'),\n                      TR(INPUT(_name=\'testcase92\', _type=\'checkbox\', _value="92"),\'Forcefully power off VM   (Paused)\'),\n                     TR(INPUT(_name=\'testcase93\', _type=\'checkbox\', _value="93"),\'Migrate VM   (Paused )\'),\n                      TR(INPUT(_name=\'testcase94\', _type=\'checkbox\', _value="94"),\'Delete Add User  (Paused )\'),\n                      TR(INPUT(_name=\'testcase95\', _type=\'checkbox\', _value="95"),\'Revert Snapshot  (Paused )\'),\n                      TR(INPUT(_name=\'testcase96\', _type=\'checkbox\', _value="96"),\'Delete snapshot   (Paused )\'),\n                      TR(INPUT(_name=\'testcase97\', _type=\'checkbox\', _value="97"),\'Turn on VM   (Shutdown )\'),\n                      TR(INPUT(_name=\'testcase98\', _type=\'checkbox\', _value="98"),\'Add User to VM  (Shutdown)\'),\n                      TR(INPUT(_name=\'testcase99\', _type=\'checkbox\', _value="99"),\'Delete VM   (Shutdown )\'),\n\n                       TR(INPUT(_name=\'testcase103\', _type=\'checkbox\', _value="103"),\'Take VM snapshot   (Shutdown )\'),\n                       TR(INPUT(_name=\'testcase104\', _type=\'checkbox\', _value="104"),\'Migrate VM   (Shutdown )\'),\n                        TR(INPUT(_name=\'testcase107\', _type=\'checkbox\', _value="107"),\'User Request Attach Disk(Approved by Faculty,org-admin,admin)\'),\n                        TR(INPUT(_name=\'testcase70\', _type=\'checkbox\', _value="70"),\'Org-Admin Request VM(Approved by admin)\'),\n                    TR(INPUT(_name=\'testcase71\', _type=\'checkbox\', _value="71"), \'Org-Admin Request VM(Rejected by admin)\'),\n                     TR(INPUT(_name=\'testcase109\', _type=\'checkbox\', _value="109"),\'User Request Attach Disk(Approved by Faculty and Rejected by org-admin)\'),\n                      TR(INPUT(_name=\'testcase108\', _type=\'checkbox\', _value="108"),\'User Request Attach Disk(Approved by Faculty,org-admin and Rejected by admin)\'),\n                       TR(INPUT(_name=\'testcase110\', _type=\'checkbox\', _value="110"),\'User Request Attach Disk(Rejected by Faculty )\'),\n                       \n                      TR(INPUT(_name=\'testcase105\', _type=\'checkbox\', _value="105"),\'Org-Admin  Attach Disk(Approved by admin)\'),\n                    TR(INPUT(_name=\'testcase106\', _type=\'checkbox\', _value="106"), \'Org-Admin Attach Disk(Rejected by admin)\'),\n                    \n                     TR(INPUT(_name=\'testcase85\', _type=\'checkbox\', _value="85"),\'Faculty Request Attach Disk(Rejected by org-admin)\'),\n                    TR(INPUT(_name=\'testcase87\', _type=\'checkbox\', _value="87"),\'Faculty Request Attach Disk(Approved by org-admin  and Rejected by admin)\'),\n                   TR(INPUT(_name=\'testcase100\', _type=\'checkbox\', _value="100"),\'Faculty Request Attach Disk(Approved by org-admin, admin)\'),\n                    TR(INPUT(_name=\'testcase101\', _type=\'checkbox\', _value="101"),\'User Request Clone VM(Approved by Faculty,org-admin,admin)\'),\n                   TR(INPUT(_name=\'testcase102\', _type=\'checkbox\', _value="102"),\'User Request Clone VM(Approved by Faculty and Rejected by org-admin)\'),\n                      TR(INPUT(_name=\'testcase111\', _type=\'checkbox\', _value="111"),\'User Request Clone VM(Approved by Faculty,org-admin and Rejected by admin)\'),\n                      TR(INPUT(_name=\'testcase112\', _type=\'checkbox\', _value="112"),\'User Request Clone VM(Rejected by Faculty )\'),\n                    TR(INPUT(_name=\'testcase113\', _type=\'checkbox\', _value="113"),\'Faculty Request Clone VM(Rejected by org-admin)\'),\n                    TR(INPUT(_name=\'testcase114\', _type=\'checkbox\', _value="114"),\'Faculty Request Clone VM(Approved by org-admin  and Rejected by admin)\'),\n                    TR(INPUT(_name=\'testcase115\', _type=\'checkbox\', _value="115"),\'Faculty Request Clone VM(Approved by org-admin, admin)\'),\n                     TR(INPUT(_name=\'testcase116\', _type=\'checkbox\', _value="116"),\'Org-Admin  Request Clone VM(Approved by admin)\'),\n                    TR(INPUT(_name=\'testcase117\', _type=\'checkbox\', _value="117"), \'Org-Admin Request Clone VM(Rejected by admin)\'),\n                    \n                     TR(INPUT(_name=\'testcase118\', _type=\'checkbox\', _value="118"),\'User Request Clone VM(Approved by Faculty,org-admin,admin)\'),\n                   TR(INPUT(_name=\'testcase119\', _type=\'checkbox\', _value="119"),\'User Request Clone VM(Approved by Faculty and Rejected by org-admin)\'),\n                      TR(INPUT(_name=\'testcase120\', _type=\'checkbox\', _value="120"),\'User Request Clone VM(Approved by Faculty,org-admin and Rejected by admin)\'),\n                      TR(INPUT(_name=\'testcase121\', _type=\'checkbox\', _value="121"),\'User Request Edit VM Config(Rejected by Faculty )\'),\n                    TR(INPUT(_name=\'testcase122\', _type=\'checkbox\', _value="122"),\'Faculty Request Clone VM(Rejected by org-admin)\'),\n                    TR(INPUT(_name=\'testcase123\', _type=\'checkbox\', _value="123"),\'Faculty Request Clone VM(Approved by org-admin  and Rejected by admin)\'),\n                    TR(INPUT(_name=\'testcase124\', _type=\'checkbox\', _value="124"),\'Faculty Request Clone VM(Approved by org-admin, admin)\'),\n                     TR(INPUT(_name=\'testcase125\', _type=\'checkbox\', _value="125"),\'Org-Admin  Request Clone VM(Approved by admin)\'),\n                    TR(INPUT(_name=\'testcase126\', _type=\'checkbox\', _value="136"), \'Org-Admin Request Clone VM(Rejected by admin)\'),\n                       \n                       TR(INPUT(_name=\'testcase\', _type=\'checkbox\', _value=""),\'Configure Template\'),\n                       TR(INPUT(_name=\'testcase\', _type=\'checkbox\', _value=""),\'Configure Host\'),\n                        TR(INPUT(_name=\'testcase\', _type=\'checkbox\', _value=""),\'Configure Datastore\'),\n                      \n                      \n                      BR(),\n                      TR(INPUT(_type=\'submit\',_value=\'submit\'))\n            )\n     )\n    if form.process().accepted:\n        for i in range(67,135):\n            test_case_no=request.vars[\'testcase\'+str(i)]\n            if i<=129:\n                if test_case_no!=None:\n                    test_script(test_case_no)\n            else :\n                if test_case_no!=None:\n                    graph_test(test_case_no)\n            \n    elif form.errors:\n        response.flash = \'form has errors\'\n    else:\n        response.flash = \'please fill the form\'\n    return dict(form=form)\n\nresponse._vars=response._caller(integration_testing)\n'
p7
sS'snapshot'
p8
(dp9
S'exception'
p10
(dp11
S'__module__'
p12
S"'httplib'"
p13
sS'__getslice__'
p14
S"<method-wrapper '__getslice__' of BadStatusLine object>"
p15
sS'__str__'
p16
S"<method-wrapper '__str__' of BadStatusLine object>"
p17
sS'__reduce__'
p18
S'<built-in method __reduce__ of BadStatusLine object>'
p19
sS'__dict__'
p20
S'{\'line\': "\'\'"}'
p21
sS'__sizeof__'
p22
S'<built-in method __sizeof__ of BadStatusLine object>'
p23
sS'__weakref__'
p24
S'None'
p25
sS'__init__'
p26
S'<bound method BadStatusLine.__init__ of BadStatusLine("\'\'",)>'
p27
sS'__setattr__'
p28
S"<method-wrapper '__setattr__' of BadStatusLine object>"
p29
sS'__reduce_ex__'
p30
S'<built-in method __reduce_ex__ of BadStatusLine object>'
p31
sS'__new__'
p32
S'<built-in method __new__ of type object>'
p33
sS'__format__'
p34
S'<built-in method __format__ of BadStatusLine object>'
p35
sS'__class__'
p36
S"<class 'httplib.BadStatusLine'>"
p37
sS'__doc__'
p38
S'None'
p39
sS'__getitem__'
p40
S"<method-wrapper '__getitem__' of BadStatusLine object>"
p41
sS'__setstate__'
p42
S'<built-in method __setstate__ of BadStatusLine object>'
p43
sS'__getattribute__'
p44
S"<method-wrapper '__getattribute__' of BadStatusLine object>"
p45
sS'args'
p46
S'("\'\'",)'
p47
sS'__subclasshook__'
p48
S'<built-in method __subclasshook__ of type object>'
p49
sS'line'
p50
S'"\'\'"'
p51
sS'__unicode__'
p52
S'<built-in method __unicode__ of BadStatusLine object>'
p53
sS'__delattr__'
p54
S"<method-wrapper '__delattr__' of BadStatusLine object>"
p55
sS'__repr__'
p56
S"<method-wrapper '__repr__' of BadStatusLine object>"
p57
sS'__hash__'
p58
S"<method-wrapper '__hash__' of BadStatusLine object>"
p59
ssS'evalue'
p60
S"''"
p61
sS'request'
p62
cgluon.html
XML_unpickle
p63
(S'sDU\x00\x00<div><table><tr><td style="font-weight:bold;vertical-align:top">ajax</td><td valign="top">:</td><td><div>False</div></td></tr><tr><td style="font-weight:bold;vertical-align:top">application</td><td valign="top">:</td><td><div>testapp</div></td></tr><tr><td style="font-weight:bold;vertical-align:top">args</td><td valign="top">:</td><td><div><table></table></div></td></tr><tr><td style="font-weight:bold;vertical-align:top">body</td><td valign="top">:</td><td><div>&lt;open file &#x27;&lt;fdopen&gt;&#x27;, mode &#x27;w+b&#x27; at 0x7fbda456a150&gt;</div></td></tr><tr><td style="font-weight:bold;vertical-align:top">cid</td><td valign="top">:</td><td><div>None</div></td></tr><tr><td style="font-weight:bold;vertical-align:top">client</td><td valign="top">:</td><td><div>127.0.0.1</div></td></tr><tr><td style="font-weight:bold;vertical-align:top">controller</td><td valign="top">:</td><td><div>default</div></td></tr><tr><td style="font-weight:bold;vertical-align:top">cookies</td><td valign="top">:</td><td><div><table><tr><td style="font-weight:bold;vertical-align:top">session_id_admin</td><td valign="top">:</td><td><div>127.0.0.1-76e3cb50-1b5a-488d-a8e1-86f1ab7b9f02<table><tr><td style="font-weight:bold;vertical-align:top">comment</td><td valign="top">:</td><td><div></div></td></tr><tr><td style="font-weight:bold;vertical-align:top">domain</td><td valign="top">:</td><td><div></div></td></tr><tr><td style="font-weight:bold;vertical-align:top">expires</td><td valign="top">:</td><td><div></div></td></tr><tr><td style="font-weight:bold;vertical-align:top">httponly</td><td valign="top">:</td><td><div></div></td></tr><tr><td style="font-weight:bold;vertical-align:top">max-age</td><td valign="top">:</td><td><div></div></td></tr><tr><td style="font-weight:bold;vertical-align:top">path</td><td valign="top">:</td><td><div></div></td></tr><tr><td style="font-weight:bold;vertical-align:top">secure</td><td valign="top">:</td><td><div></div></td></tr><tr><td style="font-weight:bold;vertical-align:top">version</td><td valign="top">:</td><td><div></div></td></tr></table></div></td></tr><tr><td style="font-weight:bold;vertical-align:top">session_id_testapp</td><td valign="top">:</td><td><div>127.0.0.1-3dcf01fd-b587-41cc-bcb2-51ec2a0d3156<table><tr><td style="font-weight:bold;vertical-align:top">comment</td><td valign="top">:</td><td><div></div></td></tr><tr><td style="font-weight:bold;vertical-align:top">domain</td><td valign="top">:</td><td><div></div></td></tr><tr><td style="font-weight:bold;vertical-align:top">expires</td><td valign="top">:</td><td><div></div></td></tr><tr><td style="font-weight:bold;vertical-align:top">httponly</td><td valign="top">:</td><td><div></div></td></tr><tr><td style="font-weight:bold;vertical-align:top">max-age</td><td valign="top">:</td><td><div></div></td></tr><tr><td style="font-weight:bold;vertical-align:top">path</td><td valign="top">:</td><td><div></div></td></tr><tr><td style="font-weight:bold;vertical-align:top">secure</td><td valign="top">:</td><td><div></div></td></tr><tr><td style="font-weight:bold;vertical-align:top">version</td><td valign="top">:</td><td><div></div></td></tr></table></div></td></tr></table></div></td></tr><tr><td style="font-weight:bold;vertical-align:top">env</td><td valign="top">:</td><td><div><table><tr><td style="font-weight:bold;vertical-align:top">app_folders</td><td valign="top">:</td><td><div>set([&#x27;/home/monika/Desktop/web2py/applications/admin/&#x27;, &#x27;/home/monika/Desktop/web2py/applications/testapp/&#x27;])</div></td></tr><tr><td style="font-weight:bold;vertical-align:top">applications_parent</td><td valign="top">:</td><td><div>/home/monika/Desktop/web2py</div></td></tr><tr><td style="font-weight:bold;vertical-align:top">cmd_args</td><td valign="top">:</td><td><div><table></table></div></td></tr><tr><td style="font-weight:bold;vertical-align:top">cmd_options</td><td valign="top">:</td><td><div>&lt;Values at 0x1bd2fc8: {&#x27;verbose&#x27;: False, &#x27;ip&#x27;: &#x27;127.0.0.1&#x27;, &#x27;with_scheduler&#x27;: False, &#x27;ips&#x27;: [], &#x27;shutdown_timeout&#x27;: 5, &#x27;taskbar&#x27;: False, &#x27;port&#x27;: 8000, &#x27;maxthreads&#x27;: None, &#x27;softcron&#x27;: False, &#x27;server_name&#x27;: &#x27;dell-OptiPlex-7010&#x27;, &#x27;bpython&#x27;: False, &#x27;nogui&#x27;: False, &#x27;pid_filename&#x27;: &#x27;httpserver.pid&#x27;, &#x27;extcron&#x27;: False, &#x27;runcron&#x27;: False, &#x27;run_system_tests&#x27;: False, &#x27;test&#x27;: None, &#x27;folder&#x27;: &#x27;/home/monika/Desktop/web2py&#x27;, &#x27;config&#x27;: &#x27;&#x27;, &#x27;minthreads&#x27;: None, &#x27;winservice&#x27;: &#x27;&#x27;, &#x27;shell&#x27;: None, &#x27;run&#x27;: &#x27;&#x27;, &#x27;log_filename&#x27;: &#x27;httpserver.log&#x27;, &#x27;debuglevel&#x27;: 30, &#x27;args&#x27;: [&#x27;&#x27;], &#x27;socket_timeout&#x27;: 5, &#x27;ssl_ca_certificate&#x27;: None, &#x27;scheduler&#x27;: None, &#x27;profiler_filename&#x27;: None, &#x27;ssl_private_key&#x27;: &#x27;&#x27;, &#x27;scheduler_groups&#x27;: None, &#x27;password&#x27;: &#x27;&lt;ask&gt;&#x27;, &#x27;request_queue_size&#x27;: 5, &#x27;ssl_certificate&#x27;: &#x27;&#x27;, &#x27;cronjob&#x27;: False, &#x27;numthreads&#x27;: None, &#x27;quiet&#x27;: False, &#x27;interfaces&#x27;: None, &#x27;import_models&#x27;: False, &#x27;timeout&#x27;: 10, &#x27;plain&#x27;: False, &#x27;nobanner&#x27;: False}&gt;</div></td></tr><tr><td style="font-weight:bold;vertical-align:top">content_length</td><td valign="top">:</td><td><div>451</div></td></tr><tr><td style="font-weight:bold;vertical-align:top">content_type</td><td valign="top">:</td><td><div>multipart/form-data; boundary=---------------------------99360103911641842921983663648</div></td></tr><tr><td style="font-weight:bold;vertical-align:top">db_sessions</td><td valign="top">:</td><td><div>set([])</div></td></tr><tr><td style="font-weight:bold;vertical-align:top">debugging</td><td valign="top">:</td><td><div>False</div></td></tr><tr><td style="font-weight:bold;vertical-align:top">gluon_parent</td><td valign="top">:</td><td><div>/home/monika/Desktop/web2py</div></td></tr><tr><td style="font-weight:bold;vertical-align:top">http_accept</td><td valign="top">:</td><td><div>text/html,application/xhtml+xml,application/xml;q=0.9,*/*;q=0.8</div></td></tr><tr><td style="font-weight:bold;vertical-align:top">http_accept_encoding</td><td valign="top">:</td><td><div>gzip, deflate</div></td></tr><tr><td style="font-weight:bold;vertical-align:top">http_accept_language</td><td valign="top">:</td><td><div>en-US,en;q=0.5</div></td></tr><tr><td style="font-weight:bold;vertical-align:top">http_connection</td><td valign="top">:</td><td><div>keep-alive</div></td></tr><tr><td style="font-weight:bold;vertical-align:top">http_content_length</td><td valign="top">:</td><td><div>451</div></td></tr><tr><td style="font-weight:bold;vertical-align:top">http_content_type</td><td valign="top">:</td><td><div>multipart/form-data; boundary=---------------------------99360103911641842921983663648</div></td></tr><tr><td style="font-weight:bold;vertical-align:top">http_cookie</td><td valign="top">:</td><td><div>session_id_testapp=127.0.0.1-3dcf01fd-b587-41cc-bcb2-51ec2a0d3156; session_id_admin=127.0.0.1-76e3cb50-1b5a-488d-a8e1-86f1ab7b9f02</div></td></tr><tr><td style="font-weight:bold;vertical-align:top">http_host</td><td valign="top">:</td><td><div>127.0.0.1:8000</div></td></tr><tr><td style="font-weight:bold;vertical-align:top">http_referer</td><td valign="top">:</td><td><div>http://127.0.0.1:8000/testapp/default/integration_testing</div></td></tr><tr><td style="font-weight:bold;vertical-align:top">http_user_agent</td><td valign="top">:</td><td><div>Mozilla/5.0 (X11; Ubuntu; Linux x86_64; rv:21.0) Gecko/20100101 Firefox/21.0</div></td></tr><tr><td style="font-weight:bold;vertical-align:top">is_jython</td><td valign="top">:</td><td><div>False</div></td></tr><tr><td style="font-weight:bold;vertical-align:top">is_pypy</td><td valign="top">:</td><td><div>False</div></td></tr><tr><td style="font-weight:bold;vertical-align:top">local_hosts</td><td valign="top">:</td><td><div><table><tr><td><div>127.0.1.1</div></td></tr><tr><td><div>::1</div></td></tr><tr><td><div>dell-OptiPlex-7010</div></td></tr><tr><td><div>::ffff:127.0.0.1</div></td></tr><tr><td><div>127.0.0.1</div></td></tr></table></div></td></tr><tr><td style="font-weight:bold;vertical-align:top">path_info</td><td valign="top">:</td><td><div>/testapp/default/integration_testing</div></td></tr><tr><td style="font-weight:bold;vertical-align:top">query_string</td><td valign="top">:</td><td><div></div></td></tr><tr><td style="font-weight:bold;vertical-align:top">remote_addr</td><td valign="top">:</td><td><div>127.0.0.1</div></td></tr><tr><td style="font-weight:bold;vertical-align:top">remote_port</td><td valign="top">:</td><td><div>36547</div></td></tr><tr><td style="font-weight:bold;vertical-align:top">request_method</td><td valign="top">:</td><td><div>POST</div></td></tr><tr><td style="font-weight:bold;vertical-align:top">request_uri</td><td valign="top">:</td><td><div>/testapp/default/integration_testing</div></td></tr><tr><td style="font-weight:bold;vertical-align:top">script_name</td><td valign="top">:</td><td><div></div></td></tr><tr><td style="font-weight:bold;vertical-align:top">server_name</td><td valign="top">:</td><td><div>dell-OptiPlex-7010</div></td></tr><tr><td style="font-weight:bold;vertical-align:top">server_port</td><td valign="top">:</td><td><div>8000</div></td></tr><tr><td style="font-weight:bold;vertical-align:top">server_protocol</td><td valign="top">:</td><td><div>HTTP/1.1</div></td></tr><tr><td style="font-weight:bold;vertical-align:top">server_software</td><td valign="top">:</td><td><div>Rocket 1.2.6</div></td></tr><tr><td style="font-weight:bold;vertical-align:top">web2py_path</td><td valign="top">:</td><td><div>/home/monika/Desktop/web2py</div></td></tr><tr><td style="font-weight:bold;vertical-align:top">web2py_version</td><td valign="top">:</td><td><div>2.4.4-stable+timestamp.2013.03.11.20.32.00</div></td></tr><tr><td style="font-weight:bold;vertical-align:top">wsgi_errors</td><td valign="top">:</td><td><div>&lt;open file &#x27;&lt;stderr&gt;&#x27;, mode &#x27;w&#x27; at 0x7fbdc2689270&gt;</div></td></tr><tr><td style="font-weight:bold;vertical-align:top">wsgi_file_wrapper</td><td valign="top">:</td><td><div>&lt;class wsgiref.util.FileWrapper at 0x1b44ce8&gt;</div></td></tr><tr><td style="font-weight:bold;vertical-align:top">wsgi_input</td><td valign="top">:</td><td><div>&lt;socket._fileobject object at 0x7fbd9c457f50&gt;</div></td></tr><tr><td style="font-weight:bold;vertical-align:top">wsgi_multiprocess</td><td valign="top">:</td><td><div>False</div></td></tr><tr><td style="font-weight:bold;vertical-align:top">wsgi_multithread</td><td valign="top">:</td><td><div>True</div></td></tr><tr><td style="font-weight:bold;vertical-align:top">wsgi_run_once</td><td valign="top">:</td><td><div>False</div></td></tr><tr><td style="font-weight:bold;vertical-align:top">wsgi_url_scheme</td><td valign="top">:</td><td><div>http</div></td></tr><tr><td style="font-weight:bold;vertical-align:top">wsgi_version</td><td valign="top">:</td><td><div><table><tr><td><div>1</div></td></tr><tr><td><div>0</div></td></tr></table></div></td></tr></table></div></td></tr><tr><td style="font-weight:bold;vertical-align:top">extension</td><td valign="top">:</td><td><div>html</div></td></tr><tr><td style="font-weight:bold;vertical-align:top">folder</td><td valign="top">:</td><td><div>/home/monika/Desktop/web2py/applications/testapp/</div></td></tr><tr><td style="font-weight:bold;vertical-align:top">function</td><td valign="top">:</td><td><div>integration_testing</div></td></tr><tr><td style="font-weight:bold;vertical-align:top">get_vars</td><td valign="top">:</td><td><div><table></table></div></td></tr><tr><td style="font-weight:bold;vertical-align:top">global_settings</td><td valign="top">:</td><td><div><table><tr><td style="font-weight:bold;vertical-align:top">app_folders</td><td valign="top">:</td><td><div>set([&#x27;/home/monika/Desktop/web2py/applications/admin/&#x27;, &#x27;/home/monika/Desktop/web2py/applications/testapp/&#x27;])</div></td></tr><tr><td style="font-weight:bold;vertical-align:top">applications_parent</td><td valign="top">:</td><td><div>/home/monika/Desktop/web2py</div></td></tr><tr><td style="font-weight:bold;vertical-align:top">cmd_args</td><td valign="top">:</td><td><div><table></table></div></td></tr><tr><td style="font-weight:bold;vertical-align:top">cmd_options</td><td valign="top">:</td><td><div>&lt;Values at 0x1bd2fc8: {&#x27;verbose&#x27;: False, &#x27;ip&#x27;: &#x27;127.0.0.1&#x27;, &#x27;with_scheduler&#x27;: False, &#x27;ips&#x27;: [], &#x27;shutdown_timeout&#x27;: 5, &#x27;taskbar&#x27;: False, &#x27;port&#x27;: 8000, &#x27;maxthreads&#x27;: None, &#x27;softcron&#x27;: False, &#x27;server_name&#x27;: &#x27;dell-OptiPlex-7010&#x27;, &#x27;bpython&#x27;: False, &#x27;nogui&#x27;: False, &#x27;pid_filename&#x27;: &#x27;httpserver.pid&#x27;, &#x27;extcron&#x27;: False, &#x27;runcron&#x27;: False, &#x27;run_system_tests&#x27;: False, &#x27;test&#x27;: None, &#x27;folder&#x27;: &#x27;/home/monika/Desktop/web2py&#x27;, &#x27;config&#x27;: &#x27;&#x27;, &#x27;minthreads&#x27;: None, &#x27;winservice&#x27;: &#x27;&#x27;, &#x27;shell&#x27;: None, &#x27;run&#x27;: &#x27;&#x27;, &#x27;log_filename&#x27;: &#x27;httpserver.log&#x27;, &#x27;debuglevel&#x27;: 30, &#x27;args&#x27;: [&#x27;&#x27;], &#x27;socket_timeout&#x27;: 5, &#x27;ssl_ca_certificate&#x27;: None, &#x27;scheduler&#x27;: None, &#x27;profiler_filename&#x27;: None, &#x27;ssl_private_key&#x27;: &#x27;&#x27;, &#x27;scheduler_groups&#x27;: None, &#x27;password&#x27;: &#x27;&lt;ask&gt;&#x27;, &#x27;request_queue_size&#x27;: 5, &#x27;ssl_certificate&#x27;: &#x27;&#x27;, &#x27;cronjob&#x27;: False, &#x27;numthreads&#x27;: None, &#x27;quiet&#x27;: False, &#x27;interfaces&#x27;: None, &#x27;import_models&#x27;: False, &#x27;timeout&#x27;: 10, &#x27;plain&#x27;: False, &#x27;nobanner&#x27;: False}&gt;</div></td></tr><tr><td style="font-weight:bold;vertical-align:top">db_sessions</td><td valign="top">:</td><td><div>set([])</div></td></tr><tr><td style="font-weight:bold;vertical-align:top">debugging</td><td valign="top">:</td><td><div>False</div></td></tr><tr><td style="font-weight:bold;vertical-align:top">gluon_parent</td><td valign="top">:</td><td><div>/home/monika/Desktop/web2py</div></td></tr><tr><td style="font-weight:bold;vertical-align:top">is_jython</td><td valign="top">:</td><td><div>False</div></td></tr><tr><td style="font-weight:bold;vertical-align:top">is_pypy</td><td valign="top">:</td><td><div>False</div></td></tr><tr><td style="font-weight:bold;vertical-align:top">local_hosts</td><td valign="top">:</td><td><div><table><tr><td><div>127.0.1.1</div></td></tr><tr><td><div>::1</div></td></tr><tr><td><div>dell-OptiPlex-7010</div></td></tr><tr><td><div>::ffff:127.0.0.1</div></td></tr><tr><td><div>127.0.0.1</div></td></tr></table></div></td></tr><tr><td style="font-weight:bold;vertical-align:top">web2py_version</td><td valign="top">:</td><td><div>2.4.4-stable+timestamp.2013.03.11.20.32.00</div></td></tr></table></div></td></tr><tr><td style="font-weight:bold;vertical-align:top">is_https</td><td valign="top">:</td><td><div>False</div></td></tr><tr><td style="font-weight:bold;vertical-align:top">is_local</td><td valign="top">:</td><td><div>True</div></td></tr><tr><td style="font-weight:bold;vertical-align:top">is_restful</td><td valign="top">:</td><td><div>False</div></td></tr><tr><td style="font-weight:bold;vertical-align:top">now</td><td valign="top">:</td><td><div>datetime.datetime(2013, 12, 24, 14, 50, 51, 891049)</div></td></tr><tr><td style="font-weight:bold;vertical-align:top">post_vars</td><td valign="top">:</td><td><div><table><tr><td style="font-weight:bold;vertical-align:top">testcase101</td><td valign="top">:</td><td><div>101</div></td></tr></table></div></td></tr><tr><td style="font-weight:bold;vertical-align:top">raw_args</td><td valign="top">:</td><td><div></div></td></tr><tr><td style="font-weight:bold;vertical-align:top">raw_extension</td><td valign="top">:</td><td><div>None</div></td></tr><tr><td style="font-weight:bold;vertical-align:top">url</td><td valign="top">:</td><td><div>/testapp/default/integration_testing</div></td></tr><tr><td style="font-weight:bold;vertical-align:top">utcnow</td><td valign="top">:</td><td><div>datetime.datetime(2013, 12, 24, 9, 20, 51, 891067)</div></td></tr><tr><td style="font-weight:bold;vertical-align:top">uuid</td><td valign="top">:</td><td><div>testapp/127.0.0.1.2013-12-24.14-50-51.7b668195-ec31-4522-a1b1-401446527da1</div></td></tr><tr><td style="font-weight:bold;vertical-align:top">vars</td><td valign="top">:</td><td><div><table><tr><td style="font-weight:bold;vertical-align:top">testcase101</td><td valign="top">:</td><td><div>101</div></td></tr></table></div></td></tr><tr><td style="font-weight:bold;vertical-align:top">wsgi</td><td valign="top">:</td><td><div><table><tr><td style="font-weight:bold;vertical-align:top">environ</td><td valign="top">:</td><td><div><table><tr><td style="font-weight:bold;vertical-align:top">CONTENT_LENGTH</td><td valign="top">:</td><td><div>451</div></td></tr><tr><td style="font-weight:bold;vertical-align:top">CONTENT_TYPE</td><td valign="top">:</td><td><div>multipart/form-data; boundary=---------------------------99360103911641842921983663648</div></td></tr><tr><td style="font-weight:bold;vertical-align:top">HTTP_ACCEPT</td><td valign="top">:</td><td><div>text/html,application/xhtml+xml,application/xml;q=0.9,*/*;q=0.8</div></td></tr><tr><td style="font-weight:bold;vertical-align:top">HTTP_ACCEPT_ENCODING</td><td valign="top">:</td><td><div>gzip, deflate</div></td></tr><tr><td style="font-weight:bold;vertical-align:top">HTTP_ACCEPT_LANGUAGE</td><td valign="top">:</td><td><div>en-US,en;q=0.5</div></td></tr><tr><td style="font-weight:bold;vertical-align:top">HTTP_CONNECTION</td><td valign="top">:</td><td><div>keep-alive</div></td></tr><tr><td style="font-weight:bold;vertical-align:top">HTTP_CONTENT_LENGTH</td><td valign="top">:</td><td><div>451</div></td></tr><tr><td style="font-weight:bold;vertical-align:top">HTTP_CONTENT_TYPE</td><td valign="top">:</td><td><div>multipart/form-data; boundary=---------------------------99360103911641842921983663648</div></td></tr><tr><td style="font-weight:bold;vertical-align:top">HTTP_COOKIE</td><td valign="top">:</td><td><div>session_id_testapp=127.0.0.1-3dcf01fd-b587-41cc-bcb2-51ec2a0d3156; session_id_admin=127.0.0.1-76e3cb50-1b5a-488d-a8e1-86f1ab7b9f02</div></td></tr><tr><td style="font-weight:bold;vertical-align:top">HTTP_HOST</td><td valign="top">:</td><td><div>127.0.0.1:8000</div></td></tr><tr><td style="font-weight:bold;vertical-align:top">HTTP_REFERER</td><td valign="top">:</td><td><div>http://127.0.0.1:8000/testapp/default/integration_testing</div></td></tr><tr><td style="font-weight:bold;vertical-align:top">HTTP_USER_AGENT</td><td valign="top">:</td><td><div>Mozilla/5.0 (X11; Ubuntu; Linux x86_64; rv:21.0) Gecko/20100101 Firefox/21.0</div></td></tr><tr><td style="font-weight:bold;vertical-align:top">PATH_INFO</td><td valign="top">:</td><td><div>/testapp/default/integration_testing</div></td></tr><tr><td style="font-weight:bold;vertical-align:top">QUERY_STRING</td><td valign="top">:</td><td><div></div></td></tr><tr><td style="font-weight:bold;vertical-align:top">REMOTE_ADDR</td><td valign="top">:</td><td><div>127.0.0.1</div></td></tr><tr><td style="font-weight:bold;vertical-align:top">REMOTE_PORT</td><td valign="top">:</td><td><div>36547</div></td></tr><tr><td style="font-weight:bold;vertical-align:top">REQUEST_METHOD</td><td valign="top">:</td><td><div>POST</div></td></tr><tr><td style="font-weight:bold;vertical-align:top">REQUEST_URI</td><td valign="top">:</td><td><div>/testapp/default/integration_testing</div></td></tr><tr><td style="font-weight:bold;vertical-align:top">SCRIPT_NAME</td><td valign="top">:</td><td><div></div></td></tr><tr><td style="font-weight:bold;vertical-align:top">SERVER_NAME</td><td valign="top">:</td><td><div>dell-OptiPlex-7010</div></td></tr><tr><td style="font-weight:bold;vertical-align:top">SERVER_PORT</td><td valign="top">:</td><td><div>8000</div></td></tr><tr><td style="font-weight:bold;vertical-align:top">SERVER_PROTOCOL</td><td valign="top">:</td><td><div>HTTP/1.1</div></td></tr><tr><td style="font-weight:bold;vertical-align:top">SERVER_SOFTWARE</td><td valign="top">:</td><td><div>Rocket 1.2.6</div></td></tr><tr><td style="font-weight:bold;vertical-align:top">wsgi.errors</td><td valign="top">:</td><td><div>&lt;open file &#x27;&lt;stderr&gt;&#x27;, mode &#x27;w&#x27; at 0x7fbdc2689270&gt;</div></td></tr><tr><td style="font-weight:bold;vertical-align:top">wsgi.file_wrapper</td><td valign="top">:</td><td><div>&lt;class wsgiref.util.FileWrapper at 0x1b44ce8&gt;</div></td></tr><tr><td style="font-weight:bold;vertical-align:top">wsgi.input</td><td valign="top">:</td><td><div>&lt;open file &#x27;&lt;fdopen&gt;&#x27;, mode &#x27;w+b&#x27; at 0x7fbda456a150&gt;</div></td></tr><tr><td style="font-weight:bold;vertical-align:top">wsgi.multiprocess</td><td valign="top">:</td><td><div>False</div></td></tr><tr><td style="font-weight:bold;vertical-align:top">wsgi.multithread</td><td valign="top">:</td><td><div>True</div></td></tr><tr><td style="font-weight:bold;vertical-align:top">wsgi.run_once</td><td valign="top">:</td><td><div>False</div></td></tr><tr><td style="font-weight:bold;vertical-align:top">wsgi.url_scheme</td><td valign="top">:</td><td><div>http</div></td></tr><tr><td style="font-weight:bold;vertical-align:top">wsgi.version</td><td valign="top">:</td><td><div>1</div></td></tr></table></div></td></tr></table></div></td></tr></table></div>'
tRp64
sS'frames'
p65
(lp66
(dp67
S'file'
p68
S'/home/monika/Desktop/web2py/gluon/restricted.py'
p69
sS'dump'
p70
(dp71
S'environment'
p72
S"{'A': <class 'gluon.html.A'>, 'Auth': <class 'gluon.tools.Auth'>, 'B': <class 'gluon.html.B'>, 'BEAUTIFY': <class 'gluon.html.BEAUTIFY'>, 'BODY': <class 'gluon.html.BODY'>, 'BR': <class 'gluon.html.BR'>, 'BUTTON': <class 'gluon.html.BUTTON'>, 'CAT': <class 'gluon.html.CAT'>, 'CENTER': <class 'gluon.html.CENTER'>, 'CLEANUP': <class 'gluon.validators.CLEANUP'>, ...}"
p73
sS'ccode'
p74
S'<code object <module> at 0x7fbd9c885f30, file "/...cations/testapp/controllers/default.py", line 11>'
p75
ssS'lnum'
p76
I212
sS'lines'
p77
(dp78
I207
S'    try:'
p79
sI208
S'        if isinstance(code, types.CodeType):'
p80
sI209
S'            ccode = code'
p81
sI210
S'        else:'
p82
sI211
S'            ccode = compile2(code, layer)'
p83
sI212
S'        exec ccode in environment'
p84
sI213
S'    except HTTP:'
p85
sI214
S'        raise'
p86
sI215
S'    except RestrictedError:'
p87
sI216
S'        # do not encapsulate (obfuscate) the original RestrictedError'
p88
ssS'call'
p89
S"(code='# -*- coding: utf-8 -*-\\n# this file is released ...onse._vars=response._caller(integration_testing)\\n', environment={'A': <class 'gluon.html.A'>, 'Auth': <class 'gluon.tools.Auth'>, 'B': <class 'gluon.html.B'>, 'BEAUTIFY': <class 'gluon.html.BEAUTIFY'>, 'BODY': <class 'gluon.html.BODY'>, 'BR': <class 'gluon.html.BR'>, 'BUTTON': <class 'gluon.html.BUTTON'>, 'CAT': <class 'gluon.html.CAT'>, 'CENTER': <class 'gluon.html.CENTER'>, 'CLEANUP': <class 'gluon.validators.CLEANUP'>, ...}, layer='/home/monika/Desktop/web2py/applications/testapp/controllers/default.py')"
p90
sS'func'
p91
S'restricted'
p92
sa(dp93
g68
S'/home/monika/Desktop/web2py/applications/testapp/controllers/default.py'
p94
sg70
(dp95
sg76
I346
sg77
(dp96
I335
S'                    test_script(test_case_no)'
p97
sI336
S'            else :'
p98
sI337
S'                if test_case_no!=None:'
p99
sI338
S'                    graph_test(test_case_no)'
p100
sI339
S''
sI340
S'    elif form.errors:'
p101
sI341
S"        response.flash = 'form has errors'"
p102
sI342
S'    else:'
p103
sI343
S"        response.flash = 'please fill the form'"
p104
sI344
S'    return dict(form=form)'
p105
ssg89
S'()'
p106
sg91
S'<module>'
p107
sa(dp108
g68
S'/home/monika/Desktop/web2py/gluon/globals.py'
p109
sg70
(dp110
S'self'
p111
S'undefined'
p112
sS'f'
S'<function integration_testing>'
p113
ssg76
I194
sg77
(dp114
I192
S"        self.delimiters = ('{{', '}}')"
p115
sI193
S'        self._vars = None'
p116
sI194
S'        self._caller = lambda f: f()'
p117
sI195
S'        self._view_environment = None'
p118
sI196
S'        self._custom_commit = None'
p119
sI197
S'        self._custom_rollback = None'
p120
sI198
S''
sI189
S'        self.menu = []             # used by the default view layout'
p121
sI190
S'        self.files = []            # used by web2py_ajax.html'
p122
sI191
S'        self.generic_patterns = []  # patterns to allow generic views'
p123
ssg89
S'(f=<function integration_testing>)'
p124
sg91
S'<lambda>'
p125
sa(dp126
g68
S'/home/monika/Desktop/web2py/applications/testapp/controllers/default.py'
p127
sg70
(dp128
S'test_case_no'
p129
S"'101'"
p130
sS'global test_script'
p131
S'<function test_script>'
p132
ssg76
I335
sg77
(dp133
I330
S'    if form.process().accepted:'
p134
sI331
S'        for i in range(67,135):'
p135
sI332
S"            test_case_no=request.vars['testcase'+str(i)]"
p136
sI333
S'            if i<=129:'
p137
sI334
S'                if test_case_no!=None:'
p138
sI335
S'                    test_script(test_case_no)'
p139
sI336
S'            else :'
p140
sI337
S'                if test_case_no!=None:'
p141
sI338
S'                    graph_test(test_case_no)'
p142
sI339
S''
ssg89
S'()'
p143
sg91
S'integration_testing'
p144
sa(dp145
g68
S'/home/monika/Desktop/web2py/applications/testapp/models/test.py'
p146
sg70
(dp147
S'xml_child'
p148
S"<Element 'test_case1'>"
p149
sS'xml_sub_child'
p150
S"<Element 'list_vm'>"
p151
sS'driver'
p152
S'<selenium.webdriver.firefox.webdriver.WebDriver object>'
p153
sS'global isHref'
p154
S'<function isHref>'
p155
ssg76
I218
sg77
(dp156
I213
S''
sI214
S'                    elif field_type=="scroll":#scrolling the page up/down'
p157
sI215
S'                        isScroll(driver,xml_sub_child)'
p158
sI216
S''
sI217
S'                    elif field_type=="href":'
p159
sI218
S'                        isHref(driver,xml_sub_child,xml_child)#clicking on the hyper link'
p160
sI219
S''
sI220
S'                    elif field_type=="select":'
p161
sI221
S'                        isSelect(driver,xml_sub_child)# selecting from dropdown menu'
p162
sI222
S''
ssg89
S"(test_case_no='101')"
p163
sg91
S'test_script'
p164
sa(dp165
g68
S'/home/monika/Desktop/web2py/applications/testapp/models/test.py'
p166
sg70
(dp167
S'driver.find_element_by_partial_link_text'
p168
S'<bound method WebDriver.find_element_by_partial_...um.webdriver.firefox.webdriver.WebDriver object>>'
p169
sS'xml_sub_child'
p170
S"<Element 'list_vm'>"
p171
sS'driver'
p172
S'<selenium.webdriver.firefox.webdriver.WebDriver object>'
p173
sS').click'
p174
g112
sS'xml_sub_child.text'
p175
S"'Clone VM'"
p176
ssg76
I1173
sg77
(dp177
I1168
S'\tfield.send_keys(xml_sub_child.text)'
p178
sI1169
S'\tdriver.execute_script("window.scrollBy(0,200)", "")'
p179
sI1170
S'\treturn'
p180
sI1171
S''
sI1172
S'def isHref(driver, xml_sub_child,xml_child):'
p181
sI1173
S'    driver.find_element_by_partial_link_text(xml_sub_child.text).click()'
p182
sI1174
S'    if xml_sub_child.get("id")=="collaborator":'
p183
sI1175
S'        xpath=xml_sub_child.get("xpath")'
p184
sI1176
S'        if isElementPresent(driver,xml_child,table_path):'
p185
sI1177
S''
ssg89
S"(driver=<selenium.webdriver.firefox.webdriver.WebDriver object>, xml_sub_child=<Element 'list_vm'>, xml_child=<Element 'test_case1'>)"
p186
sg91
S'isHref'
p187
sa(dp188
g68
S'/usr/local/lib/python2.7/dist-packages/selenium/webdriver/remote/webelement.py'
p189
sg70
(dp190
S'global Command'
p191
S"<class 'selenium.webdriver.remote.command.Command'>"
p192
sS'self._execute'
p193
S'<bound method WebElement._execute of <selenium.webdriver.remote.webelement.WebElement object>>'
p194
sS'self'
p195
S'<selenium.webdriver.remote.webelement.WebElement object>'
p196
sS'Command.CLICK_ELEMENT'
p197
S"'clickElement'"
p198
ssg76
I54
sg77
(dp199
I49
S'        """Gets the text of the element."""'
p200
sI50
S"        return self._execute(Command.GET_ELEMENT_TEXT)['value']"
p201
sI51
S''
sI52
S'    def click(self):'
p202
sI53
S'        """Clicks the element."""'
p203
sI54
S'        self._execute(Command.CLICK_ELEMENT)'
p204
sI55
S''
sI56
S'    def submit(self):'
p205
sI57
S'        """Submits a form."""'
p206
sI58
S'        self._execute(Command.SUBMIT_ELEMENT)'
p207
ssg89
S'(self=<selenium.webdriver.remote.webelement.WebElement object>)'
p208
sg91
S'click'
p209
sa(dp210
g68
S'/usr/local/lib/python2.7/dist-packages/selenium/webdriver/remote/webelement.py'
p211
sg70
(dp212
S'command'
p213
S"'clickElement'"
p214
sS'self'
p215
S'<selenium.webdriver.remote.webelement.WebElement object>'
p216
sS'self._parent.execute'
p217
S'<bound method WebDriver.execute of <selenium.webdriver.firefox.webdriver.WebDriver object>>'
p218
sS'params'
p219
S"{'id': u'{708b7329-fd85-4348-aa96-ab0fbcfaf8d4}', 'sessionId': u'e7aece42-2410-493a-901f-c442f80cef0f'}"
p220
sS'self._parent'
p221
S'<selenium.webdriver.firefox.webdriver.WebDriver object>'
p222
ssg76
I228
sg77
(dp223
I224
S'        """'
p224
sI225
S'        if not params:'
p225
sI226
S'            params = {}'
p226
sI227
S"        params['id'] = self._id"
p227
sI228
S'        return self._parent.execute(command, params)'
p228
sI229
S''
sI230
S'    def find_element(self, by=By.ID, value=None):'
p229
sI231
S'        if isinstance(by, tuple) or isinstance(value, int) or value==None:'
p230
sI232
S'            raise InvalidSelectorException("Invalid locator values passed in")'
p231
sI223
S"          The command's JSON response loaded into a dictionary object."
p232
ssg89
S"(self=<selenium.webdriver.remote.webelement.WebElement object>, command='clickElement', params={'id': u'{708b7329-fd85-4348-aa96-ab0fbcfaf8d4}', 'sessionId': u'e7aece42-2410-493a-901f-c442f80cef0f'})"
p233
sg91
S'_execute'
p234
sa(dp235
g68
S'/usr/local/lib/python2.7/dist-packages/selenium/webdriver/remote/webdriver.py'
p236
sg70
(dp237
S'self.command_executor'
p238
S'<selenium.webdriver.firefox.extension_connection.ExtensionConnection object>'
p239
sS'self'
p240
S'<selenium.webdriver.firefox.webdriver.WebDriver object>'
p241
sS'params'
p242
S"{'id': u'{708b7329-fd85-4348-aa96-ab0fbcfaf8d4}', 'sessionId': u'e7aece42-2410-493a-901f-c442f80cef0f'}"
p243
sS'self.command_executor.execute'
p244
S'<bound method ExtensionConnection.execute of <se...extension_connection.ExtensionConnection object>>'
p245
sS'response'
p246
g112
sS'driver_command'
p247
S"'clickElement'"
p248
ssg76
I163
sg77
(dp249
I160
S"            params['sessionId'] = self.session_id"
p250
sI161
S''
sI162
S'        params = self._wrap_value(params)'
p251
sI163
S'        response = self.command_executor.execute(driver_command, params)'
p252
sI164
S'        if response:'
p253
sI165
S'            self.error_handler.check_response(response)'
p254
sI166
S"            response['value'] = self._unwrap_value("
p255
sI167
S"                response.get('value', None))"
p256
sI158
S"            params = {'sessionId': self.session_id}"
p257
sI159
S"        elif 'sessionId' not in params:"
p258
ssg89
S"(self=<selenium.webdriver.firefox.webdriver.WebDriver object>, driver_command='clickElement', params={'id': u'{708b7329-fd85-4348-aa96-ab0fbcfaf8d4}', 'sessionId': u'e7aece42-2410-493a-901f-c442f80cef0f'})"
p259
sg91
S'execute'
p260
sa(dp261
g68
S'/usr/local/lib/python2.7/dist-packages/selenium/webdriver/remote/remote_connection.py'
p262
sg70
(dp263
S'url'
p264
S"u'http://127.0.0.1:60840/hub/session/e7aece42-24...ent/{708b7329-fd85-4348-aa96-ab0fbcfaf8d4}/click'"
p265
sS'self'
p266
S'<selenium.webdriver.firefox.extension_connection.ExtensionConnection object>'
p267
sS'command_info'
p268
S"('POST', '/session/$sessionId/element/$id/click')"
p269
sS'self._request'
p270
S'<bound method ExtensionConnection._request of <s...extension_connection.ExtensionConnection object>>'
p271
sS'data'
p272
S'\'{"sessionId": "e7aece42-2410-493a-901f-c442f80ce..., "id": "{708b7329-fd85-4348-aa96-ab0fbcfaf8d4}"}\''
p273
sS'method'
p274
g112
ssg76
I349
sg77
(dp275
I352
S'        """'
p276
sI353
S'        Send an HTTP request to the remote server.'
p277
sI344
S'        command_info = self._commands[command]'
p278
sI345
S"        assert command_info is not None, 'Unrecognised command %s' % command"
p279
sI346
S'        data = utils.dump_json(params)'
p280
sI347
S'        path = string.Template(command_info[1]).substitute(params)'
p281
sI348
S"        url = '%s%s' % (self._url, path)"
p282
sI349
S'        return self._request(url, method=command_info[0], data=data)'
p283
sI350
S''
sI351
S'    def _request(self, url, data=None, method=None):'
p284
ssg89
S"(self=<selenium.webdriver.firefox.extension_connection.ExtensionConnection object>, command='clickElement', params={'id': u'{708b7329-fd85-4348-aa96-ab0fbcfaf8d4}', 'sessionId': u'e7aece42-2410-493a-901f-c442f80cef0f'})"
p285
sg91
g260
sa(dp286
g68
S'/usr/local/lib/python2.7/dist-packages/selenium/webdriver/remote/remote_connection.py'
p287
sg70
(dp288
S'opener'
p289
S'<urllib2.OpenerDirector instance>'
p290
sS'request'
p291
S'<selenium.webdriver.remote.remote_connection.Request instance>'
p292
sS'response'
p293
g112
sS'opener.open'
p294
S'<bound method OpenerDirector.open of <urllib2.OpenerDirector instance>>'
p295
ssg76
I396
sg77
(dp296
I391
S'                                          HttpErrorHandler(),'
p297
sI392
S'                                          url_request.HTTPBasicAuthHandler(password_manager))'
p298
sI393
S'        else:'
p299
sI394
S'            opener = url_request.build_opener(url_request.HTTPRedirectHandler(),'
p300
sI395
S'                                          HttpErrorHandler())'
p301
sI396
S'        response = opener.open(request)'
p302
sI397
S'        try:'
p303
sI398
S'            if response.code > 399 and response.code < 500:'
p304
sI399
S"                return {'status': response.code, 'value': response.read()}"
p305
sI400
S"            body = response.read().decode('utf-8').replace('\\x00', '').strip()"
p306
ssg89
S'(self=<selenium.webdriver.firefox.extension_connection.ExtensionConnection object>, url=u\'http://127.0.0.1:60840/hub/session/e7aece42-24...ent/{708b7329-fd85-4348-aa96-ab0fbcfaf8d4}/click\', data=\'{"sessionId": "e7aece42-2410-493a-901f-c442f80ce..., "id": "{708b7329-fd85-4348-aa96-ab0fbcfaf8d4}"}\', method=\'POST\')'
p307
sg91
S'_request'
p308
sa(dp309
g68
S'/usr/lib/python2.7/urllib2.py'
p310
sg70
(dp311
S'self'
p312
S'<urllib2.OpenerDirector instance>'
p313
sS'req'
p314
S'<selenium.webdriver.remote.remote_connection.Request instance>'
p315
sS'data'
p316
S'None'
p317
sS'response'
p318
g112
sS'self._open'
p319
S'<bound method OpenerDirector._open of <urllib2.OpenerDirector instance>>'
p320
ssg76
I400
sg77
(dp321
I395
S'        meth_name = protocol+"_request"'
p322
sI396
S'        for processor in self.process_request.get(protocol, []):'
p323
sI397
S'            meth = getattr(processor, meth_name)'
p324
sI398
S'            req = meth(req)'
p325
sI399
S''
sI400
S'        response = self._open(req, data)'
p326
sI401
S''
sI402
S'        # post-process response'
p327
sI403
S'        meth_name = protocol+"_response"'
p328
sI404
S'        for processor in self.process_response.get(protocol, []):'
p329
ssg89
S'(self=<urllib2.OpenerDirector instance>, fullurl=<selenium.webdriver.remote.remote_connection.Request instance>, data=None, timeout=<object object>)'
p330
sg91
S'open'
p331
sa(dp332
g68
S'/usr/lib/python2.7/urllib2.py'
p333
sg70
(dp334
S'req'
p335
S'<selenium.webdriver.remote.remote_connection.Request instance>'
p336
ssg76
I418
sg77
(dp337
I416
S'        protocol = req.get_type()'
p338
sI417
S'        result = self._call_chain(self.handle_open, protocol, protocol +'
p339
sI418
S"                                  '_open', req)"
p340
sI419
S'        if result:'
p341
sI420
S'            return result'
p342
sI421
S''
sI422
S"        return self._call_chain(self.handle_open, 'unknown',"
p343
sI413
S'        if result:'
p344
sI414
S'            return result'
p345
sI415
S''
ssg89
S'(self=<urllib2.OpenerDirector instance>, req=<selenium.webdriver.remote.remote_connection.Request instance>, data=None)'
p346
sg91
S'_open'
p347
sa(dp348
g68
S'/usr/lib/python2.7/urllib2.py'
p349
sg70
(dp350
S'args'
p351
S'(<selenium.webdriver.remote.remote_connection.Request instance>,)'
p352
sS'result'
p353
g112
sS'func'
p354
S'<bound method HTTPHandler.http_open of <urllib2.HTTPHandler instance>>'
p355
ssg76
I378
sg77
(dp356
I373
S'        # could.  Otherwise, they return the response.'
p357
sI374
S'        handlers = chain.get(kind, ())'
p358
sI375
S'        for handler in handlers:'
p359
sI376
S'            func = getattr(handler, meth_name)'
p360
sI377
S''
sI378
S'            result = func(*args)'
p361
sI379
S'            if result is not None:'
p362
sI380
S'                return result'
p363
sI381
S''
sI382
S'    def open(self, fullurl, data=None, timeout=socket._GLOBAL_DEFAULT_TIMEOUT):'
p364
ssg89
S"(self=<urllib2.OpenerDirector instance>, chain={'file': [<urllib2.FileHandler instance>], 'ftp': [<urllib2.FTPHandler instance>], 'http': [<urllib2.HTTPHandler instance>], 'https': [<urllib2.HTTPSHandler instance>], 'unknown': [<urllib2.UnknownHandler instance>]}, kind=u'http', meth_name=u'http_open', *args=(<selenium.webdriver.remote.remote_connection.Request instance>,))"
p365
sg91
S'_call_chain'
p366
sa(dp367
g68
S'/usr/lib/python2.7/urllib2.py'
p368
sg70
(dp369
S'self'
p370
S'<urllib2.HTTPHandler instance>'
p371
sS'req'
p372
S'<selenium.webdriver.remote.remote_connection.Request instance>'
p373
sS'global httplib'
p374
S"<module 'httplib' from '/usr/lib/python2.7/httplib.pyc'>"
p375
sS'self.do_open'
p376
S'<bound method HTTPHandler.do_open of <urllib2.HTTPHandler instance>>'
p377
sS'httplib.HTTPConnection'
p378
S'<class httplib.HTTPConnection>'
p379
ssg76
I1207
sg77
(dp380
I1202
S''
sI1203
S''
sI1204
S'class HTTPHandler(AbstractHTTPHandler):'
p381
sI1205
S''
sI1206
S'    def http_open(self, req):'
p382
sI1207
S'        return self.do_open(httplib.HTTPConnection, req)'
p383
sI1208
S''
sI1209
S'    http_request = AbstractHTTPHandler.do_request_'
p384
sI1210
S''
sI1211
S"if hasattr(httplib, 'HTTPS'):"
p385
ssg89
S'(self=<urllib2.HTTPHandler instance>, req=<selenium.webdriver.remote.remote_connection.Request instance>)'
p386
sg91
S'http_open'
p387
sa(dp388
g68
S'/usr/lib/python2.7/urllib2.py'
p389
sg70
(dp390
S'h'
S'<httplib.HTTPConnection instance>'
p391
sS'buffering'
p392
g112
sS'r'
g112
sS'builtinTrue'
p393
S'True'
p394
sS'h.getresponse'
p395
S'<bound method HTTPConnection.getresponse of <httplib.HTTPConnection instance>>'
p396
ssg76
I1180
sg77
(dp397
I1184
S'        # Pick apart the HTTPResponse object to get the addinfourl'
p398
sI1175
S'        except socket.error, err: # XXX what error?'
p399
sI1176
S'            h.close()'
p400
sI1177
S'            raise URLError(err)'
p401
sI1178
S'        else:'
p402
sI1179
S'            try:'
p403
sI1180
S'                r = h.getresponse(buffering=True)'
p404
sI1181
S'            except TypeError: # buffering kw not supported'
p405
sI1182
S'                r = h.getresponse()'
p406
sI1183
S''
ssg89
S'(self=<urllib2.HTTPHandler instance>, http_class=<class httplib.HTTPConnection>, req=<selenium.webdriver.remote.remote_connection.Request instance>)'
p407
sg91
S'do_open'
p408
sa(dp409
g68
S'/usr/lib/python2.7/httplib.py'
p410
sg70
(dp411
S'response.begin'
p412
S'<bound method HTTPResponse.begin of <httplib.HTTPResponse instance>>'
p413
sS'response'
p414
S'<httplib.HTTPResponse instance>'
p415
ssg76
I1030
sg77
(dp416
I1025
S'            #only add this keyword if non-default, for compatibility with'
p417
sI1026
S'            #other response_classes.'
p418
sI1027
S'            kwds["buffering"] = True;'
p419
sI1028
S'        response = self.response_class(*args, **kwds)'
p420
sI1029
S''
sI1030
S'        response.begin()'
p421
sI1031
S'        assert response.will_close != _UNKNOWN'
p422
sI1032
S'        self.__state = _CS_IDLE'
p423
sI1033
S''
sI1034
S'        if response.will_close:'
p424
ssg89
S'(self=<httplib.HTTPConnection instance>, buffering=True)'
p425
sg91
S'getresponse'
p426
sa(dp427
g68
S'/usr/lib/python2.7/httplib.py'
p428
sg70
(dp429
S'status'
p430
g112
sS'reason'
p431
g112
sS'version'
p432
g112
sS'self'
p433
S'<httplib.HTTPResponse instance>'
p434
sS'self._read_status'
p435
S'<bound method HTTPResponse._read_status of <httplib.HTTPResponse instance>>'
p436
ssg76
I407
sg77
(dp437
I402
S"            # we've already started reading the response"
p438
sI403
S'            return'
p439
sI404
S''
sI405
S'        # read until we get a non-100 response'
p440
sI406
S'        while True:'
p441
sI407
S'            version, status, reason = self._read_status()'
p442
sI408
S'            if status != CONTINUE:'
p443
sI409
S'                break'
p444
sI410
S'            # skip the header from the 100 response'
p445
sI411
S'            while True:'
p446
ssg89
S'(self=<httplib.HTTPResponse instance>)'
p447
sg91
S'begin'
p448
sa(dp449
g68
S'/usr/lib/python2.7/httplib.py'
p450
sg70
(dp451
S'line'
p452
S"''"
p453
sS'global BadStatusLine'
p454
S"<class 'httplib.BadStatusLine'>"
p455
ssg76
I371
sg77
(dp456
I366
S'        if self.debuglevel > 0:'
p457
sI367
S'            print "reply:", repr(line)'
p458
sI368
S'        if not line:'
p459
sI369
S'            # Presumably, the server closed the connection before'
p460
sI370
S'            # sending a valid response.'
p461
sI371
S'            raise BadStatusLine(line)'
p462
sI372
S'        try:'
p463
sI373
S'            [version, status, reason] = line.split(None, 2)'
p464
sI374
S'        except ValueError:'
p465
sI375
S'            try:'
p466
ssg89
S'(self=<httplib.HTTPResponse instance>)'
p467
sg91
S'_read_status'
p468
sasS'pyver'
p469
S'Python 2.7.3: /usr/bin/python (prefix: /usr)'
p470
sS'session'
p471
g63
(S's\x1a\x00\x00\x00<div><table></table></div>'
tRp472
sS'etype'
p473
S"<class 'httplib.BadStatusLine'>"
p474
sS'date'
p475
S'Tue Dec 24 14:56:56 2013'
p476
sS'response'
p477
g63
(S's\xbd,\x00\x00<div><table><tr><td style="font-weight:bold;vertical-align:top">body</td><td valign="top">:</td><td><div>&lt;cStringIO.StringO object at 0x7fbd9c4524c8&gt;</div></td></tr><tr><td style="font-weight:bold;vertical-align:top">cookies</td><td valign="top">:</td><td><div><table><tr><td style="font-weight:bold;vertical-align:top">session_id_testapp</td><td valign="top">:</td><td><div>127.0.0.1-3dcf01fd-b587-41cc-bcb2-51ec2a0d3156<table><tr><td style="font-weight:bold;vertical-align:top">comment</td><td valign="top">:</td><td><div></div></td></tr><tr><td style="font-weight:bold;vertical-align:top">domain</td><td valign="top">:</td><td><div></div></td></tr><tr><td style="font-weight:bold;vertical-align:top">expires</td><td valign="top">:</td><td><div></div></td></tr><tr><td style="font-weight:bold;vertical-align:top">httponly</td><td valign="top">:</td><td><div></div></td></tr><tr><td style="font-weight:bold;vertical-align:top">max-age</td><td valign="top">:</td><td><div></div></td></tr><tr><td style="font-weight:bold;vertical-align:top">path</td><td valign="top">:</td><td><div>/</div></td></tr><tr><td style="font-weight:bold;vertical-align:top">secure</td><td valign="top">:</td><td><div></div></td></tr><tr><td style="font-weight:bold;vertical-align:top">version</td><td valign="top">:</td><td><div></div></td></tr></table></div></td></tr></table></div></td></tr><tr><td style="font-weight:bold;vertical-align:top">delimiters</td><td valign="top">:</td><td><div><table><tr><td><div>{{</div></td></tr><tr><td><div>}}</div></td></tr></table></div></td></tr><tr><td style="font-weight:bold;vertical-align:top">files</td><td valign="top">:</td><td><div><table></table></div></td></tr><tr><td style="font-weight:bold;vertical-align:top">flash</td><td valign="top">:</td><td><div>Success!</div></td></tr><tr><td style="font-weight:bold;vertical-align:top">generic_patterns</td><td valign="top">:</td><td><div><table></table></div></td></tr><tr><td style="font-weight:bold;vertical-align:top">google_analytics_id</td><td valign="top">:</td><td><div>None</div></td></tr><tr><td style="font-weight:bold;vertical-align:top">headers</td><td valign="top">:</td><td><div><table><tr><td style="font-weight:bold;vertical-align:top">X-Powered-By</td><td valign="top">:</td><td><div>web2py</div></td></tr></table></div></td></tr><tr><td style="font-weight:bold;vertical-align:top">logo</td><td valign="top">:</td><td><div><a class="brand" href="http://www.web2py.com/"><b>web<span>2</span>py</b>&trade;&nbsp;</a></div></td></tr><tr><td style="font-weight:bold;vertical-align:top">menu</td><td valign="top">:</td><td><div><table><tr><td><div><table><tr><td><div>Home</div></td></tr><tr><td><div>False</div></td></tr><tr><td><div>/testapp/default/index</div></td></tr><tr><td><div><table></table></div></td></tr></table></div></td></tr><tr><td><div><table><tr><td><div><span class="highlighted">web2py</span></div></td></tr><tr><td><div>False</div></td></tr><tr><td><div>http://web2py.com</div></td></tr><tr><td><div><table><tr><td><div><table><tr><td><div>My Sites</div></td></tr><tr><td><div>False</div></td></tr><tr><td><div>/admin/default/site</div></td></tr></table></div></td></tr><tr><td><div><table><tr><td><div>This App</div></td></tr><tr><td><div>False</div></td></tr><tr><td><div>/admin/default/design/testapp</div></td></tr><tr><td><div>[(&lt;lazyT &#x27;Controller&#x27;&gt;, False, &#x27;/admin/default/edit/testapp/controllers/default.py&#x27;), (&lt;lazyT &#x27;View&#x27;&gt;, False, &#x27;/admin/default/edit/testapp/views/default/integration_testing.html&#x27;), (&lt;lazyT &#x27;Layout&#x27;&gt;, False, &#x27;/admin/default/edit/testapp/views/layout.html&#x27;), (&lt;lazyT &#x27;Stylesheet&#x27;&gt;, False, &#x27;/admin/default/edit/testapp/static/css/web2py.css&#x27;), (&lt;lazyT &#x27;DB Model&#x27;&gt;, False, &#x27;/admin/default/edit/testapp/models/db.py&#x27;), (&lt;lazyT &#x27;Menu Model&#x27;&gt;, False, &#x27;/admin/default/edit/testapp/models/menu.py&#x27;), (&lt;lazyT &#x27;Database&#x27;&gt;, False, &#x27;/testapp/appadmin/index&#x27;), (&lt;lazyT &#x27;Errors&#x27;&gt;, False, &#x27;/admin/default/errors/testapp&#x27;), (&lt;lazyT &#x27;About&#x27;&gt;, False, &#x27;/admin/default/about/testapp&#x27;)]</div></td></tr></table></div></td></tr><tr><td><div><table><tr><td><div>web2py.com</div></td></tr><tr><td><div>False</div></td></tr><tr><td><div>http://www.web2py.com</div></td></tr><tr><td><div>[(&lt;lazyT &#x27;Download&#x27;&gt;, False, &#x27;http://www.web2py.com/examples/default/download&#x27;), (&lt;lazyT &#x27;Support&#x27;&gt;, False, &#x27;http://www.web2py.com/examples/default/support&#x27;), (&lt;lazyT &#x27;Demo&#x27;&gt;, False, &#x27;http://web2py.com/demo_admin&#x27;), (&lt;lazyT &#x27;Quick Examples&#x27;&gt;, False, &#x27;http://web2py.com/examples/default/examples&#x27;), (&lt;lazyT &#x27;FAQ&#x27;&gt;, False, &#x27;http://web2py.com/AlterEgo&#x27;), (&lt;lazyT &#x27;Videos&#x27;&gt;, False, &#x27;http://www.web2py.com/examples/default/videos/&#x27;), (&lt;lazyT &#x27;Free Applications&#x27;&gt;, False, &#x27;http://web2py.com/appliances&#x27;), (&lt;lazyT &#x27;Plugins&#x27;&gt;, False, &#x27;http://web2py.com/plugins&#x27;), (&lt;lazyT &#x27;Layouts&#x27;&gt;, False, &#x27;http://web2py.com/layouts&#x27;), (&lt;lazyT &#x27;Recipes&#x27;&gt;, False, &#x27;http://web2pyslices.com/&#x27;), (&lt;lazyT &#x27;Semantic&#x27;&gt;, False, &#x27;http://web2py.com/semantic&#x27;)]</div></td></tr></table></div></td></tr><tr><td><div><table><tr><td><div>Documentation</div></td></tr><tr><td><div>False</div></td></tr><tr><td><div>http://www.web2py.com/book</div></td></tr><tr><td><div>[(&lt;lazyT &#x27;Preface&#x27;&gt;, False, &#x27;http://www.web2py.com/book/default/chapter/00&#x27;), (&lt;lazyT &#x27;Introduction&#x27;&gt;, False, &#x27;http://www.web2py.com/book/default/chapter/01&#x27;), (&lt;lazyT &#x27;Python&#x27;&gt;, False, &#x27;http://www.web2py.com/book/default/chapter/02&#x27;), (&lt;lazyT &#x27;Overview&#x27;&gt;, False, &#x27;http://www.web2py.com/book/default/chapter/03&#x27;), (&lt;lazyT &#x27;The Core&#x27;&gt;, False, &#x27;http://www.web2py.com/book/default/chapter/04&#x27;), (&lt;lazyT &#x27;The Views&#x27;&gt;, False, &#x27;http://www.web2py.com/book/default/chapter/05&#x27;), (&lt;lazyT &#x27;Database&#x27;&gt;, False, &#x27;http://www.web2py.com/book/default/chapter/06&#x27;), (&lt;lazyT &#x27;Forms and Validators&#x27;&gt;, False, &#x27;http://www.web2py.com/book/default/chapter/07&#x27;), (&lt;lazyT &#x27;Email and SMS&#x27;&gt;, False, &#x27;http://www.web2py.com/book/default/chapter/08&#x27;), (&lt;lazyT &#x27;Access Control&#x27;&gt;, False, &#x27;http://www.web2py.com/book/default/chapter/09&#x27;), (&lt;lazyT &#x27;Services&#x27;&gt;, False, &#x27;http://www.web2py.com/book/default/chapter/10&#x27;), (&lt;lazyT &#x27;Ajax Recipes&#x27;&gt;, False, &#x27;http://www.web2py.com/book/default/chapter/11&#x27;), (&lt;lazyT &#x27;Components and Plugins&#x27;&gt;, False, &#x27;http://www.web2py.com/book/default/chapter/12&#x27;), (&lt;lazyT &#x27;Deployment Recipes&#x27;&gt;, False, &#x27;http://www.web2py.com/book/default/chapter/13&#x27;), (&lt;lazyT &#x27;Other Recipes&#x27;&gt;, False, &#x27;http://www.web2py.com/book/default/chapter/14&#x27;), (&lt;lazyT &#x27;Buy this book&#x27;&gt;, False, &#x27;http://stores.lulu.com/web2py&#x27;)]</div></td></tr></table></div></td></tr><tr><td><div><table><tr><td><div>Community</div></td></tr><tr><td><div>False</div></td></tr><tr><td><div>None</div></td></tr><tr><td><div>[(&lt;lazyT &#x27;Groups&#x27;&gt;, False, &#x27;http://www.web2py.com/examples/default/usergroups&#x27;), (&lt;lazyT &#x27;Twitter&#x27;&gt;, False, &#x27;http://twitter.com/web2py&#x27;), (&lt;lazyT &#x27;Live Chat&#x27;&gt;, False, &#x27;http://webchat.freenode.net/?channels=web2py&#x27;)]</div></td></tr></table></div></td></tr><tr><td><div><table><tr><td><div>Plugins</div></td></tr><tr><td><div>False</div></td></tr><tr><td><div>None</div></td></tr><tr><td><div>[(&#x27;plugin_wiki&#x27;, False, &#x27;http://web2py.com/examples/default/download&#x27;), (&lt;lazyT &#x27;Other Plugins&#x27;&gt;, False, &#x27;http://web2py.com/plugins&#x27;), (&lt;lazyT &#x27;Layout Plugins&#x27;&gt;, False, &#x27;http://web2py.com/layouts&#x27;)]</div></td></tr></table></div></td></tr></table></div></td></tr></table></div></td></tr></table></div></td></tr><tr><td style="font-weight:bold;vertical-align:top">meta</td><td valign="top">:</td><td><div><table><tr><td style="font-weight:bold;vertical-align:top">author</td><td valign="top">:</td><td><div>Your Name &lt;you@example.com&gt;</div></td></tr><tr><td style="font-weight:bold;vertical-align:top">description</td><td valign="top">:</td><td><div>a cool new app</div></td></tr><tr><td style="font-weight:bold;vertical-align:top">generator</td><td valign="top">:</td><td><div>Web2py Web Framework</div></td></tr><tr><td style="font-weight:bold;vertical-align:top">keywords</td><td valign="top">:</td><td><div>web2py, python, framework</div></td></tr></table></div></td></tr><tr><td style="font-weight:bold;vertical-align:top">models_to_run</td><td valign="top">:</td><td><div><table><tr><td><div>^\\w+\\.py$</div></td></tr><tr><td><div>^default/\\w+\\.py$</div></td></tr><tr><td><div>^default/integration_testing/\\w+\\.py$</div></td></tr></table></div></td></tr><tr><td style="font-weight:bold;vertical-align:top">postprocessing</td><td valign="top">:</td><td><div><table></table></div></td></tr><tr><td style="font-weight:bold;vertical-align:top">session_cookie_expires</td><td valign="top">:</td><td><div>None</div></td></tr><tr><td style="font-weight:bold;vertical-align:top">session_data_name</td><td valign="top">:</td><td><div>session_data_testapp</div></td></tr><tr><td style="font-weight:bold;vertical-align:top">session_file</td><td valign="top">:</td><td><div>&lt;open file &#x27;/home/monika/Desktop/web2py/applications/testapp/sessions/127.0.0.1-3dcf01fd-b587-41cc-bcb2-51ec2a0d3156&#x27;, mode &#x27;rb+&#x27; at 0x7fbd9c43a810&gt;</div></td></tr><tr><td style="font-weight:bold;vertical-align:top">session_filename</td><td valign="top">:</td><td><div>/home/monika/Desktop/web2py/applications/testapp/sessions/127.0.0.1-3dcf01fd-b587-41cc-bcb2-51ec2a0d3156</div></td></tr><tr><td style="font-weight:bold;vertical-align:top">session_id</td><td valign="top">:</td><td><div>127.0.0.1-3dcf01fd-b587-41cc-bcb2-51ec2a0d3156</div></td></tr><tr><td style="font-weight:bold;vertical-align:top">session_id_name</td><td valign="top">:</td><td><div>session_id_testapp</div></td></tr><tr><td style="font-weight:bold;vertical-align:top">session_locked</td><td valign="top">:</td><td><div>True</div></td></tr><tr><td style="font-weight:bold;vertical-align:top">session_new</td><td valign="top">:</td><td><div>False</div></td></tr><tr><td style="font-weight:bold;vertical-align:top">session_storage_type</td><td valign="top">:</td><td><div>file</div></td></tr><tr><td style="font-weight:bold;vertical-align:top">status</td><td valign="top">:</td><td><div>200</div></td></tr><tr><td style="font-weight:bold;vertical-align:top">subtitle</td><td valign="top">:</td><td><div>customize me!</div></td></tr><tr><td style="font-weight:bold;vertical-align:top">title</td><td valign="top">:</td><td><div>Testapp</div></td></tr><tr><td style="font-weight:bold;vertical-align:top">view</td><td valign="top">:</td><td><div>default/integration_testing.html</div></td></tr></table></div>'
tRp478
sS'locals'
p479
(dp480
g50
S"''"
p481
sS'self'
p482
S'<httplib.HTTPResponse instance>'
p483
sssS'traceback'
p484
S'Traceback (most recent call last):\n  File "/home/monika/Desktop/web2py/gluon/restricted.py", line 212, in restricted\n    exec ccode in environment\n  File "/home/monika/Desktop/web2py/applications/testapp/controllers/default.py", line 346, in <module>\n  File "/home/monika/Desktop/web2py/gluon/globals.py", line 194, in <lambda>\n    self._caller = lambda f: f()\n  File "/home/monika/Desktop/web2py/applications/testapp/controllers/default.py", line 335, in integration_testing\n    test_script(test_case_no)\n  File "/home/monika/Desktop/web2py/applications/testapp/models/test.py", line 218, in test_script\n    isHref(driver,xml_sub_child,xml_child)#clicking on the hyper link\n  File "/home/monika/Desktop/web2py/applications/testapp/models/test.py", line 1173, in isHref\n    driver.find_element_by_partial_link_text(xml_sub_child.text).click()\n  File "/usr/local/lib/python2.7/dist-packages/selenium/webdriver/remote/webelement.py", line 54, in click\n    self._execute(Command.CLICK_ELEMENT)\n  File "/usr/local/lib/python2.7/dist-packages/selenium/webdriver/remote/webelement.py", line 228, in _execute\n    return self._parent.execute(command, params)\n  File "/usr/local/lib/python2.7/dist-packages/selenium/webdriver/remote/webdriver.py", line 163, in execute\n    response = self.command_executor.execute(driver_command, params)\n  File "/usr/local/lib/python2.7/dist-packages/selenium/webdriver/remote/remote_connection.py", line 349, in execute\n    return self._request(url, method=command_info[0], data=data)\n  File "/usr/local/lib/python2.7/dist-packages/selenium/webdriver/remote/remote_connection.py", line 396, in _request\n    response = opener.open(request)\n  File "/usr/lib/python2.7/urllib2.py", line 400, in open\n    response = self._open(req, data)\n  File "/usr/lib/python2.7/urllib2.py", line 418, in _open\n    \'_open\', req)\n  File "/usr/lib/python2.7/urllib2.py", line 378, in _call_chain\n    result = func(*args)\n  File "/usr/lib/python2.7/urllib2.py", line 1207, in http_open\n    return self.do_open(httplib.HTTPConnection, req)\n  File "/usr/lib/python2.7/urllib2.py", line 1180, in do_open\n    r = h.getresponse(buffering=True)\n  File "/usr/lib/python2.7/httplib.py", line 1030, in getresponse\n    response.begin()\n  File "/usr/lib/python2.7/httplib.py", line 407, in begin\n    version, status, reason = self._read_status()\n  File "/usr/lib/python2.7/httplib.py", line 371, in _read_status\n    raise BadStatusLine(line)\nBadStatusLine: \'\'\n'
p485
s.