(dp1
S'output'
p2
S"<class 'paramiko.AuthenticationException'> Authentication failed."
p3
sS'layer'
p4
S'/home/monika/Desktop/web2py/applications/testapp/controllers/default.py'
p5
sS'code'
p6
S'54# -*- coding: utf-8 -*-\n# this file is released under public domain and you can use without limitations\n\n#########################################################################\n## This is a sample controller\n## - index is the default action of any application\n## - user is required for authentication and authorization\n## - download is for downloading files uploaded in the db (does streaming)\n## - call exposes all registered services (none by default)\n#########################################################################\ndef user():\n    """\n    exposes:\n    http://..../[app]/default/user/login\n    http://..../[app]/default/user/logout\n    http://..../[app]/default/user/register\n    http://..../[app]/default/user/profile\n    http://..../[app]/default/user/retrieve_password\n    http://..../[app]/default/user/change_password\n    http://..../[app]/default/user/manage_users (requires membership in \n    use @auth.requires_login()\n        @auth.requires_membership(\'group name\')\n        @auth.requires_permission(\'read\',\'table name\',record_id)\n    to decorate functions that need access control\n    """\n    return dict(form=auth())\n\n#@cache.action()\ndef download():\n    """\n    allows downloading of uploaded files\n    http://..../[app]/default/download/[filename]\n    """\n    return response.download(request, db)\n\n\ndef call():\n    """\n    exposes services. for example:\n    http://..../[app]/default/call/jsonrpc\n    decorate with @services.jsonrpc the functions to expose\n    supports xml, json, xmlrpc, jsonrpc, amfrpc, rss, csv\n    """\n    return service()\n\n\n@auth.requires_signature()\ndef data():\n    """\n    http://..../[app]/default/data/tables\n    http://..../[app]/default/data/create/[table]\n    http://..../[app]/default/data/read/[table]/[id]\n    http://..../[app]/default/data/update/[table]/[id]\n    http://..../[app]/default/data/delete/[table]/[id]\n    http://..../[app]/default/data/select/[table]\n    http://..../[app]/default/data/search/[table]\n    but URLs must be signed, i.e. linked with\n      A(\'table\',_href=URL(\'data/tables\',user_signature=True))\n    or with the signed load operator\n      LOAD(\'default\',\'data.load\',args=\'tables\',ajax=True,user_signature=True)\n    """\n    return dict(form=crud())\n    \n    \n    \ndef unit_testing():\n    import commands\n    form = FORM(  TABLE\n         ( \n            TR(INPUT(_name=\'testcase1\', _type=\'checkbox\', _value="1"),\'Login\'),\n            TR(INPUT(_name=\'testcase2\', _type=\'checkbox\', _value="2"),\'Request VM\'),\n            TR(INPUT(_name=\'testcase3\', _type=\'checkbox\', _value="3"),\'My VMs\'),\n            TR(INPUT(_name=\'testcase4\', _type=\'checkbox\', _value="4"),\'My Pending Tasks\'),\n            TR(INPUT(_name=\'testcase5\', _type=\'checkbox\', _value="5"),\'My Completed Tasks\'),\n            TR(INPUT(_name=\'testcase6\', _type=\'checkbox\', _value="6"),\'My Failed Taskss\'),\n            TR(INPUT(_name=\'testcase7\', _type=\'checkbox\', _value="7"),\'Pending Faculty-Level VM Approvals(Install VM)\'),\n            TR(INPUT(_name=\'testcase46\', _type=\'checkbox\', _value="46"),\'Pending Faculty-Level VM Approvals(Clone VM)\'),\n            TR(INPUT(_name=\'testcase49\', _type=\'checkbox\', _value="49"),\'Pending Faculty-Level VM Approvals(Attach Disk)\'),\n            TR(INPUT(_name=\'testcase50\', _type=\'checkbox\', _value="50"),\'Pending Faculty-Level VM Approvals(Edit Configuration)\'),\n            TR(INPUT(_name=\'testcase8\', _type=\'checkbox\', _value="8"),\'Pending Org-Level VM Approvals(Install VM)\'),\n            TR(INPUT(_name=\'testcase51\', _type=\'checkbox\', _value="51"),\'Pending Org-Level VM Approvals(Clone VM)\'),\n            TR(INPUT(_name=\'testcase52\', _type=\'checkbox\', _value="52"),\'Pending Org-Level VM Approvals(Attach Disk)\'),\n            TR(INPUT(_name=\'testcase53\', _type=\'checkbox\', _value="53"),\'Pending Org-Level VM Approvals(Edit Configuration)\'),\n           TR(INPUT(_name=\'testcase9\', _type=\'checkbox\', _value="9"),\'List All Org-Level VMs\',),\n           TR(INPUT(_name=\'testcase10\', _type=\'checkbox\', _value="10"),\'All VMs\'),\n           TR(INPUT(_name=\'testcase19\', _type=\'checkbox\', _value="19"),\'Pending VM Requests(Install VM)\'),\n           TR(INPUT(_name=\'testcase54\', _type=\'checkbox\', _value="54"),\'Pending VM Requests(Clone VM)\'),\n           TR(INPUT(_name=\'testcase55\', _type=\'checkbox\', _value="55"),\'Pending VM Requests(Attach Disk)\'),\n           TR(INPUT(_name=\'testcase56\', _type=\'checkbox\', _value="56"),\'Pending VM Requests(Edit Configuration)\'),\n           TR(INPUT(_name=\'testcase11\', _type=\'checkbox\', _value="11"),\'Host and VMs\',),\n           TR(INPUT(_name=\'testcase12\', _type=\'checkbox\', _value="12"),\'Pending Tasks\'),\n           TR(INPUT(_name=\'testcase13\', _type=\'checkbox\', _value="13"),\'Completed Tasks\'),\n           TR(INPUT(_name=\'testcase14\', _type=\'checkbox\', _value="14"),\'Failed Tasks\'),\n           TR(INPUT(_name=\'testcase15\', _type=\'checkbox\', _value="15"),\'Configure System: Add Host\'),\n           TR(INPUT(_name=\'testcase16\', _type=\'checkbox\', _value="16"),\'Configure System: Add Template\'),\n           TR(INPUT(_name=\'testcase17\', _type=\'checkbox\', _value="17"),\'Configure System: Add Datastore\'),\n           TR(INPUT(_name=\'testcase59\', _type=\'checkbox\', _value="59"),\'Configure System:Add Security Domain\'),\n           TR(INPUT(_name=\'testcase18\', _type=\'checkbox\', _value="18"),\'Take VM snapshot    (Running )\'),\n           TR(INPUT(_name=\'testcase20\', _type=\'checkbox\', _value="20"),\'Pause VM    (Running )\'),\n           \n           TR(INPUT(_name=\'testcase21\', _type=\'checkbox\', _value="21"),\'Add User to VM   (Running )\'),\n           \n           TR(INPUT(_name=\'testcase22\', _type=\'checkbox\', _value="22"),\'Delete VM    (Running)\'),\n           TR(INPUT(_name=\'testcase23\', _type=\'checkbox\', _value="23"),\'Gracefully shut down VM    (Running )\'),\n           TR(INPUT(_name=\'testcase24\', _type=\'checkbox\', _value="24"),\'Forcefully power off VM   (Running )\'),\n            TR(INPUT(_name=\'testcase25\', _type=\'checkbox\', _value="25"),\'Attach Extra Disk to VM   (Running )\'),\n          TR(INPUT(_name=\'testcase57\', _type=\'checkbox\', _value="57"),\'Migrate VM(Runnig)\'),\n           TR(INPUT(_name=\'testcase26\', _type=\'checkbox\', _value="26"),\'Take VM snapshot   (Paused )\'),\n           TR(INPUT(_name=\'testcase27\', _type=\'checkbox\', _value="27"),\'Migrate VM(Paused)\'),\n           TR(INPUT(_name=\'testcase28\', _type=\'checkbox\', _value="28"),\'Unpause VM   (Paused )\'),\n           TR(INPUT(_name=\'testcase29\', _type=\'checkbox\', _value="29"),\'Add User to VM  (Paused )\'),\n           TR(INPUT(_name=\'testcase30\', _type=\'checkbox\', _value="30"),\'Delete VM   (Paused )\'),\n           TR(INPUT(_name=\'testcase31\', _type=\'checkbox\', _value="31"),\'Adjust VM Resources Utilization   (Paused )\'),\n           TR(INPUT(_name=\'testcase32\', _type=\'checkbox\', _value="32"),\'Forcefully power off VM   (Paused)\'),\n           TR(INPUT(_name=\'testcase33\', _type=\'checkbox\', _value="33"),\'Delete Addtional User   (Paused )\'), \n           TR(INPUT(_name=\'testcase47\', _type=\'checkbox\', _value="47"),\'Revert Snapshot    (Paused )\'),\n           TR(INPUT(_name=\'testcase42\', _type=\'checkbox\', _value="42"),\'Delete Snapshot    (Paused )\'),\n           TR(INPUT(_name=\'testcase34\', _type=\'checkbox\', _value="34"),\'Edit VM Config   (Running )\'),\n           TR(INPUT(_name=\'testcase35\', _type=\'checkbox\', _value="35"),\'Turn on VM   (Shutdown )\'),\n           TR(INPUT(_name=\'testcase36\', _type=\'checkbox\', _value="36"),\'Add User to VM  (Shutdown)\'),\n           TR(INPUT(_name=\'testcase37\', _type=\'checkbox\', _value="37"),\'Delete VM   (Shutdown )\'),\n           TR(INPUT(_name=\'testcase38\', _type=\'checkbox\', _value="38"),\'Attach Extra Disk  (Shutdown )\'),\n           TR(INPUT(_name=\'testcase39\', _type=\'checkbox\', _value="39"),\'Request Clone VM   (Shutdown )\'),\n            TR(INPUT(_name=\'testcase40\', _type=\'checkbox\', _value="40"),\'Edit VM Config   (Shutdown )\'),\n           TR(INPUT(_name=\'testcase41\', _type=\'checkbox\', _value="41"),\'Assign VNC   (Shutdown )\'),\n           TR(INPUT(_name=\'testcase58\', _type=\'checkbox\', _value="58"),\'Migrate VM(Shutdown)\'),\n           TR(INPUT(_name=\'testcase43\', _type=\'checkbox\', _value="43"),\'Take VM snapshot   (Shutdown )\'),\n            \n            TR(INPUT(_name=\'testcase44\', _type=\'checkbox\', _value="44"),\'Approve VM(Org-admin)\'),\n           TR(INPUT(_name=\'testcase45\', _type=\'checkbox\', _value="45"),\'Reject VM(Org-admin)\'), \n            TR(INPUT(_name=\'testcase60\', _type=\'checkbox\', _value="60"),\'Approve VM(Faculty)\'),\n           TR(INPUT(_name=\'testcase61\', _type=\'checkbox\', _value="61"),\'Reject VM(Faculty)\'), \n               TR(INPUT(_name=\'testcase62\', _type=\'checkbox\', _value="62"),\'Approve VM(Admin)\'),\n           TR(INPUT(_name=\'testcase63\', _type=\'checkbox\', _value="63"),\'Reject VM(Admin)\'), \n           TR(INPUT(_name=\'testcase48\', _type=\'checkbox\', _value="48"),\'Sanity Table\'),\n           \n           BR(),\n           TR(INPUT(_type=\'submit\',_value=\'submit\'))\n          )\n      )\n    if form.process().accepted:\n        for i in range(1,70):\n            test_case_no=request.vars[\'testcase\'+str(i)]\n            if test_case_no!=None:\n                test_script(test_case_no)\n    elif form.errors:\n        response.flash = \'form has errors\'\n    else:\n        response.flash = \'please fill the form\'\n    return dict(form=form)\n    \n\ndef index():\n    try:\n        import commands\n        form = FORM( TABLE\n                  (  TR(INPUT(_name=\'testcase1\', _type=\'radio\', _value="1"),\'Unit Testing\'),\n                     TR(INPUT(_name=\'testcase2\', _type=\'radio\', _value="2"),\'Integration Testing\'),\n                     TR(INPUT(_name=\'testcase3\', _type=\'radio\', _value="3"),\'Stress Testing\'),\n                     TR(INPUT(_name=\'testcase4\', _type=\'radio\', _value="4"),\'Network Testing\'),\n                     BR(),\n                     TR(INPUT(_type=\'submit\',_value=\'submit\'))\n                  )\n                )        \n        if form.process().accepted:\n            if request.vars[\'testcase1\']!=None:\n                redirect(URL(\'unit_testing\'))\n            if request.vars[\'testcase2\']!=None:\n                redirect(URL(\'integration_testing\')) \n            if request.vars[\'testcase3\']!=None:\n                redirect(URL(\'stress_testing\'))  \n            if request.vars[\'testcase4\']!=None:\n                redirect(URL(\'network_testing\'))        \n        elif form.errors:\n            response.flash = \'form has errors\'\n        else:\n            response.flash = \'please fill the form\'\n        return dict(form=form)\n    except Exception as e:\n        print e\n\n\ndef network_testing():\n   \n    import commands\n    form = FORM(TABLE\n             (   \n              \n    TR(INPUT(_name=\'testcase79\', _type=\'checkbox\', _value="79"),\'Packages Install on Host \'),\n   \n     TR(INPUT(_name=\'testcase78\', _type=\'checkbox\', _value="78"),\'Packages Install on Baadal \'),\n    \n    TR(INPUT(_name=\'testcase80\', _type=\'checkbox\', _value="80"),\'VM status on Host \'),\n    BR(),\n    TR(INPUT(_type=\'submit\',_value=\'submit\'))\n            )\n            )\n    if form.process().accepted:\n        if request.vars[\'testcase78\']!=None:\n            packages_install_test(78)\n        if request.vars[\'testcase79\']!=None:\n            packages_install_host(79) \n        if request.vars[\'testcase80\']!=None:\n            check_stat_on_host()    \n    elif form.errors:\n        response.flash = \'form has errors\'\n    else:\n        response.flash = \'please fill the form\'\n    return dict(form=form)\n    \n    \ndef stress_testing(): \n\n    import commands\n    form = FORM(  TABLE\n        (   TR(INPUT(_name=\'testcase0\', _type=\'checkbox\', _value="0"),\'All\'), \n            BR(),\n            TR(INPUT(_type=\'submit\',_value=\'submit\'))\n        )\n        )\n              \n    if form.process().accepted:\n        test_case_no=request.vars[\'testcase0\']\n        if test_case_no!=None:\n            stress_test_script()\n    elif form.errors:\n        response.flash = \'form has errors\'\n    else:\n        response.flash = \'please fill the form\'\n    return dict(form=form)\n    \n   \ndef integration_testing(): \n    import commands\n    form = FORM(  TABLE\n                  (    TR(INPUT(_name=\'testcase\', _type=\'checkbox\', _value=""),\'VM Performance(Memory)\'),\n                       TR(INPUT(_name=\'testcase\', _type=\'checkbox\', _value=""),\'VM Performance(CPU)\'),\n                       TR(INPUT(_name=\'testcase\', _type=\'checkbox\', _value=""),\'VM Performance(Network)\'),\n                       TR(INPUT(_name=\'testcase\', _type=\'checkbox\', _value=""),\'VM Performance(Disk)\'),\n                        TR(INPUT(_name=\'testcase\', _type=\'checkbox\', _value=""),\'VM Performance   (Shutdown )\'),\n                    TR(INPUT(_name=\'testcase70\', _type=\'checkbox\', _value="70"),\'Org-Admin Request VM(Approved by admin)\'),\n                    TR(INPUT(_name=\'testcase71\', _type=\'checkbox\', _value="71"), \'Org-Admin Request VM(Rejected by admin)\'),\n                    TR(INPUT(_name=\'testcase72\', _type=\'checkbox\', _value="72"),\'User Request VM(Approved by Faculty,org-admin,admin)\'),\n                     TR(INPUT(_name=\'testcase73\', _type=\'checkbox\', _value="73"),\'User Request VM(Approved by Faculty and Rejected by org-admin)\'),\n                      TR(INPUT(_name=\'testcase74\', _type=\'checkbox\', _value="74"),\'User Request VM(Approved by Faculty,org-admin and Rejected by admin)\'),\n                      TR(INPUT(_name=\'testcase75\', _type=\'checkbox\', _value="76"),\'User Request VM(Rejected by Faculty )\'),\n                    TR(INPUT(_name=\'testcase76\', _type=\'checkbox\', _value="76"),\'Faculty Request VM(Rejected by org-admin)\'),\n                    TR(INPUT(_name=\'testcase77\', _type=\'checkbox\', _value="77"),\'Faculty Request VM(Approved by org-admin  and Rejected by admin)\'),\n                    TR(INPUT(_name=\'testcase78\', _type=\'checkbox\', _value="78"),\'Faculty Request VM(Approved by org-admin, admin)\'),\n                    TR(INPUT(_name=\'testcase79\', _type=\'checkbox\', _value="79"),\'Take VM snapshot    (Running )\'),\n                    TR(INPUT(_name=\'testcase80\', _type=\'checkbox\', _value="80"),\'Pause VM   (Running )\'),\n                   TR(INPUT(_name=\'testcase81\', _type=\'checkbox\', _value="81"),\'Add User to VM   (Running )\'),\n                   TR(INPUT(_name=\'testcase82\', _type=\'checkbox\', _value="82"),\'Delete VM    (Running)\'),\n                   TR(INPUT(_name=\'testcase83\', _type=\'checkbox\', _value="83"),\'Gracefully shut down VM    (Running )\'),\n                   TR(INPUT(_name=\'testcase84\', _type=\'checkbox\', _value="84"),\'Forcefully power off VM   (Running )\'),\n                    TR(INPUT(_name=\'testcase85\', _type=\'checkbox\', _value="85"),\'Attach Extra Disk to VM   (Running )\'),\n                      TR(INPUT(_name=\'testcase86\', _type=\'checkbox\', _value="86"),\'Migrate VM   (Running )\'),\n                      TR(INPUT(_name=\'testcase87\', _type=\'checkbox\', _value="87"),\'Attach Extra Disk to VM   (Running )\'),\n                      TR(INPUT(_name=\'testcase88\', _type=\'checkbox\', _value="88"),\'Take VM snapshot   (Paused )\'),\n                      TR(INPUT(_name=\'testcase89\', _type=\'checkbox\', _value="89"),\'Unpause VM   (Paused )\'),\n                      TR(INPUT(_name=\'testcase90\', _type=\'checkbox\', _value="90"),\'Add User to VM  (Paused )\'),\n                      TR(INPUT(_name=\'testcase91\', _type=\'checkbox\', _value="91"),\'Delete VM   (Paused )\'),\n                      TR(INPUT(_name=\'testcase92\', _type=\'checkbox\', _value="92"),\'Forcefully power off VM   (Paused)\'),\n                     TR(INPUT(_name=\'testcase93\', _type=\'checkbox\', _value="93"),\'Migrate VM   (Paused )\'),\n                      TR(INPUT(_name=\'testcase94\', _type=\'checkbox\', _value="94"),\'Delete Add User  (Paused )\'),\n                      TR(INPUT(_name=\'testcase95\', _type=\'checkbox\', _value="95"),\'Revert Snapshot  (Paused )\'),\n                      TR(INPUT(_name=\'testcase96\', _type=\'checkbox\', _value="96"),\'Delete snapshot   (Paused )\'),\n                      TR(INPUT(_name=\'testcase97\', _type=\'checkbox\', _value="97"),\'Turn on VM   (Shutdown )\'),\n                      TR(INPUT(_name=\'testcase98\', _type=\'checkbox\', _value="98"),\'Add User to VM  (Shutdown)\'),\n                      TR(INPUT(_name=\'testcase99\', _type=\'checkbox\', _value="99"),\'Delete VM   (Shutdown )\'),\n                      TR(INPUT(_name=\'testcase100\', _type=\'checkbox\', _value="100"),\'Attach Extra Disk  (Shutdown )\'),\n                       TR(INPUT(_name=\'testcase101\', _type=\'checkbox\', _value="101"),\'Request Clone VM   (Shutdown )\'),\n                       TR(INPUT(_name=\'testcase102\', _type=\'checkbox\', _value="102"),\'Edit VM Config   (Shutdown )\'),\n                       TR(INPUT(_name=\'testcase103\', _type=\'checkbox\', _value="103"),\'Take VM snapshot   (Shutdown )\'),\n                       TR(INPUT(_name=\'testcase104\', _type=\'checkbox\', _value="104"),\'Migrate VM   (Shutdown )\'),\n                  \n                       \n                       TR(INPUT(_name=\'testcase\', _type=\'checkbox\', _value=""),\'Configure Template\'),\n                       TR(INPUT(_name=\'testcase\', _type=\'checkbox\', _value=""),\'Configure Host\'),\n                        TR(INPUT(_name=\'testcase\', _type=\'checkbox\', _value=""),\'Configure Datastore\'),\n                      \n                      \n                      BR(),\n                      TR(INPUT(_type=\'submit\',_value=\'submit\'))\n            )\n     )\n    if form.process().accepted:\n        for i in range(67,90):\n            test_case_no=request.vars[\'testcase\'+str(i)]\n            if i<=85:\n                if test_case_no!=None:\n                    test_script(test_case_no)\n            else :\n                if test_case_no!=None:\n                    graph_test(test_case_no)\n            \n    elif form.errors:\n        response.flash = \'form has errors\'\n    else:\n        response.flash = \'please fill the form\'\n    return dict(form=form)\n\nresponse._vars=response._caller(integration_testing)\n'
p7
sS'snapshot'
p8
(dp9
S'exception'
p10
(dp11
S'__module__'
p12
S"'paramiko'"
p13
sS'__getslice__'
p14
S"<method-wrapper '__getslice__' of AuthenticationException object>"
p15
sS'__str__'
p16
S"<method-wrapper '__str__' of AuthenticationException object>"
p17
sS'__reduce__'
p18
S'<built-in method __reduce__ of AuthenticationException object>'
p19
sS'__dict__'
p20
S'{}'
p21
sS'__sizeof__'
p22
S'<built-in method __sizeof__ of AuthenticationException object>'
p23
sS'__weakref__'
p24
S'None'
p25
sS'__init__'
p26
S"<method-wrapper '__init__' of AuthenticationException object>"
p27
sS'__setattr__'
p28
S"<method-wrapper '__setattr__' of AuthenticationException object>"
p29
sS'__reduce_ex__'
p30
S'<built-in method __reduce_ex__ of AuthenticationException object>'
p31
sS'__new__'
p32
S'<built-in method __new__ of type object>'
p33
sS'__format__'
p34
S'<built-in method __format__ of AuthenticationException object>'
p35
sS'__class__'
p36
S"<class 'paramiko.AuthenticationException'>"
p37
sS'__doc__'
p38
S"'\\n    Exception raised when authentication failed...\\n    specific reasons.)\\n    \\n    @since: 1.6\\n    '"
p39
sS'__getitem__'
p40
S"<method-wrapper '__getitem__' of AuthenticationException object>"
p41
sS'__setstate__'
p42
S'<built-in method __setstate__ of AuthenticationException object>'
p43
sS'__getattribute__'
p44
S"<method-wrapper '__getattribute__' of AuthenticationException object>"
p45
sS'args'
p46
S"('Authentication failed.',)"
p47
sS'__subclasshook__'
p48
S'<built-in method __subclasshook__ of type object>'
p49
sS'__unicode__'
p50
S'<built-in method __unicode__ of AuthenticationException object>'
p51
sS'__delattr__'
p52
S"<method-wrapper '__delattr__' of AuthenticationException object>"
p53
sS'__repr__'
p54
S"<method-wrapper '__repr__' of AuthenticationException object>"
p55
sS'__hash__'
p56
S"<method-wrapper '__hash__' of AuthenticationException object>"
p57
ssS'evalue'
p58
S'Authentication failed.'
p59
sS'request'
p60
cgluon.html
XML_unpickle
p61
(S's9U\x00\x00<div><table><tr><td style="font-weight:bold;vertical-align:top">ajax</td><td valign="top">:</td><td><div>False</div></td></tr><tr><td style="font-weight:bold;vertical-align:top">application</td><td valign="top">:</td><td><div>testapp</div></td></tr><tr><td style="font-weight:bold;vertical-align:top">args</td><td valign="top">:</td><td><div><table></table></div></td></tr><tr><td style="font-weight:bold;vertical-align:top">body</td><td valign="top">:</td><td><div>&lt;open file &#x27;&lt;fdopen&gt;&#x27;, mode &#x27;w+b&#x27; at 0x7f1a7027fdb0&gt;</div></td></tr><tr><td style="font-weight:bold;vertical-align:top">cid</td><td valign="top">:</td><td><div>None</div></td></tr><tr><td style="font-weight:bold;vertical-align:top">client</td><td valign="top">:</td><td><div>127.0.0.1</div></td></tr><tr><td style="font-weight:bold;vertical-align:top">controller</td><td valign="top">:</td><td><div>default</div></td></tr><tr><td style="font-weight:bold;vertical-align:top">cookies</td><td valign="top">:</td><td><div><table><tr><td style="font-weight:bold;vertical-align:top">session_id_admin</td><td valign="top">:</td><td><div>127.0.0.1-1fc9d05d-e6b0-4118-9aa2-f04d25333a45<table><tr><td style="font-weight:bold;vertical-align:top">comment</td><td valign="top">:</td><td><div></div></td></tr><tr><td style="font-weight:bold;vertical-align:top">domain</td><td valign="top">:</td><td><div></div></td></tr><tr><td style="font-weight:bold;vertical-align:top">expires</td><td valign="top">:</td><td><div></div></td></tr><tr><td style="font-weight:bold;vertical-align:top">httponly</td><td valign="top">:</td><td><div></div></td></tr><tr><td style="font-weight:bold;vertical-align:top">max-age</td><td valign="top">:</td><td><div></div></td></tr><tr><td style="font-weight:bold;vertical-align:top">path</td><td valign="top">:</td><td><div></div></td></tr><tr><td style="font-weight:bold;vertical-align:top">secure</td><td valign="top">:</td><td><div></div></td></tr><tr><td style="font-weight:bold;vertical-align:top">version</td><td valign="top">:</td><td><div></div></td></tr></table></div></td></tr><tr><td style="font-weight:bold;vertical-align:top">session_id_testapp</td><td valign="top">:</td><td><div>127.0.0.1-e5b8b306-7a0c-46fb-b7d3-b03e232466c4<table><tr><td style="font-weight:bold;vertical-align:top">comment</td><td valign="top">:</td><td><div></div></td></tr><tr><td style="font-weight:bold;vertical-align:top">domain</td><td valign="top">:</td><td><div></div></td></tr><tr><td style="font-weight:bold;vertical-align:top">expires</td><td valign="top">:</td><td><div></div></td></tr><tr><td style="font-weight:bold;vertical-align:top">httponly</td><td valign="top">:</td><td><div></div></td></tr><tr><td style="font-weight:bold;vertical-align:top">max-age</td><td valign="top">:</td><td><div></div></td></tr><tr><td style="font-weight:bold;vertical-align:top">path</td><td valign="top">:</td><td><div></div></td></tr><tr><td style="font-weight:bold;vertical-align:top">secure</td><td valign="top">:</td><td><div></div></td></tr><tr><td style="font-weight:bold;vertical-align:top">version</td><td valign="top">:</td><td><div></div></td></tr></table></div></td></tr></table></div></td></tr><tr><td style="font-weight:bold;vertical-align:top">env</td><td valign="top">:</td><td><div><table><tr><td style="font-weight:bold;vertical-align:top">app_folders</td><td valign="top">:</td><td><div>set([&#x27;/home/monika/Desktop/web2py/applications/admin/&#x27;, &#x27;/home/monika/Desktop/web2py/applications/testapp/&#x27;])</div></td></tr><tr><td style="font-weight:bold;vertical-align:top">applications_parent</td><td valign="top">:</td><td><div>/home/monika/Desktop/web2py</div></td></tr><tr><td style="font-weight:bold;vertical-align:top">cmd_args</td><td valign="top">:</td><td><div><table></table></div></td></tr><tr><td style="font-weight:bold;vertical-align:top">cmd_options</td><td valign="top">:</td><td><div>&lt;Values at 0x2111fc8: {&#x27;verbose&#x27;: False, &#x27;ip&#x27;: &#x27;127.0.0.1&#x27;, &#x27;with_scheduler&#x27;: False, &#x27;ips&#x27;: [], &#x27;shutdown_timeout&#x27;: 5, &#x27;taskbar&#x27;: False, &#x27;port&#x27;: 8000, &#x27;maxthreads&#x27;: None, &#x27;softcron&#x27;: False, &#x27;server_name&#x27;: &#x27;dell-OptiPlex-7010&#x27;, &#x27;bpython&#x27;: False, &#x27;nogui&#x27;: False, &#x27;pid_filename&#x27;: &#x27;httpserver.pid&#x27;, &#x27;extcron&#x27;: False, &#x27;runcron&#x27;: False, &#x27;run_system_tests&#x27;: False, &#x27;test&#x27;: None, &#x27;folder&#x27;: &#x27;/home/monika/Desktop/web2py&#x27;, &#x27;config&#x27;: &#x27;&#x27;, &#x27;minthreads&#x27;: None, &#x27;winservice&#x27;: &#x27;&#x27;, &#x27;shell&#x27;: None, &#x27;run&#x27;: &#x27;&#x27;, &#x27;log_filename&#x27;: &#x27;httpserver.log&#x27;, &#x27;debuglevel&#x27;: 30, &#x27;args&#x27;: [&#x27;&#x27;], &#x27;socket_timeout&#x27;: 5, &#x27;ssl_ca_certificate&#x27;: None, &#x27;scheduler&#x27;: None, &#x27;profiler_filename&#x27;: None, &#x27;ssl_private_key&#x27;: &#x27;&#x27;, &#x27;scheduler_groups&#x27;: None, &#x27;password&#x27;: &#x27;&lt;ask&gt;&#x27;, &#x27;request_queue_size&#x27;: 5, &#x27;ssl_certificate&#x27;: &#x27;&#x27;, &#x27;cronjob&#x27;: False, &#x27;numthreads&#x27;: None, &#x27;quiet&#x27;: False, &#x27;interfaces&#x27;: None, &#x27;import_models&#x27;: False, &#x27;timeout&#x27;: 10, &#x27;plain&#x27;: False, &#x27;nobanner&#x27;: False}&gt;</div></td></tr><tr><td style="font-weight:bold;vertical-align:top">content_length</td><td valign="top">:</td><td><div>445</div></td></tr><tr><td style="font-weight:bold;vertical-align:top">content_type</td><td valign="top">:</td><td><div>multipart/form-data; boundary=---------------------------9678134558396973791856038177</div></td></tr><tr><td style="font-weight:bold;vertical-align:top">db_sessions</td><td valign="top">:</td><td><div>set([])</div></td></tr><tr><td style="font-weight:bold;vertical-align:top">debugging</td><td valign="top">:</td><td><div>True</div></td></tr><tr><td style="font-weight:bold;vertical-align:top">gluon_parent</td><td valign="top">:</td><td><div>/home/monika/Desktop/web2py</div></td></tr><tr><td style="font-weight:bold;vertical-align:top">http_accept</td><td valign="top">:</td><td><div>text/html,application/xhtml+xml,application/xml;q=0.9,*/*;q=0.8</div></td></tr><tr><td style="font-weight:bold;vertical-align:top">http_accept_encoding</td><td valign="top">:</td><td><div>gzip, deflate</div></td></tr><tr><td style="font-weight:bold;vertical-align:top">http_accept_language</td><td valign="top">:</td><td><div>en-US,en;q=0.5</div></td></tr><tr><td style="font-weight:bold;vertical-align:top">http_connection</td><td valign="top">:</td><td><div>keep-alive</div></td></tr><tr><td style="font-weight:bold;vertical-align:top">http_content_length</td><td valign="top">:</td><td><div>445</div></td></tr><tr><td style="font-weight:bold;vertical-align:top">http_content_type</td><td valign="top">:</td><td><div>multipart/form-data; boundary=---------------------------9678134558396973791856038177</div></td></tr><tr><td style="font-weight:bold;vertical-align:top">http_cookie</td><td valign="top">:</td><td><div>session_id_testapp=127.0.0.1-e5b8b306-7a0c-46fb-b7d3-b03e232466c4; session_id_admin=127.0.0.1-1fc9d05d-e6b0-4118-9aa2-f04d25333a45</div></td></tr><tr><td style="font-weight:bold;vertical-align:top">http_host</td><td valign="top">:</td><td><div>127.0.0.1:8000</div></td></tr><tr><td style="font-weight:bold;vertical-align:top">http_referer</td><td valign="top">:</td><td><div>http://127.0.0.1:8000/testapp/default/integration_testing</div></td></tr><tr><td style="font-weight:bold;vertical-align:top">http_user_agent</td><td valign="top">:</td><td><div>Mozilla/5.0 (X11; Ubuntu; Linux x86_64; rv:21.0) Gecko/20100101 Firefox/21.0</div></td></tr><tr><td style="font-weight:bold;vertical-align:top">is_jython</td><td valign="top">:</td><td><div>False</div></td></tr><tr><td style="font-weight:bold;vertical-align:top">is_pypy</td><td valign="top">:</td><td><div>False</div></td></tr><tr><td style="font-weight:bold;vertical-align:top">local_hosts</td><td valign="top">:</td><td><div><table><tr><td><div>127.0.1.1</div></td></tr><tr><td><div>::1</div></td></tr><tr><td><div>dell-OptiPlex-7010</div></td></tr><tr><td><div>::ffff:127.0.0.1</div></td></tr><tr><td><div>127.0.0.1</div></td></tr></table></div></td></tr><tr><td style="font-weight:bold;vertical-align:top">path_info</td><td valign="top">:</td><td><div>/testapp/default/integration_testing</div></td></tr><tr><td style="font-weight:bold;vertical-align:top">query_string</td><td valign="top">:</td><td><div></div></td></tr><tr><td style="font-weight:bold;vertical-align:top">remote_addr</td><td valign="top">:</td><td><div>127.0.0.1</div></td></tr><tr><td style="font-weight:bold;vertical-align:top">remote_port</td><td valign="top">:</td><td><div>57940</div></td></tr><tr><td style="font-weight:bold;vertical-align:top">request_method</td><td valign="top">:</td><td><div>POST</div></td></tr><tr><td style="font-weight:bold;vertical-align:top">request_uri</td><td valign="top">:</td><td><div>/testapp/default/integration_testing</div></td></tr><tr><td style="font-weight:bold;vertical-align:top">script_name</td><td valign="top">:</td><td><div></div></td></tr><tr><td style="font-weight:bold;vertical-align:top">server_name</td><td valign="top">:</td><td><div>dell-OptiPlex-7010</div></td></tr><tr><td style="font-weight:bold;vertical-align:top">server_port</td><td valign="top">:</td><td><div>8000</div></td></tr><tr><td style="font-weight:bold;vertical-align:top">server_protocol</td><td valign="top">:</td><td><div>HTTP/1.1</div></td></tr><tr><td style="font-weight:bold;vertical-align:top">server_software</td><td valign="top">:</td><td><div>Rocket 1.2.6</div></td></tr><tr><td style="font-weight:bold;vertical-align:top">web2py_path</td><td valign="top">:</td><td><div>/home/monika/Desktop/web2py</div></td></tr><tr><td style="font-weight:bold;vertical-align:top">web2py_version</td><td valign="top">:</td><td><div>2.4.4-stable+timestamp.2013.03.11.20.32.00</div></td></tr><tr><td style="font-weight:bold;vertical-align:top">wsgi_errors</td><td valign="top">:</td><td><div>&lt;open file &#x27;&lt;stderr&gt;&#x27;, mode &#x27;w&#x27; at 0x7f1aa3401270&gt;</div></td></tr><tr><td style="font-weight:bold;vertical-align:top">wsgi_file_wrapper</td><td valign="top">:</td><td><div>&lt;class wsgiref.util.FileWrapper at 0x2083ce8&gt;</div></td></tr><tr><td style="font-weight:bold;vertical-align:top">wsgi_input</td><td valign="top">:</td><td><div>&lt;socket._fileobject object at 0x7f1a7c3769d0&gt;</div></td></tr><tr><td style="font-weight:bold;vertical-align:top">wsgi_multiprocess</td><td valign="top">:</td><td><div>False</div></td></tr><tr><td style="font-weight:bold;vertical-align:top">wsgi_multithread</td><td valign="top">:</td><td><div>True</div></td></tr><tr><td style="font-weight:bold;vertical-align:top">wsgi_run_once</td><td valign="top">:</td><td><div>False</div></td></tr><tr><td style="font-weight:bold;vertical-align:top">wsgi_url_scheme</td><td valign="top">:</td><td><div>http</div></td></tr><tr><td style="font-weight:bold;vertical-align:top">wsgi_version</td><td valign="top">:</td><td><div><table><tr><td><div>1</div></td></tr><tr><td><div>0</div></td></tr></table></div></td></tr></table></div></td></tr><tr><td style="font-weight:bold;vertical-align:top">extension</td><td valign="top">:</td><td><div>html</div></td></tr><tr><td style="font-weight:bold;vertical-align:top">folder</td><td valign="top">:</td><td><div>/home/monika/Desktop/web2py/applications/testapp/</div></td></tr><tr><td style="font-weight:bold;vertical-align:top">function</td><td valign="top">:</td><td><div>integration_testing</div></td></tr><tr><td style="font-weight:bold;vertical-align:top">get_vars</td><td valign="top">:</td><td><div><table></table></div></td></tr><tr><td style="font-weight:bold;vertical-align:top">global_settings</td><td valign="top">:</td><td><div><table><tr><td style="font-weight:bold;vertical-align:top">app_folders</td><td valign="top">:</td><td><div>set([&#x27;/home/monika/Desktop/web2py/applications/admin/&#x27;, &#x27;/home/monika/Desktop/web2py/applications/testapp/&#x27;])</div></td></tr><tr><td style="font-weight:bold;vertical-align:top">applications_parent</td><td valign="top">:</td><td><div>/home/monika/Desktop/web2py</div></td></tr><tr><td style="font-weight:bold;vertical-align:top">cmd_args</td><td valign="top">:</td><td><div><table></table></div></td></tr><tr><td style="font-weight:bold;vertical-align:top">cmd_options</td><td valign="top">:</td><td><div>&lt;Values at 0x2111fc8: {&#x27;verbose&#x27;: False, &#x27;ip&#x27;: &#x27;127.0.0.1&#x27;, &#x27;with_scheduler&#x27;: False, &#x27;ips&#x27;: [], &#x27;shutdown_timeout&#x27;: 5, &#x27;taskbar&#x27;: False, &#x27;port&#x27;: 8000, &#x27;maxthreads&#x27;: None, &#x27;softcron&#x27;: False, &#x27;server_name&#x27;: &#x27;dell-OptiPlex-7010&#x27;, &#x27;bpython&#x27;: False, &#x27;nogui&#x27;: False, &#x27;pid_filename&#x27;: &#x27;httpserver.pid&#x27;, &#x27;extcron&#x27;: False, &#x27;runcron&#x27;: False, &#x27;run_system_tests&#x27;: False, &#x27;test&#x27;: None, &#x27;folder&#x27;: &#x27;/home/monika/Desktop/web2py&#x27;, &#x27;config&#x27;: &#x27;&#x27;, &#x27;minthreads&#x27;: None, &#x27;winservice&#x27;: &#x27;&#x27;, &#x27;shell&#x27;: None, &#x27;run&#x27;: &#x27;&#x27;, &#x27;log_filename&#x27;: &#x27;httpserver.log&#x27;, &#x27;debuglevel&#x27;: 30, &#x27;args&#x27;: [&#x27;&#x27;], &#x27;socket_timeout&#x27;: 5, &#x27;ssl_ca_certificate&#x27;: None, &#x27;scheduler&#x27;: None, &#x27;profiler_filename&#x27;: None, &#x27;ssl_private_key&#x27;: &#x27;&#x27;, &#x27;scheduler_groups&#x27;: None, &#x27;password&#x27;: &#x27;&lt;ask&gt;&#x27;, &#x27;request_queue_size&#x27;: 5, &#x27;ssl_certificate&#x27;: &#x27;&#x27;, &#x27;cronjob&#x27;: False, &#x27;numthreads&#x27;: None, &#x27;quiet&#x27;: False, &#x27;interfaces&#x27;: None, &#x27;import_models&#x27;: False, &#x27;timeout&#x27;: 10, &#x27;plain&#x27;: False, &#x27;nobanner&#x27;: False}&gt;</div></td></tr><tr><td style="font-weight:bold;vertical-align:top">db_sessions</td><td valign="top">:</td><td><div>set([])</div></td></tr><tr><td style="font-weight:bold;vertical-align:top">debugging</td><td valign="top">:</td><td><div>True</div></td></tr><tr><td style="font-weight:bold;vertical-align:top">gluon_parent</td><td valign="top">:</td><td><div>/home/monika/Desktop/web2py</div></td></tr><tr><td style="font-weight:bold;vertical-align:top">is_jython</td><td valign="top">:</td><td><div>False</div></td></tr><tr><td style="font-weight:bold;vertical-align:top">is_pypy</td><td valign="top">:</td><td><div>False</div></td></tr><tr><td style="font-weight:bold;vertical-align:top">local_hosts</td><td valign="top">:</td><td><div><table><tr><td><div>127.0.1.1</div></td></tr><tr><td><div>::1</div></td></tr><tr><td><div>dell-OptiPlex-7010</div></td></tr><tr><td><div>::ffff:127.0.0.1</div></td></tr><tr><td><div>127.0.0.1</div></td></tr></table></div></td></tr><tr><td style="font-weight:bold;vertical-align:top">web2py_version</td><td valign="top">:</td><td><div>2.4.4-stable+timestamp.2013.03.11.20.32.00</div></td></tr></table></div></td></tr><tr><td style="font-weight:bold;vertical-align:top">is_https</td><td valign="top">:</td><td><div>False</div></td></tr><tr><td style="font-weight:bold;vertical-align:top">is_local</td><td valign="top">:</td><td><div>True</div></td></tr><tr><td style="font-weight:bold;vertical-align:top">is_restful</td><td valign="top">:</td><td><div>False</div></td></tr><tr><td style="font-weight:bold;vertical-align:top">now</td><td valign="top">:</td><td><div>datetime.datetime(2013, 11, 29, 11, 37, 52, 526298)</div></td></tr><tr><td style="font-weight:bold;vertical-align:top">post_vars</td><td valign="top">:</td><td><div><table><tr><td style="font-weight:bold;vertical-align:top">testcase89</td><td valign="top">:</td><td><div>89</div></td></tr></table></div></td></tr><tr><td style="font-weight:bold;vertical-align:top">raw_args</td><td valign="top">:</td><td><div></div></td></tr><tr><td style="font-weight:bold;vertical-align:top">raw_extension</td><td valign="top">:</td><td><div>None</div></td></tr><tr><td style="font-weight:bold;vertical-align:top">url</td><td valign="top">:</td><td><div>/testapp/default/integration_testing</div></td></tr><tr><td style="font-weight:bold;vertical-align:top">utcnow</td><td valign="top">:</td><td><div>datetime.datetime(2013, 11, 29, 6, 7, 52, 526320)</div></td></tr><tr><td style="font-weight:bold;vertical-align:top">uuid</td><td valign="top">:</td><td><div>testapp/127.0.0.1.2013-11-29.11-37-52.454c232d-0853-4269-aa80-1c7428954d49</div></td></tr><tr><td style="font-weight:bold;vertical-align:top">vars</td><td valign="top">:</td><td><div><table><tr><td style="font-weight:bold;vertical-align:top">testcase89</td><td valign="top">:</td><td><div>89</div></td></tr></table></div></td></tr><tr><td style="font-weight:bold;vertical-align:top">wsgi</td><td valign="top">:</td><td><div><table><tr><td style="font-weight:bold;vertical-align:top">environ</td><td valign="top">:</td><td><div><table><tr><td style="font-weight:bold;vertical-align:top">CONTENT_LENGTH</td><td valign="top">:</td><td><div>445</div></td></tr><tr><td style="font-weight:bold;vertical-align:top">CONTENT_TYPE</td><td valign="top">:</td><td><div>multipart/form-data; boundary=---------------------------9678134558396973791856038177</div></td></tr><tr><td style="font-weight:bold;vertical-align:top">HTTP_ACCEPT</td><td valign="top">:</td><td><div>text/html,application/xhtml+xml,application/xml;q=0.9,*/*;q=0.8</div></td></tr><tr><td style="font-weight:bold;vertical-align:top">HTTP_ACCEPT_ENCODING</td><td valign="top">:</td><td><div>gzip, deflate</div></td></tr><tr><td style="font-weight:bold;vertical-align:top">HTTP_ACCEPT_LANGUAGE</td><td valign="top">:</td><td><div>en-US,en;q=0.5</div></td></tr><tr><td style="font-weight:bold;vertical-align:top">HTTP_CONNECTION</td><td valign="top">:</td><td><div>keep-alive</div></td></tr><tr><td style="font-weight:bold;vertical-align:top">HTTP_CONTENT_LENGTH</td><td valign="top">:</td><td><div>445</div></td></tr><tr><td style="font-weight:bold;vertical-align:top">HTTP_CONTENT_TYPE</td><td valign="top">:</td><td><div>multipart/form-data; boundary=---------------------------9678134558396973791856038177</div></td></tr><tr><td style="font-weight:bold;vertical-align:top">HTTP_COOKIE</td><td valign="top">:</td><td><div>session_id_testapp=127.0.0.1-e5b8b306-7a0c-46fb-b7d3-b03e232466c4; session_id_admin=127.0.0.1-1fc9d05d-e6b0-4118-9aa2-f04d25333a45</div></td></tr><tr><td style="font-weight:bold;vertical-align:top">HTTP_HOST</td><td valign="top">:</td><td><div>127.0.0.1:8000</div></td></tr><tr><td style="font-weight:bold;vertical-align:top">HTTP_REFERER</td><td valign="top">:</td><td><div>http://127.0.0.1:8000/testapp/default/integration_testing</div></td></tr><tr><td style="font-weight:bold;vertical-align:top">HTTP_USER_AGENT</td><td valign="top">:</td><td><div>Mozilla/5.0 (X11; Ubuntu; Linux x86_64; rv:21.0) Gecko/20100101 Firefox/21.0</div></td></tr><tr><td style="font-weight:bold;vertical-align:top">PATH_INFO</td><td valign="top">:</td><td><div>/testapp/default/integration_testing</div></td></tr><tr><td style="font-weight:bold;vertical-align:top">QUERY_STRING</td><td valign="top">:</td><td><div></div></td></tr><tr><td style="font-weight:bold;vertical-align:top">REMOTE_ADDR</td><td valign="top">:</td><td><div>127.0.0.1</div></td></tr><tr><td style="font-weight:bold;vertical-align:top">REMOTE_PORT</td><td valign="top">:</td><td><div>57940</div></td></tr><tr><td style="font-weight:bold;vertical-align:top">REQUEST_METHOD</td><td valign="top">:</td><td><div>POST</div></td></tr><tr><td style="font-weight:bold;vertical-align:top">REQUEST_URI</td><td valign="top">:</td><td><div>/testapp/default/integration_testing</div></td></tr><tr><td style="font-weight:bold;vertical-align:top">SCRIPT_NAME</td><td valign="top">:</td><td><div></div></td></tr><tr><td style="font-weight:bold;vertical-align:top">SERVER_NAME</td><td valign="top">:</td><td><div>dell-OptiPlex-7010</div></td></tr><tr><td style="font-weight:bold;vertical-align:top">SERVER_PORT</td><td valign="top">:</td><td><div>8000</div></td></tr><tr><td style="font-weight:bold;vertical-align:top">SERVER_PROTOCOL</td><td valign="top">:</td><td><div>HTTP/1.1</div></td></tr><tr><td style="font-weight:bold;vertical-align:top">SERVER_SOFTWARE</td><td valign="top">:</td><td><div>Rocket 1.2.6</div></td></tr><tr><td style="font-weight:bold;vertical-align:top">wsgi.errors</td><td valign="top">:</td><td><div>&lt;open file &#x27;&lt;stderr&gt;&#x27;, mode &#x27;w&#x27; at 0x7f1aa3401270&gt;</div></td></tr><tr><td style="font-weight:bold;vertical-align:top">wsgi.file_wrapper</td><td valign="top">:</td><td><div>&lt;class wsgiref.util.FileWrapper at 0x2083ce8&gt;</div></td></tr><tr><td style="font-weight:bold;vertical-align:top">wsgi.input</td><td valign="top">:</td><td><div>&lt;open file &#x27;&lt;fdopen&gt;&#x27;, mode &#x27;w+b&#x27; at 0x7f1a7027fdb0&gt;</div></td></tr><tr><td style="font-weight:bold;vertical-align:top">wsgi.multiprocess</td><td valign="top">:</td><td><div>False</div></td></tr><tr><td style="font-weight:bold;vertical-align:top">wsgi.multithread</td><td valign="top">:</td><td><div>True</div></td></tr><tr><td style="font-weight:bold;vertical-align:top">wsgi.run_once</td><td valign="top">:</td><td><div>False</div></td></tr><tr><td style="font-weight:bold;vertical-align:top">wsgi.url_scheme</td><td valign="top">:</td><td><div>http</div></td></tr><tr><td style="font-weight:bold;vertical-align:top">wsgi.version</td><td valign="top">:</td><td><div>1</div></td></tr></table></div></td></tr></table></div></td></tr></table></div>'
tRp62
sS'frames'
p63
(lp64
(dp65
S'file'
p66
S'/home/monika/Desktop/web2py/gluon/restricted.py'
p67
sS'dump'
p68
(dp69
S'environment'
p70
S"{'A': <class 'gluon.html.A'>, 'Auth': <class 'gluon.tools.Auth'>, 'B': <class 'gluon.html.B'>, 'BEAUTIFY': <class 'gluon.html.BEAUTIFY'>, 'BODY': <class 'gluon.html.BODY'>, 'BR': <class 'gluon.html.BR'>, 'BUTTON': <class 'gluon.html.BUTTON'>, 'CAT': <class 'gluon.html.CAT'>, 'CENTER': <class 'gluon.html.CENTER'>, 'CLEANUP': <class 'gluon.validators.CLEANUP'>, ...}"
p71
sS'ccode'
p72
S'<code object <module> at 0x7f1a8038dd30, file "/...cations/testapp/controllers/default.py", line 11>'
p73
ssS'lnum'
p74
I212
sS'lines'
p75
(dp76
I207
S'    try:'
p77
sI208
S'        if isinstance(code, types.CodeType):'
p78
sI209
S'            ccode = code'
p79
sI210
S'        else:'
p80
sI211
S'            ccode = compile2(code, layer)'
p81
sI212
S'        exec ccode in environment'
p82
sI213
S'    except HTTP:'
p83
sI214
S'        raise'
p84
sI215
S'    except RestrictedError:'
p85
sI216
S'        # do not encapsulate (obfuscate) the original RestrictedError'
p86
ssS'call'
p87
S"(code='54# -*- coding: utf-8 -*-\\n# this file is release...onse._vars=response._caller(integration_testing)\\n', environment={'A': <class 'gluon.html.A'>, 'Auth': <class 'gluon.tools.Auth'>, 'B': <class 'gluon.html.B'>, 'BEAUTIFY': <class 'gluon.html.BEAUTIFY'>, 'BODY': <class 'gluon.html.BODY'>, 'BR': <class 'gluon.html.BR'>, 'BUTTON': <class 'gluon.html.BUTTON'>, 'CAT': <class 'gluon.html.CAT'>, 'CENTER': <class 'gluon.html.CENTER'>, 'CLEANUP': <class 'gluon.validators.CLEANUP'>, ...}, layer='/home/monika/Desktop/web2py/applications/testapp/controllers/default.py')"
p88
sS'func'
p89
S'restricted'
p90
sa(dp91
g66
S'/home/monika/Desktop/web2py/applications/testapp/controllers/default.py'
p92
sg68
(dp93
sg74
I303
sg75
(dp94
I292
S'                    test_script(test_case_no)'
p95
sI293
S'            else :'
p96
sI294
S'                if test_case_no!=None:'
p97
sI295
S'                    graph_test(test_case_no)'
p98
sI296
S''
sI297
S'    elif form.errors:'
p99
sI298
S"        response.flash = 'form has errors'"
p100
sI299
S'    else:'
p101
sI300
S"        response.flash = 'please fill the form'"
p102
sI301
S'    return dict(form=form)'
p103
ssg87
S'()'
p104
sg89
S'<module>'
p105
sa(dp106
g66
S'/home/monika/Desktop/web2py/gluon/globals.py'
p107
sg68
(dp108
S'self'
p109
S'undefined'
p110
sS'f'
S'<function integration_testing>'
p111
ssg74
I194
sg75
(dp112
I192
S"        self.delimiters = ('{{', '}}')"
p113
sI193
S'        self._vars = None'
p114
sI194
S'        self._caller = lambda f: f()'
p115
sI195
S'        self._view_environment = None'
p116
sI196
S'        self._custom_commit = None'
p117
sI197
S'        self._custom_rollback = None'
p118
sI198
S''
sI189
S'        self.menu = []             # used by the default view layout'
p119
sI190
S'        self.files = []            # used by web2py_ajax.html'
p120
sI191
S'        self.generic_patterns = []  # patterns to allow generic views'
p121
ssg87
S'(f=<function integration_testing>)'
p122
sg89
S'<lambda>'
p123
sa(dp124
g66
S'/home/monika/Desktop/web2py/applications/testapp/controllers/default.py'
p125
sg68
(dp126
S'test_case_no'
p127
S"'89'"
p128
sS'global graph_test'
p129
S'<function graph_test>'
p130
ssg74
I295
sg75
(dp131
I290
S'            if i<=85:'
p132
sI291
S'                if test_case_no!=None:'
p133
sI292
S'                    test_script(test_case_no)'
p134
sI293
S'            else :'
p135
sI294
S'                if test_case_no!=None:'
p136
sI295
S'                    graph_test(test_case_no)'
p137
sI296
S''
sI297
S'    elif form.errors:'
p138
sI298
S"        response.flash = 'form has errors'"
p139
sI299
S'    else:'
p140
ssg87
S'()'
p141
sg89
S'integration_testing'
p142
sa(dp143
g66
S'/home/monika/Desktop/web2py/applications/testapp/models/test.py'
p144
sg68
(dp145
S'username'
p146
g110
sS'global ssh'
p147
S'<paramiko.SSHClient object>'
p148
sS'xml_child'
p149
S"<Element 'test_case1'>"
p150
sS'ssh.connect'
p151
S'<bound method SSHClient.connect of <paramiko.SSHClient object>>'
p152
sS'xml_child.get'
p153
S"<bound method Element.get of <Element 'test_case1'>>"
p154
sS'password'
p155
g110
ssg74
I127
sg75
(dp156
I128
S'    stdin, stdout, stderr =ssh.exec_command(xml_sub_child.get("cmd_init_data"))'
p157
sI129
S'    initial_data=stdout.readlines()'
p158
sI130
S''
sI131
S'    current_time=datetime.datetime.now()'
p159
sI122
S'    print test_case_no'
p160
sI123
S'    root = xml_connect()'
p161
sI124
S'    i=int(test_case_no)'
p162
sI125
S'    xml_sub_child=root[i-1][0][0]'
p163
sI126
S'    xml_child=root[i-1][0]'
p164
sI127
S'    ssh.connect(xml_child.get("ip_add"), username=xml_child.get("usrnam"), password=xml_child.get("password"))'
p165
ssg87
S"(test_case_no='89')"
p166
sg89
S'graph_test'
p167
sa(dp168
g66
S'/usr/lib/python2.7/dist-packages/paramiko/client.py'
p169
sg68
(dp170
S'username'
p171
S"'root'"
p172
sS'pkey'
p173
S'None'
p174
sS'key_filenames'
p175
S'[]'
p176
sS'allow_agent'
p177
S'True'
p178
sS'self'
p179
S'<paramiko.SSHClient object>'
p180
sS'self._auth'
p181
S'<bound method SSHClient._auth of <paramiko.SSHClient object>>'
p182
sS'look_for_keys'
p183
g178
sS'password'
p184
S'None'
p185
ssg74
I332
sg75
(dp186
I327
S'            key_filenames = []'
p187
sI328
S'        elif isinstance(key_filename, (str, unicode)):'
p188
sI329
S'            key_filenames = [ key_filename ]'
p189
sI330
S'        else:'
p190
sI331
S'            key_filenames = key_filename'
p191
sI332
S'        self._auth(username, password, pkey, key_filenames, allow_agent, look_for_keys)'
p192
sI333
S''
sI334
S'    def close(self):'
p193
sI335
S'        """'
p194
sI336
S'        Close this SSHClient and its underlying L{Transport}.'
p195
ssg87
S"(self=<paramiko.SSHClient object>, hostname=None, port=22, username='root', password=None, pkey=None, key_filename=None, timeout=None, allow_agent=True, look_for_keys=True, compress=False)"
p196
sg89
S'connect'
p197
sa(dp198
g66
S'/usr/lib/python2.7/dist-packages/paramiko/client.py'
p199
sg68
(dp200
S'saved_exception'
p201
S"AuthenticationException('Authentication failed.',)"
p202
ssg74
I493
sg75
(dp203
I488
S'            except SSHException, e:'
p204
sI489
S'                saved_exception = e'
p205
sI490
S''
sI491
S'        # if we got an auth-failed exception earlier, re-raise it'
p206
sI492
S'        if saved_exception is not None:'
p207
sI493
S'            raise saved_exception'
p208
sI494
S"        raise SSHException('No authentication methods available')"
p209
sI495
S''
sI496
S'    def _log(self, level, msg):'
p210
sI497
S'        self._transport._log(level, msg)'
p211
ssg87
S"(self=<paramiko.SSHClient object>, username='root', password=None, pkey=None, key_filenames=[], allow_agent=True, look_for_keys=True)"
p212
sg89
S'_auth'
p213
sasS'pyver'
p214
S'Python 2.7.3: /usr/bin/python (prefix: /usr)'
p215
sS'session'
p216
g61
(S's\x1a\x00\x00\x00<div><table></table></div>'
tRp217
sS'etype'
p218
S"<class 'paramiko.AuthenticationException'>"
p219
sS'date'
p220
S'Fri Nov 29 11:37:54 2013'
p221
sS'response'
p222
g61
(S's\xbd,\x00\x00<div><table><tr><td style="font-weight:bold;vertical-align:top">body</td><td valign="top">:</td><td><div>&lt;cStringIO.StringO object at 0x7f1a881bc490&gt;</div></td></tr><tr><td style="font-weight:bold;vertical-align:top">cookies</td><td valign="top">:</td><td><div><table><tr><td style="font-weight:bold;vertical-align:top">session_id_testapp</td><td valign="top">:</td><td><div>127.0.0.1-e5b8b306-7a0c-46fb-b7d3-b03e232466c4<table><tr><td style="font-weight:bold;vertical-align:top">comment</td><td valign="top">:</td><td><div></div></td></tr><tr><td style="font-weight:bold;vertical-align:top">domain</td><td valign="top">:</td><td><div></div></td></tr><tr><td style="font-weight:bold;vertical-align:top">expires</td><td valign="top">:</td><td><div></div></td></tr><tr><td style="font-weight:bold;vertical-align:top">httponly</td><td valign="top">:</td><td><div></div></td></tr><tr><td style="font-weight:bold;vertical-align:top">max-age</td><td valign="top">:</td><td><div></div></td></tr><tr><td style="font-weight:bold;vertical-align:top">path</td><td valign="top">:</td><td><div>/</div></td></tr><tr><td style="font-weight:bold;vertical-align:top">secure</td><td valign="top">:</td><td><div></div></td></tr><tr><td style="font-weight:bold;vertical-align:top">version</td><td valign="top">:</td><td><div></div></td></tr></table></div></td></tr></table></div></td></tr><tr><td style="font-weight:bold;vertical-align:top">delimiters</td><td valign="top">:</td><td><div><table><tr><td><div>{{</div></td></tr><tr><td><div>}}</div></td></tr></table></div></td></tr><tr><td style="font-weight:bold;vertical-align:top">files</td><td valign="top">:</td><td><div><table></table></div></td></tr><tr><td style="font-weight:bold;vertical-align:top">flash</td><td valign="top">:</td><td><div>Success!</div></td></tr><tr><td style="font-weight:bold;vertical-align:top">generic_patterns</td><td valign="top">:</td><td><div><table></table></div></td></tr><tr><td style="font-weight:bold;vertical-align:top">google_analytics_id</td><td valign="top">:</td><td><div>None</div></td></tr><tr><td style="font-weight:bold;vertical-align:top">headers</td><td valign="top">:</td><td><div><table><tr><td style="font-weight:bold;vertical-align:top">X-Powered-By</td><td valign="top">:</td><td><div>web2py</div></td></tr></table></div></td></tr><tr><td style="font-weight:bold;vertical-align:top">logo</td><td valign="top">:</td><td><div><a class="brand" href="http://www.web2py.com/"><b>web<span>2</span>py</b>&trade;&nbsp;</a></div></td></tr><tr><td style="font-weight:bold;vertical-align:top">menu</td><td valign="top">:</td><td><div><table><tr><td><div><table><tr><td><div>Home</div></td></tr><tr><td><div>False</div></td></tr><tr><td><div>/testapp/default/index</div></td></tr><tr><td><div><table></table></div></td></tr></table></div></td></tr><tr><td><div><table><tr><td><div><span class="highlighted">web2py</span></div></td></tr><tr><td><div>False</div></td></tr><tr><td><div>http://web2py.com</div></td></tr><tr><td><div><table><tr><td><div><table><tr><td><div>My Sites</div></td></tr><tr><td><div>False</div></td></tr><tr><td><div>/admin/default/site</div></td></tr></table></div></td></tr><tr><td><div><table><tr><td><div>This App</div></td></tr><tr><td><div>False</div></td></tr><tr><td><div>/admin/default/design/testapp</div></td></tr><tr><td><div>[(&lt;lazyT &#x27;Controller&#x27;&gt;, False, &#x27;/admin/default/edit/testapp/controllers/default.py&#x27;), (&lt;lazyT &#x27;View&#x27;&gt;, False, &#x27;/admin/default/edit/testapp/views/default/integration_testing.html&#x27;), (&lt;lazyT &#x27;Layout&#x27;&gt;, False, &#x27;/admin/default/edit/testapp/views/layout.html&#x27;), (&lt;lazyT &#x27;Stylesheet&#x27;&gt;, False, &#x27;/admin/default/edit/testapp/static/css/web2py.css&#x27;), (&lt;lazyT &#x27;DB Model&#x27;&gt;, False, &#x27;/admin/default/edit/testapp/models/db.py&#x27;), (&lt;lazyT &#x27;Menu Model&#x27;&gt;, False, &#x27;/admin/default/edit/testapp/models/menu.py&#x27;), (&lt;lazyT &#x27;Database&#x27;&gt;, False, &#x27;/testapp/appadmin/index&#x27;), (&lt;lazyT &#x27;Errors&#x27;&gt;, False, &#x27;/admin/default/errors/testapp&#x27;), (&lt;lazyT &#x27;About&#x27;&gt;, False, &#x27;/admin/default/about/testapp&#x27;)]</div></td></tr></table></div></td></tr><tr><td><div><table><tr><td><div>web2py.com</div></td></tr><tr><td><div>False</div></td></tr><tr><td><div>http://www.web2py.com</div></td></tr><tr><td><div>[(&lt;lazyT &#x27;Download&#x27;&gt;, False, &#x27;http://www.web2py.com/examples/default/download&#x27;), (&lt;lazyT &#x27;Support&#x27;&gt;, False, &#x27;http://www.web2py.com/examples/default/support&#x27;), (&lt;lazyT &#x27;Demo&#x27;&gt;, False, &#x27;http://web2py.com/demo_admin&#x27;), (&lt;lazyT &#x27;Quick Examples&#x27;&gt;, False, &#x27;http://web2py.com/examples/default/examples&#x27;), (&lt;lazyT &#x27;FAQ&#x27;&gt;, False, &#x27;http://web2py.com/AlterEgo&#x27;), (&lt;lazyT &#x27;Videos&#x27;&gt;, False, &#x27;http://www.web2py.com/examples/default/videos/&#x27;), (&lt;lazyT &#x27;Free Applications&#x27;&gt;, False, &#x27;http://web2py.com/appliances&#x27;), (&lt;lazyT &#x27;Plugins&#x27;&gt;, False, &#x27;http://web2py.com/plugins&#x27;), (&lt;lazyT &#x27;Layouts&#x27;&gt;, False, &#x27;http://web2py.com/layouts&#x27;), (&lt;lazyT &#x27;Recipes&#x27;&gt;, False, &#x27;http://web2pyslices.com/&#x27;), (&lt;lazyT &#x27;Semantic&#x27;&gt;, False, &#x27;http://web2py.com/semantic&#x27;)]</div></td></tr></table></div></td></tr><tr><td><div><table><tr><td><div>Documentation</div></td></tr><tr><td><div>False</div></td></tr><tr><td><div>http://www.web2py.com/book</div></td></tr><tr><td><div>[(&lt;lazyT &#x27;Preface&#x27;&gt;, False, &#x27;http://www.web2py.com/book/default/chapter/00&#x27;), (&lt;lazyT &#x27;Introduction&#x27;&gt;, False, &#x27;http://www.web2py.com/book/default/chapter/01&#x27;), (&lt;lazyT &#x27;Python&#x27;&gt;, False, &#x27;http://www.web2py.com/book/default/chapter/02&#x27;), (&lt;lazyT &#x27;Overview&#x27;&gt;, False, &#x27;http://www.web2py.com/book/default/chapter/03&#x27;), (&lt;lazyT &#x27;The Core&#x27;&gt;, False, &#x27;http://www.web2py.com/book/default/chapter/04&#x27;), (&lt;lazyT &#x27;The Views&#x27;&gt;, False, &#x27;http://www.web2py.com/book/default/chapter/05&#x27;), (&lt;lazyT &#x27;Database&#x27;&gt;, False, &#x27;http://www.web2py.com/book/default/chapter/06&#x27;), (&lt;lazyT &#x27;Forms and Validators&#x27;&gt;, False, &#x27;http://www.web2py.com/book/default/chapter/07&#x27;), (&lt;lazyT &#x27;Email and SMS&#x27;&gt;, False, &#x27;http://www.web2py.com/book/default/chapter/08&#x27;), (&lt;lazyT &#x27;Access Control&#x27;&gt;, False, &#x27;http://www.web2py.com/book/default/chapter/09&#x27;), (&lt;lazyT &#x27;Services&#x27;&gt;, False, &#x27;http://www.web2py.com/book/default/chapter/10&#x27;), (&lt;lazyT &#x27;Ajax Recipes&#x27;&gt;, False, &#x27;http://www.web2py.com/book/default/chapter/11&#x27;), (&lt;lazyT &#x27;Components and Plugins&#x27;&gt;, False, &#x27;http://www.web2py.com/book/default/chapter/12&#x27;), (&lt;lazyT &#x27;Deployment Recipes&#x27;&gt;, False, &#x27;http://www.web2py.com/book/default/chapter/13&#x27;), (&lt;lazyT &#x27;Other Recipes&#x27;&gt;, False, &#x27;http://www.web2py.com/book/default/chapter/14&#x27;), (&lt;lazyT &#x27;Buy this book&#x27;&gt;, False, &#x27;http://stores.lulu.com/web2py&#x27;)]</div></td></tr></table></div></td></tr><tr><td><div><table><tr><td><div>Community</div></td></tr><tr><td><div>False</div></td></tr><tr><td><div>None</div></td></tr><tr><td><div>[(&lt;lazyT &#x27;Groups&#x27;&gt;, False, &#x27;http://www.web2py.com/examples/default/usergroups&#x27;), (&lt;lazyT &#x27;Twitter&#x27;&gt;, False, &#x27;http://twitter.com/web2py&#x27;), (&lt;lazyT &#x27;Live Chat&#x27;&gt;, False, &#x27;http://webchat.freenode.net/?channels=web2py&#x27;)]</div></td></tr></table></div></td></tr><tr><td><div><table><tr><td><div>Plugins</div></td></tr><tr><td><div>False</div></td></tr><tr><td><div>None</div></td></tr><tr><td><div>[(&#x27;plugin_wiki&#x27;, False, &#x27;http://web2py.com/examples/default/download&#x27;), (&lt;lazyT &#x27;Other Plugins&#x27;&gt;, False, &#x27;http://web2py.com/plugins&#x27;), (&lt;lazyT &#x27;Layout Plugins&#x27;&gt;, False, &#x27;http://web2py.com/layouts&#x27;)]</div></td></tr></table></div></td></tr></table></div></td></tr></table></div></td></tr></table></div></td></tr><tr><td style="font-weight:bold;vertical-align:top">meta</td><td valign="top">:</td><td><div><table><tr><td style="font-weight:bold;vertical-align:top">author</td><td valign="top">:</td><td><div>Your Name &lt;you@example.com&gt;</div></td></tr><tr><td style="font-weight:bold;vertical-align:top">description</td><td valign="top">:</td><td><div>a cool new app</div></td></tr><tr><td style="font-weight:bold;vertical-align:top">generator</td><td valign="top">:</td><td><div>Web2py Web Framework</div></td></tr><tr><td style="font-weight:bold;vertical-align:top">keywords</td><td valign="top">:</td><td><div>web2py, python, framework</div></td></tr></table></div></td></tr><tr><td style="font-weight:bold;vertical-align:top">models_to_run</td><td valign="top">:</td><td><div><table><tr><td><div>^\\w+\\.py$</div></td></tr><tr><td><div>^default/\\w+\\.py$</div></td></tr><tr><td><div>^default/integration_testing/\\w+\\.py$</div></td></tr></table></div></td></tr><tr><td style="font-weight:bold;vertical-align:top">postprocessing</td><td valign="top">:</td><td><div><table></table></div></td></tr><tr><td style="font-weight:bold;vertical-align:top">session_cookie_expires</td><td valign="top">:</td><td><div>None</div></td></tr><tr><td style="font-weight:bold;vertical-align:top">session_data_name</td><td valign="top">:</td><td><div>session_data_testapp</div></td></tr><tr><td style="font-weight:bold;vertical-align:top">session_file</td><td valign="top">:</td><td><div>&lt;open file &#x27;/home/monika/Desktop/web2py/applications/testapp/sessions/127.0.0.1-e5b8b306-7a0c-46fb-b7d3-b03e232466c4&#x27;, mode &#x27;rb+&#x27; at 0x7f1a642e2810&gt;</div></td></tr><tr><td style="font-weight:bold;vertical-align:top">session_filename</td><td valign="top">:</td><td><div>/home/monika/Desktop/web2py/applications/testapp/sessions/127.0.0.1-e5b8b306-7a0c-46fb-b7d3-b03e232466c4</div></td></tr><tr><td style="font-weight:bold;vertical-align:top">session_id</td><td valign="top">:</td><td><div>127.0.0.1-e5b8b306-7a0c-46fb-b7d3-b03e232466c4</div></td></tr><tr><td style="font-weight:bold;vertical-align:top">session_id_name</td><td valign="top">:</td><td><div>session_id_testapp</div></td></tr><tr><td style="font-weight:bold;vertical-align:top">session_locked</td><td valign="top">:</td><td><div>True</div></td></tr><tr><td style="font-weight:bold;vertical-align:top">session_new</td><td valign="top">:</td><td><div>False</div></td></tr><tr><td style="font-weight:bold;vertical-align:top">session_storage_type</td><td valign="top">:</td><td><div>file</div></td></tr><tr><td style="font-weight:bold;vertical-align:top">status</td><td valign="top">:</td><td><div>200</div></td></tr><tr><td style="font-weight:bold;vertical-align:top">subtitle</td><td valign="top">:</td><td><div>customize me!</div></td></tr><tr><td style="font-weight:bold;vertical-align:top">title</td><td valign="top">:</td><td><div>Testapp</div></td></tr><tr><td style="font-weight:bold;vertical-align:top">view</td><td valign="top">:</td><td><div>default/integration_testing.html</div></td></tr></table></div>'
tRp223
sS'locals'
p224
(dp225
S'username'
p226
S"'root'"
p227
sS'pkey'
p228
S'None'
p229
sS'pkey_class'
p230
S"<class 'paramiko.RSAKey'>"
p231
sS'password'
p232
S'None'
p233
sS'e'
S"AuthenticationException('Authentication failed.',)"
p234
sS'allow_agent'
p235
g178
sS'self'
p236
S'<paramiko.SSHClient object>'
p237
sS'key_filenames'
p238
S'[]'
p239
sS'filename'
p240
S"'/root/.ssh/id_rsa'"
p241
sS'saved_exception'
p242
S"AuthenticationException('Authentication failed.',)"
p243
sS'look_for_keys'
p244
g178
sS'key'
p245
S'<paramiko.RSAKey object>'
p246
sS'dsa_key'
p247
S"'/root/ssh/id_dsa'"
p248
sS'keyfiles'
p249
S"[(<class 'paramiko.RSAKey'>, '/root/.ssh/id_rsa')]"
p250
sS'rsa_key'
p251
S"'/root/ssh/id_rsa'"
p252
sssS'traceback'
p253
S'Traceback (most recent call last):\n  File "/home/monika/Desktop/web2py/gluon/restricted.py", line 212, in restricted\n    exec ccode in environment\n  File "/home/monika/Desktop/web2py/applications/testapp/controllers/default.py", line 303, in <module>\n  File "/home/monika/Desktop/web2py/gluon/globals.py", line 194, in <lambda>\n    self._caller = lambda f: f()\n  File "/home/monika/Desktop/web2py/applications/testapp/controllers/default.py", line 295, in integration_testing\n    graph_test(test_case_no)\n  File "/home/monika/Desktop/web2py/applications/testapp/models/test.py", line 127, in graph_test\n    ssh.connect(xml_child.get("ip_add"), username=xml_child.get("usrnam"), password=xml_child.get("password"))\n  File "/usr/lib/python2.7/dist-packages/paramiko/client.py", line 332, in connect\n    self._auth(username, password, pkey, key_filenames, allow_agent, look_for_keys)\n  File "/usr/lib/python2.7/dist-packages/paramiko/client.py", line 493, in _auth\n    raise saved_exception\nAuthenticationException: Authentication failed.\n'
p254
s.