(dp1
S'output'
p2
S'<class \'_mysql_exceptions.OperationalError\'> (1054, "Unknown column \'vm_nam\' in \'where clause\'")'
p3
sS'layer'
p4
S'/home/baadalvm/Desktop/web2py/applications/testapp/controllers/default.py'
p5
sS'code'
p6
S'# -*- coding: utf-8 -*-\n# this file is released under public domain and you can use without limitations\n\n#########################################################################\n## This is a sample controller\n## - index is the default action of any application\n## - user is required for authentication and authorization\n## - download is for downloading files uploaded in the db (does streaming)\n## - call exposes all registered services (none by default)\n#########################################################################\ndef user():\n    """\n    exposes:\n    http://..../[app]/default/user/login\n    http://..../[app]/default/user/logout\n    http://..../[app]/default/user/register\n    http://..../[app]/default/user/profile\n    http://..../[app]/default/user/retrieve_password\n    http://..../[app]/default/user/change_password\n    http://..../[app]/default/user/manage_users (requires membership in \n    use @auth.requires_login()\n        @auth.requires_membership(\'group name\')\n        @auth.requires_permission(\'read\',\'table name\',record_id)\n    to decorate functions that need access control\n    """\n    return dict(form=auth())\n\n#@cache.action()\ndef download():\n    """\n    allows downloading of uploaded files\n    http://..../[app]/default/download/[filename]\n    """\n    return response.download(request, db)\n\n\ndef call():\n    """\n    exposes services. for example:\n    http://..../[app]/default/call/jsonrpc\n    decorate with @services.jsonrpc the functions to expose\n    supports xml, json, xmlrpc, jsonrpc, amfrpc, rss, csv\n    """\n    return service()\n\n\n@auth.requires_signature()\ndef data():\n    """\n    http://..../[app]/default/data/tables\n    http://..../[app]/default/data/create/[table]\n    http://..../[app]/default/data/read/[table]/[id]\n    http://..../[app]/default/data/update/[table]/[id]\n    http://..../[app]/default/data/delete/[table]/[id]\n    http://..../[app]/default/data/select/[table]\n    http://..../[app]/default/data/search/[table]\n    but URLs must be signed, i.e. linked with\n      A(\'table\',_href=URL(\'data/tables\',user_signature=True))\n    or with the signed load operator\n      LOAD(\'default\',\'data.load\',args=\'tables\',ajax=True,user_signature=True)\n    """\n    return dict(form=crud())\n    \n    \n    \ndef unit_testing():\n    import commands\n    form = FORM(  TABLE\n         ( \n            TR(INPUT(_name=\'testcase1\', _type=\'checkbox\', _value="1"),\'Login\'),\n            TR(INPUT(_name=\'testcase2\', _type=\'checkbox\', _value="2"),\'Request VM\'),\n            TR(INPUT(_name=\'testcase3\', _type=\'checkbox\', _value="3"),\'My Pending VMs\'),\n            TR(INPUT(_name=\'testcase46\', _type=\'checkbox\', _value="46"),\'My VMs\'),\n            TR(INPUT(_name=\'testcase4\', _type=\'checkbox\', _value="4"),\'My Pending Tasks\'),\n            TR(INPUT(_name=\'testcase5\', _type=\'checkbox\', _value="5"),\'My Completed Tasks\'),\n            TR(INPUT(_name=\'testcase6\', _type=\'checkbox\', _value="6"),\'My Failed Taskss\'),\n            TR(INPUT(_name=\'testcase7\', _type=\'checkbox\', _value="7"),\'Pending Faculty-Level VM Approvals\'),\n            TR(INPUT(_name=\'testcase8\', _type=\'checkbox\', _value="8"),\'Pending Org-Level VM Approvals\'),\n           TR(INPUT(_name=\'testcase9\', _type=\'checkbox\', _value="9"),\'List All Org-Level VMs\',),\n           TR(INPUT(_name=\'testcase10\', _type=\'checkbox\', _value="10"),\'All VMs\'),\n            TR(INPUT(_name=\'testcase50\', _type=\'checkbox\', _value="50"),\'Pending VM Requests\'),\n           TR(INPUT(_name=\'testcase11\', _type=\'checkbox\', _value="11"),\'Host and VMs\',),\n           TR(INPUT(_name=\'testcase12\', _type=\'checkbox\', _value="12"),\'Pending Tasks\'),\n           TR(INPUT(_name=\'testcase13\', _type=\'checkbox\', _value="13"),\'Completed Tasks\'),\n           TR(INPUT(_name=\'testcase14\', _type=\'checkbox\', _value="14"),\'Failed Tasks\'),\n           TR(INPUT(_name=\'testcase15\', _type=\'checkbox\', _value="15"),\'Configure System: Add Host\'),\n           TR(INPUT(_name=\'testcase16\', _type=\'checkbox\', _value="16"),\'Configure System: Add Template\'),\n           TR(INPUT(_name=\'testcase17\', _type=\'checkbox\', _value="17"),\'Configure System: Add Datastore\'),\n           TR(INPUT(_name=\'testcase18\', _type=\'checkbox\', _value="18"),\'Take VM snapshot    (Running )\'),\n           \n           TR(INPUT(_name=\'testcase19\', _type=\'checkbox\', _value="19"),\'Check VM performance   (Running )\'),\n           TR(INPUT(_name=\'testcase20\', _type=\'checkbox\', _value="20"),\'Pause VM    (Running )\'),\n           \n           TR(INPUT(_name=\'testcase21\', _type=\'checkbox\', _value="21"),\'Add User to VM   (Running )\'),\n           \n           TR(INPUT(_name=\'testcase22\', _type=\'checkbox\', _value="22"),\'Delete VM    (Running)\'),\n           TR(INPUT(_name=\'testcase23\', _type=\'checkbox\', _value="23"),\'Gracefully shut down VM    (Running )\'),\n           TR(INPUT(_name=\'testcase24\', _type=\'checkbox\', _value="24"),\'Forcefully power off VM   (Running )\'),\n            TR(INPUT(_name=\'testcase25\', _type=\'checkbox\', _value="25"),\'Attach Extra Disk to VM   (Running )\'),\n          \n           TR(INPUT(_name=\'testcase26\', _type=\'checkbox\', _value="26"),\'Take VM snapshot   (Paused )\'),\n           TR(INPUT(_name=\'testcase27\', _type=\'checkbox\', _value="27"),\'Check VM performance   (Paused )\'),\n           TR(INPUT(_name=\'testcase28\', _type=\'checkbox\', _value="28"),\'Unpause VM   (Paused )\'),\n           TR(INPUT(_name=\'testcase29\', _type=\'checkbox\', _value="29"),\'Add User to VM  (Paused )\'),\n           TR(INPUT(_name=\'testcase30\', _type=\'checkbox\', _value="30"),\'Delete VM   (Paused )\'),\n           TR(INPUT(_name=\'testcase31\', _type=\'checkbox\', _value="31"),\'Adjust VM Resources Utilization   (Paused )\'),\n           TR(INPUT(_name=\'testcase32\', _type=\'checkbox\', _value="32"),\'Forcefully power off VM   (Paused)\'),\n           TR(INPUT(_name=\'testcase33\', _type=\'checkbox\', _value="33"),\'Delete Addtional User   (Paused )\'), \n           TR(INPUT(_name=\'testcase49\', _type=\'checkbox\', _value="49"),\'Revert Snapshot    (Paused )\'),\n           TR(INPUT(_name=\'testcase42\', _type=\'checkbox\', _value="42"),\'Delete Snapshot    (Paused )\'),\n           TR(INPUT(_name=\'testcase34\', _type=\'checkbox\', _value="34"),\'Check VM performance   (Shutdown )\'),\n           TR(INPUT(_name=\'testcase35\', _type=\'checkbox\', _value="35"),\'Turn on VM   (Shutdown )\'),\n           TR(INPUT(_name=\'testcase36\', _type=\'checkbox\', _value="36"),\'Add User to VM  (Shutdown)\'),\n           TR(INPUT(_name=\'testcase37\', _type=\'checkbox\', _value="37"),\'Delete VM   (Shutdown )\'),\n           TR(INPUT(_name=\'testcase38\', _type=\'checkbox\', _value="38"),\'Attach Extra Disk  (Shutdown )\'),\n           TR(INPUT(_name=\'testcase39\', _type=\'checkbox\', _value="39"),\'Request Clone VM   (Shutdown )\'),\n            TR(INPUT(_name=\'testcase40\', _type=\'checkbox\', _value="40"),\'Edit VM Config   (Shutdown )\'),\n           TR(INPUT(_name=\'testcase41\', _type=\'checkbox\', _value="41"),\'Assign VNC   (Shutdown )\'),\n           \n           TR(INPUT(_name=\'testcase43\', _type=\'checkbox\', _value="43"),\'Take VM snapshot   (Shutdown )\'),\n\n            TR(INPUT(_name=\'testcase44\', _type=\'checkbox\', _value="44"),\'Configure System: Host Setting\'),\n           TR(INPUT(_name=\'testcase45\', _type=\'checkbox\', _value="45"),\'Configure System: Host table\'),  \n           TR(INPUT(_name=\'testcase47\', _type=\'checkbox\', _value="47"),\'Approve VM\'),\n           TR(INPUT(_name=\'testcase48\', _type=\'checkbox\', _value="48"),\'Reject VM\'),\n           \n           BR(),\n           TR(INPUT(_type=\'submit\',_value=\'submit\'))\n          )\n      )\n    if form.process().accepted:\n        for i in range(1,52):\n            test_case_no=request.vars[\'testcase\'+str(i)]\n            if test_case_no!=None:\n                test_script(test_case_no)\n    elif form.errors:\n        response.flash = \'form has errors\'\n    else:\n        response.flash = \'please fill the form\'\n    return dict(form=form)\n    \n\ndef index():\n    try:\n        import commands\n        form = FORM( TABLE\n                  (  TR(INPUT(_name=\'testcase1\', _type=\'radio\', _value="1"),\'Unit Testing\'),\n                     TR(INPUT(_name=\'testcase2\', _type=\'radio\', _value="2"),\'Integration Testing\'),\n                     TR(INPUT(_name=\'testcase3\', _type=\'radio\', _value="3"),\'Stress Testing\'),\n                     BR(),\n                     TR(INPUT(_type=\'submit\',_value=\'submit\'))\n                  )\n                )        \n        if form.process().accepted:\n            if request.vars[\'testcase1\']!=None:\n                redirect(URL(\'unit_testing\'))\n            if request.vars[\'testcase2\']!=None:\n                redirect(URL(\'integration_testing\')) \n            if request.vars[\'testcase3\']!=None:\n                redirect(URL(\'stress_testing\'))          \n        elif form.errors:\n            response.flash = \'form has errors\'\n        else:\n            response.flash = \'please fill the form\'\n        return dict(form=form)\n    except Exception as e:\n        print e\n\n\ndef stress_testing(): \n\n    import commands\n    form = FORM(  TABLE\n        (   TR(INPUT(_name=\'testcase0\', _type=\'checkbox\', _value="0"),\'All\'), \n            BR(),\n            TR(INPUT(_type=\'submit\',_value=\'submit\'))\n        )\n        )\n              \n    if form.process().accepted:\n        test_case_no=request.vars[\'testcase0\']\n        if test_case_no!=None:\n            stress_test_script()\n    elif form.errors:\n        response.flash = \'form has errors\'\n    else:\n        response.flash = \'please fill the form\'\n    return dict(form=form)\n    \n   \ndef integration_testing(): \n    import commands\n    form = FORM(  TABLE\n                  (   \n                       TR(INPUT(_name=\'testcase52\', _type=\'checkbox\', _value="52"),\'Take VM snapshot    (Running )\'),\n           \n           TR(INPUT(_name=\'testcase53\', _type=\'checkbox\', _value="53"),\'Check VM performance   (Running )\'),\n           TR(INPUT(_name=\'testcase54\', _type=\'checkbox\', _value="54"),\'Pause VM    (Running )\'),\n           \n           TR(INPUT(_name=\'testcase55\', _type=\'checkbox\', _value="55"),\'Add User to VM   (Running )\'),\n           \n           TR(INPUT(_name=\'testcase56\', _type=\'checkbox\', _value="56"),\'Delete VM    (Running)\'),\n           TR(INPUT(_name=\'testcase57\', _type=\'checkbox\', _value="57"),\'Gracefully shut down VM    (Running )\'),\n           TR(INPUT(_name=\'testcase58\', _type=\'checkbox\', _value="58"),\'Forcefully power off VM   (Running )\'),\n            TR(INPUT(_name=\'testcase59\', _type=\'checkbox\', _value="59"),\'Attach Extra Disk to VM   (Running )\'),\n                      TR(INPUT(_name=\'testcase60\', _type=\'checkbox\', _value="60"),\'Take VM snapshot   (Paused )\'),\n                      TR(INPUT(_name=\'testcase61\', _type=\'checkbox\', _value="61"),\'Unpause VM   (Paused )\'),\n                      TR(INPUT(_name=\'testcase62\', _type=\'checkbox\', _value="62"),\'Add User to VM  (Paused )\'),\n                      TR(INPUT(_name=\'testcase63\', _type=\'checkbox\', _value="63"),\'Delete VM   (Paused )\'),\n                      TR(INPUT(_name=\'testcase64\', _type=\'checkbox\', _value="64"),\'Adjust VM Resources Utilization   (Paused )\'),\n                      TR(INPUT(_name=\'testcase65\', _type=\'checkbox\', _value="65"),\'Forcefully power off VM   (Paused)\'),\n                      TR(INPUT(_name=\'testcase66\', _type=\'checkbox\', _value="66"),\'Faculty Request VM(Approved by org-admin)\'),\n                      TR(INPUT(_name=\'testcase67\', _type=\'checkbox\', _value="67"),\'Turn on VM   (Shutdown )\'),\n                      TR(INPUT(_name=\'testcase68\', _type=\'checkbox\', _value="68"),\'Add User to VM  (Shutdown)\'),\n                      TR(INPUT(_name=\'testcase69\', _type=\'checkbox\', _value="69"),\'Delete VM   (Shutdown )\'),\n                      TR(INPUT(_name=\'testcase70\', _type=\'checkbox\', _value="70"),\'Attach Extra Disk  (Shutdown )\'),\n                       TR(INPUT(_name=\'testcase71\', _type=\'checkbox\', _value="71"),\'Request Clone VM   (Shutdown )\'),\n                       TR(INPUT(_name=\'testcase72\', _type=\'checkbox\', _value="72"),\'Edit VM Config   (Shutdown )\'),\n                       TR(INPUT(_name=\'testcase73\', _type=\'checkbox\', _value="73"),\'Assign VNC   (Shutdown )\'),\n                       TR(INPUT(_name=\'testcase74\', _type=\'checkbox\', _value="74"),\'Delete VM snapshot   (Shutdown )\'),\n                       TR(INPUT(_name=\'testcase75\', _type=\'checkbox\', _value="75"),\'Take VM snapshot   (Shutdown )\'),\n                       TR(INPUT(_name=\'testcase85\', _type=\'checkbox\', _value="85"),\'Faculty Request VM(Rejected by org-admin)\'),\n                       TR(INPUT(_name=\'testcase86\', _type=\'checkbox\', _value="86"),\'Admin Request VM(Approved by org-admin)\'),\n                       TR(INPUT(_name=\'testcase78\', _type=\'checkbox\', _value="78"), \'Admin Request VM(Rejected by org-admin)\'),\n                       TR(INPUT(_name=\'testcase79\', _type=\'checkbox\', _value="79"),\'User Request VM(Approved by Faculty and org-admin)\'),\n                       TR(INPUT(_name=\'testcase80\', _type=\'checkbox\', _value="80"),\'User Request VM(Rejected by Faculty)\'),\n                       TR(INPUT(_name=\'testcase81\', _type=\'checkbox\', _value="81"),\'User Request VM(Approved by Faculty and Rejected by org-admin)\'),\n                       TR(INPUT(_name=\'testcase82\', _type=\'checkbox\', _value="82"),\'Configure Template\'),\n                       TR(INPUT(_name=\'testcase83\', _type=\'checkbox\', _value="83"),\'Configure Host\'),\n                        TR(INPUT(_name=\'testcase84\', _type=\'checkbox\', _value="84"),\'Configure Datastore\'),\n                       TR(INPUT(_name=\'testcase76\', _type=\'checkbox\', _value="76"),\'Reject Attach Disk\'),\n           \n                       TR(INPUT(_name=\'testcase77\', _type=\'checkbox\', _value="77"),\'Reject Clone VM\'),\n                      BR(),\n                      TR(INPUT(_type=\'submit\',_value=\'submit\'))\n            )\n     )\n    if form.process().accepted:\n        for i in range(52,87):\n            test_case_no=request.vars[\'testcase\'+str(i)]\n            if test_case_no!=None:\n                test_script(test_case_no)\n    elif form.errors:\n        response.flash = \'form has errors\'\n    else:\n        response.flash = \'please fill the form\'\n    return dict(form=form)\n\nresponse._vars=response._caller(integration_testing)\n'
p7
sS'snapshot'
p8
(dp9
sS'traceback'
p10
S'Traceback (most recent call last):\n  File "/home/baadalvm/Desktop/web2py/gluon/restricted.py", line 212, in restricted\n    exec ccode in environment\n  File "/home/baadalvm/Desktop/web2py/applications/testapp/controllers/default.py", line 249, in <module>\n  File "/home/baadalvm/Desktop/web2py/gluon/globals.py", line 194, in <lambda>\n    self._caller = lambda f: f()\n  File "/home/baadalvm/Desktop/web2py/applications/testapp/controllers/default.py", line 242, in integration_testing\n    test_script(test_case_no)\n  File "/home/baadalvm/Desktop/web2py/applications/testapp/models/test.py", line 168, in test_script\n    vm_name2=isImage(driver,xml_child,xml_sub_child,table_path)\n  File "/home/baadalvm/Desktop/web2py/applications/testapp/models/test.py", line 780, in isImage\n    vm_running(xml_child,xml_sub_child,driver)\n  File "/home/baadalvm/Desktop/web2py/applications/testapp/models/test.py", line 483, in vm_running\n    check_operation(driver,xml_child,xml_sub_child,vm_name,vm_id)\n  File "/home/baadalvm/Desktop/web2py/applications/testapp/models/test.py", line 329, in check_operation\n    click_on_operation(driver,xml_sub_child,xml_child,vm_name,vm_id)\n  File "/home/baadalvm/Desktop/web2py/applications/testapp/models/test.py", line 446, in click_on_operation\n    check_attach_disk(driver,xml_sub_child,xml_child,vm_name,vm_id,operation_name)\n  File "/home/baadalvm/Desktop/web2py/applications/testapp/models/test.py", line 402, in check_attach_disk\n    query_result=execute_query(\'select id from vm_data where status=3 and vm_name LIKE (vm_nam) order by start_time desc,(str(vm_name))\').fetchone()\n  File "/home/baadalvm/Desktop/web2py/applications/testapp/models/test.py", line 285, in execute_query\n    cursor.execute(sql_query)\n  File "/usr/lib/python2.7/dist-packages/MySQLdb/cursors.py", line 174, in execute\n    self.errorhandler(self, exc, value)\n  File "/usr/lib/python2.7/dist-packages/MySQLdb/connections.py", line 36, in defaulterrorhandler\n    raise errorclass, errorvalue\nOperationalError: (1054, "Unknown column \'vm_nam\' in \'where clause\'")\n'
p11
s.