(dp1
S'output'
p2
S"<class 'httplib.BadStatusLine'> ''"
p3
sS'layer'
p4
S'/home/baadalvm/Desktop/web2py/applications/testapp/controllers/default.py'
p5
sS'code'
p6
S'# -*- coding: utf-8 -*-\n# this file is released under public domain and you can use without limitations\n\n#########################################################################\n## This is a sample controller\n## - index is the default action of any application\n## - user is required for authentication and authorization\n## - download is for downloading files uploaded in the db (does streaming)\n## - call exposes all registered services (none by default)\n#########################################################################\ndef user():\n    """\n    exposes:\n    http://..../[app]/default/user/login\n    http://..../[app]/default/user/logout\n    http://..../[app]/default/user/register\n    http://..../[app]/default/user/profile\n    http://..../[app]/default/user/retrieve_password\n    http://..../[app]/default/user/change_password\n    http://..../[app]/default/user/manage_users (requires membership in \n    use @auth.requires_login()\n        @auth.requires_membership(\'group name\')\n        @auth.requires_permission(\'read\',\'table name\',record_id)\n    to decorate functions that need access control\n    """\n    return dict(form=auth())\n\n#@cache.action()\ndef download():\n    """\n    allows downloading of uploaded files\n    http://..../[app]/default/download/[filename]\n    """\n    return response.download(request, db)\n\n\ndef call():\n    """\n    exposes services. for example:\n    http://..../[app]/default/call/jsonrpc\n    decorate with @services.jsonrpc the functions to expose\n    supports xml, json, xmlrpc, jsonrpc, amfrpc, rss, csv\n    """\n    return service()\n\n\n@auth.requires_signature()\ndef data():\n    """\n    http://..../[app]/default/data/tables\n    http://..../[app]/default/data/create/[table]\n    http://..../[app]/default/data/read/[table]/[id]\n    http://..../[app]/default/data/update/[table]/[id]\n    http://..../[app]/default/data/delete/[table]/[id]\n    http://..../[app]/default/data/select/[table]\n    http://..../[app]/default/data/search/[table]\n    but URLs must be signed, i.e. linked with\n      A(\'table\',_href=URL(\'data/tables\',user_signature=True))\n    or with the signed load operator\n      LOAD(\'default\',\'data.load\',args=\'tables\',ajax=True,user_signature=True)\n    """\n    return dict(form=crud())\n    \n    \n    \ndef unit_testing():\n    import commands\n    form = FORM(  TABLE\n         ( \n            TR(INPUT(_name=\'testcase1\', _type=\'checkbox\', _value="1"),\'Login\'),\n            TR(INPUT(_name=\'testcase2\', _type=\'checkbox\', _value="2"),\'Request VM\'),\n            TR(INPUT(_name=\'testcase3\', _type=\'checkbox\', _value="3"),\'My Pending VMs\'),\n            TR(INPUT(_name=\'testcase46\', _type=\'checkbox\', _value="46"),\'My VMs\'),\n            TR(INPUT(_name=\'testcase4\', _type=\'checkbox\', _value="4"),\'My Pending Tasks\'),\n            TR(INPUT(_name=\'testcase5\', _type=\'checkbox\', _value="5"),\'My Completed Tasks\'),\n            TR(INPUT(_name=\'testcase6\', _type=\'checkbox\', _value="6"),\'My Failed Taskss\'),\n            TR(INPUT(_name=\'testcase7\', _type=\'checkbox\', _value="7"),\'Pending Faculty-Level VM Approvals\'),\n            TR(INPUT(_name=\'testcase8\', _type=\'checkbox\', _value="8"),\'Pending Org-Level VM Approvals\'),\n           TR(INPUT(_name=\'testcase9\', _type=\'checkbox\', _value="9"),\'List All Org-Level VMs\',),\n           TR(INPUT(_name=\'testcase10\', _type=\'checkbox\', _value="10"),\'All VMs\'),\n           TR(INPUT(_name=\'testcase11\', _type=\'checkbox\', _value="11"),\'Host and VMs\',),\n           TR(INPUT(_name=\'testcase12\', _type=\'checkbox\', _value="12"),\'Pending Tasks\'),\n           TR(INPUT(_name=\'testcase13\', _type=\'checkbox\', _value="13"),\'Completed Tasks\'),\n           TR(INPUT(_name=\'testcase14\', _type=\'checkbox\', _value="14"),\'Failed Tasks\'),\n           TR(INPUT(_name=\'testcase15\', _type=\'checkbox\', _value="15"),\'Configure System: Add Host\'),\n           TR(INPUT(_name=\'testcase16\', _type=\'checkbox\', _value="16"),\'Configure System: Add Template\'),\n           TR(INPUT(_name=\'testcase17\', _type=\'checkbox\', _value="17"),\'Configure System: Add Datastore\'),\n           TR(INPUT(_name=\'testcase18\', _type=\'checkbox\', _value="18"),\'Take VM snapshot    (Running )\'),\n           \n           TR(INPUT(_name=\'testcase19\', _type=\'checkbox\', _value="19"),\'Check VM performance   (Running )\'),\n           TR(INPUT(_name=\'testcase20\', _type=\'checkbox\', _value="20"),\'Pause VM    (Running )\'),\n           \n           TR(INPUT(_name=\'testcase21\', _type=\'checkbox\', _value="21"),\'Add User to VM   (Running )\'),\n           \n           TR(INPUT(_name=\'testcase22\', _type=\'checkbox\', _value="22"),\'Delete VM    (Running)\'),\n           TR(INPUT(_name=\'testcase23\', _type=\'checkbox\', _value="23"),\'Gracefully shut down VM    (Running )\'),\n           TR(INPUT(_name=\'testcase24\', _type=\'checkbox\', _value="24"),\'Forcefully power off VM   (Running )\'),\n            TR(INPUT(_name=\'testcase25\', _type=\'checkbox\', _value="25"),\'Attach Extra Disk to VM   (Running )\'),\n          \n           TR(INPUT(_name=\'testcase26\', _type=\'checkbox\', _value="26"),\'Take VM snapshot   (Paused )\'),\n           TR(INPUT(_name=\'testcase27\', _type=\'checkbox\', _value="27"),\'Check VM performance   (Paused )\'),\n           TR(INPUT(_name=\'testcase28\', _type=\'checkbox\', _value="28"),\'Unpause VM   (Paused )\'),\n           TR(INPUT(_name=\'testcase29\', _type=\'checkbox\', _value="29"),\'Add User to VM  (Paused )\'),\n           TR(INPUT(_name=\'testcase30\', _type=\'checkbox\', _value="30"),\'Delete VM   (Paused )\'),\n           TR(INPUT(_name=\'testcase31\', _type=\'checkbox\', _value="31"),\'Adjust VM Resources Utilization   (Paused )\'),\n           TR(INPUT(_name=\'testcase32\', _type=\'checkbox\', _value="32"),\'Forcefully power off VM   (Paused)\'),\n           TR(INPUT(_name=\'testcase33\', _type=\'checkbox\', _value="33"),\'Delete Addtional User   (Paused )\'), \n           TR(INPUT(_name=\'testcase49\', _type=\'checkbox\', _value="49"),\'Revert Snapshot    (Paused )\'),\n           TR(INPUT(_name=\'testcase42\', _type=\'checkbox\', _value="42"),\'Delete Snapshot    (Paused )\'),\n           TR(INPUT(_name=\'testcase34\', _type=\'checkbox\', _value="34"),\'Check VM performance   (Shutdown )\'),\n           TR(INPUT(_name=\'testcase35\', _type=\'checkbox\', _value="35"),\'Turn on VM   (Shutdown )\'),\n           TR(INPUT(_name=\'testcase36\', _type=\'checkbox\', _value="36"),\'Add User to VM  (Shutdown)\'),\n           TR(INPUT(_name=\'testcase37\', _type=\'checkbox\', _value="37"),\'Delete VM   (Shutdown )\'),\n           TR(INPUT(_name=\'testcase38\', _type=\'checkbox\', _value="38"),\'Attach Extra Disk  (Shutdown )\'),\n           TR(INPUT(_name=\'testcase39\', _type=\'checkbox\', _value="39"),\'Request Clone VM   (Shutdown )\'),\n            TR(INPUT(_name=\'testcase40\', _type=\'checkbox\', _value="40"),\'Edit VM Config   (Shutdown )\'),\n           TR(INPUT(_name=\'testcase41\', _type=\'checkbox\', _value="41"),\'Assign VNC   (Shutdown )\'),\n           \n           TR(INPUT(_name=\'testcase43\', _type=\'checkbox\', _value="43"),\'Take VM snapshot   (Shutdown )\'),\n\n            TR(INPUT(_name=\'testcase44\', _type=\'checkbox\', _value="44"),\'Configure System: Host Setting\'),\n           TR(INPUT(_name=\'testcase45\', _type=\'checkbox\', _value="45"),\'Configure System: Host table\'),  \n           TR(INPUT(_name=\'testcase47\', _type=\'checkbox\', _value="47"),\'Approve VM\'),\n           TR(INPUT(_name=\'testcase48\', _type=\'checkbox\', _value="48"),\'Reject VM\'),\n           \n           BR(),\n           TR(INPUT(_type=\'submit\',_value=\'submit\'))\n          )\n      )\n    if form.process().accepted:\n        for i in range(1,51):\n            test_case_no=request.vars[\'testcase\'+str(i)]\n            if test_case_no!=None:\n                test_script(test_case_no)\n    elif form.errors:\n        response.flash = \'form has errors\'\n    else:\n        response.flash = \'please fill the form\'\n    return dict(form=form)\n    \n\ndef index():\n    try:\n        import commands\n        form = FORM( TABLE\n                  (  TR(INPUT(_name=\'testcase1\', _type=\'radio\', _value="1"),\'Unit Testing\'),\n                     TR(INPUT(_name=\'testcase2\', _type=\'radio\', _value="2"),\'Integration Testing\'),\n                     TR(INPUT(_name=\'testcase3\', _type=\'radio\', _value="3"),\'Stress Testing\'),\n                     BR(),\n                     TR(INPUT(_type=\'submit\',_value=\'submit\'))\n                  )\n                )        \n        if form.process().accepted:\n            if request.vars[\'testcase1\']!=None:\n                redirect(URL(\'unit_testing\'))\n            if request.vars[\'testcase2\']!=None:\n                redirect(URL(\'integration_testing\')) \n            if request.vars[\'testcase3\']!=None:\n                redirect(URL(\'stress_testing\'))          \n        elif form.errors:\n            response.flash = \'form has errors\'\n        else:\n            response.flash = \'please fill the form\'\n        return dict(form=form)\n    except Exception as e:\n        print e\n\n\ndef stress_testing(): \n\n    import commands\n    form = FORM(  TABLE\n        (   TR(INPUT(_name=\'testcase0\', _type=\'checkbox\', _value="0"),\'All\'), \n            BR(),\n            TR(INPUT(_type=\'submit\',_value=\'submit\'))\n        )\n        )\n              \n    if form.process().accepted:\n        test_case_no=request.vars[\'testcase0\']\n        if test_case_no!=None:\n            stress_test_script()\n    elif form.errors:\n        response.flash = \'form has errors\'\n    else:\n        response.flash = \'please fill the form\'\n    return dict(form=form)\n    \n   \ndef integration_testing(): \n    try:\n        import commands\n        form = FORM(  TABLE\n                  (   \n                      TR(INPUT(_name=\'testcase31\', _type=\'checkbox\', _value="31"),\'Faculty Request VM(Approved by org-admin)\'),\n                      TR(INPUT(_name=\'testcase32\', _type=\'checkbox\', _value="32"),\'Faculty Request VM(Rejected by org-admin)\'),\n                      TR(INPUT(_name=\'testcase33\', _type=\'checkbox\', _value="33"),\'Admin Request VM(Approved by org-admin)\'),\n                      TR(INPUT(_name=\'testcase34\', _type=\'checkbox\', _value="34"),\'Admin Request VM(Rejected by org-admin)\'),\n                      TR(INPUT(_name=\'testcase35\', _type=\'checkbox\', _value="35"),\'User Request VM(Approved by Faculty and org-admin)\'),\n                      TR(INPUT(_name=\'testcase36\', _type=\'checkbox\', _value="36"),\'User Request VM(Rejected by Faculty)\'),\n                      TR(INPUT(_name=\'testcase37\', _type=\'checkbox\', _value="37"),\'User Request VM(Approved by Faculty and Rejected by org-admin)\'),\n                      TR(INPUT(_name=\'testcase38\', _type=\'checkbox\', _value="38"),\'Configure Host\'),\n                      TR(INPUT(_name=\'testcase39\', _type=\'checkbox\', _value="39"),\'Configure Template\'),\n                      TR(INPUT(_name=\'testcase40\', _type=\'checkbox\', _value="40"),\'Configure Datastore\'),\n                      \n                      BR(),\n                      TR(INPUT(_type=\'submit\',_value=\'submit\'))\n                  )\n              )\n              \n        if form.process().accepted:\n            for i in xrange(31,41):\n                test_case_no=request.vars[\'testcase\'+str(i)]\n                if test_case_no!=None:\n                    test_script(test_case_no)\n        elif form.errors:\n            response.flash = \'form has errors\'\n        else:\n            response.flash = \'please fill the form\'\n        return dict(form=form)\n    except Exception as e:\n        print e\n\nresponse._vars=response._caller(unit_testing)\n'
p7
sS'snapshot'
p8
(dp9
S'exception'
p10
(dp11
S'__module__'
p12
S"'httplib'"
p13
sS'__getslice__'
p14
S"<method-wrapper '__getslice__' of BadStatusLine object>"
p15
sS'__str__'
p16
S"<method-wrapper '__str__' of BadStatusLine object>"
p17
sS'__reduce__'
p18
S'<built-in method __reduce__ of BadStatusLine object>'
p19
sS'__dict__'
p20
S'{\'line\': "\'\'"}'
p21
sS'__sizeof__'
p22
S'<built-in method __sizeof__ of BadStatusLine object>'
p23
sS'__weakref__'
p24
S'None'
p25
sS'__init__'
p26
S'<bound method BadStatusLine.__init__ of BadStatusLine("\'\'",)>'
p27
sS'__setattr__'
p28
S"<method-wrapper '__setattr__' of BadStatusLine object>"
p29
sS'__reduce_ex__'
p30
S'<built-in method __reduce_ex__ of BadStatusLine object>'
p31
sS'__new__'
p32
S'<built-in method __new__ of type object>'
p33
sS'__format__'
p34
S'<built-in method __format__ of BadStatusLine object>'
p35
sS'__class__'
p36
S"<class 'httplib.BadStatusLine'>"
p37
sS'__doc__'
p38
S'None'
p39
sS'__getitem__'
p40
S"<method-wrapper '__getitem__' of BadStatusLine object>"
p41
sS'__setstate__'
p42
S'<built-in method __setstate__ of BadStatusLine object>'
p43
sS'__getattribute__'
p44
S"<method-wrapper '__getattribute__' of BadStatusLine object>"
p45
sS'args'
p46
S'("\'\'",)'
p47
sS'__subclasshook__'
p48
S'<built-in method __subclasshook__ of type object>'
p49
sS'line'
p50
S'"\'\'"'
p51
sS'__unicode__'
p52
S'<built-in method __unicode__ of BadStatusLine object>'
p53
sS'__delattr__'
p54
S"<method-wrapper '__delattr__' of BadStatusLine object>"
p55
sS'__repr__'
p56
S"<method-wrapper '__repr__' of BadStatusLine object>"
p57
sS'__hash__'
p58
S"<method-wrapper '__hash__' of BadStatusLine object>"
p59
ssS'evalue'
p60
S"''"
p61
sS'request'
p62
cgluon.html
XML_unpickle
p63
(S's\x84Z\x00\x00<div><table><tr><td style="font-weight:bold;vertical-align:top">ajax</td><td valign="top">:</td><td><div>False</div></td></tr><tr><td style="font-weight:bold;vertical-align:top">application</td><td valign="top">:</td><td><div>testapp</div></td></tr><tr><td style="font-weight:bold;vertical-align:top">args</td><td valign="top">:</td><td><div><table></table></div></td></tr><tr><td style="font-weight:bold;vertical-align:top">body</td><td valign="top">:</td><td><div>&lt;open file &#x27;&lt;fdopen&gt;&#x27;, mode &#x27;w+b&#x27; at 0x7f9a5c16ee40&gt;</div></td></tr><tr><td style="font-weight:bold;vertical-align:top">cid</td><td valign="top">:</td><td><div>None</div></td></tr><tr><td style="font-weight:bold;vertical-align:top">client</td><td valign="top">:</td><td><div>127.0.0.1</div></td></tr><tr><td style="font-weight:bold;vertical-align:top">controller</td><td valign="top">:</td><td><div>default</div></td></tr><tr><td style="font-weight:bold;vertical-align:top">cookies</td><td valign="top">:</td><td><div><table><tr><td style="font-weight:bold;vertical-align:top">session_id_admin</td><td valign="top">:</td><td><div>127.0.0.1-50613ddc-e5f5-44f0-86b9-afb5edd992de<table><tr><td style="font-weight:bold;vertical-align:top">comment</td><td valign="top">:</td><td><div></div></td></tr><tr><td style="font-weight:bold;vertical-align:top">domain</td><td valign="top">:</td><td><div></div></td></tr><tr><td style="font-weight:bold;vertical-align:top">expires</td><td valign="top">:</td><td><div></div></td></tr><tr><td style="font-weight:bold;vertical-align:top">httponly</td><td valign="top">:</td><td><div></div></td></tr><tr><td style="font-weight:bold;vertical-align:top">max-age</td><td valign="top">:</td><td><div></div></td></tr><tr><td style="font-weight:bold;vertical-align:top">path</td><td valign="top">:</td><td><div></div></td></tr><tr><td style="font-weight:bold;vertical-align:top">secure</td><td valign="top">:</td><td><div></div></td></tr><tr><td style="font-weight:bold;vertical-align:top">version</td><td valign="top">:</td><td><div></div></td></tr></table></div></td></tr><tr><td style="font-weight:bold;vertical-align:top">session_id_testapp</td><td valign="top">:</td><td><div>127.0.0.1-6a3d0021-f0d7-44c0-9410-74aa38cd4103<table><tr><td style="font-weight:bold;vertical-align:top">comment</td><td valign="top">:</td><td><div></div></td></tr><tr><td style="font-weight:bold;vertical-align:top">domain</td><td valign="top">:</td><td><div></div></td></tr><tr><td style="font-weight:bold;vertical-align:top">expires</td><td valign="top">:</td><td><div></div></td></tr><tr><td style="font-weight:bold;vertical-align:top">httponly</td><td valign="top">:</td><td><div></div></td></tr><tr><td style="font-weight:bold;vertical-align:top">max-age</td><td valign="top">:</td><td><div></div></td></tr><tr><td style="font-weight:bold;vertical-align:top">path</td><td valign="top">:</td><td><div></div></td></tr><tr><td style="font-weight:bold;vertical-align:top">secure</td><td valign="top">:</td><td><div></div></td></tr><tr><td style="font-weight:bold;vertical-align:top">version</td><td valign="top">:</td><td><div></div></td></tr></table></div></td></tr><tr><td style="font-weight:bold;vertical-align:top">session_id_welcome</td><td valign="top">:</td><td><div>127.0.0.1-fb808cd6-8028-4624-97c8-28288a8c6be2<table><tr><td style="font-weight:bold;vertical-align:top">comment</td><td valign="top">:</td><td><div></div></td></tr><tr><td style="font-weight:bold;vertical-align:top">domain</td><td valign="top">:</td><td><div></div></td></tr><tr><td style="font-weight:bold;vertical-align:top">expires</td><td valign="top">:</td><td><div></div></td></tr><tr><td style="font-weight:bold;vertical-align:top">httponly</td><td valign="top">:</td><td><div></div></td></tr><tr><td style="font-weight:bold;vertical-align:top">max-age</td><td valign="top">:</td><td><div></div></td></tr><tr><td style="font-weight:bold;vertical-align:top">path</td><td valign="top">:</td><td><div></div></td></tr><tr><td style="font-weight:bold;vertical-align:top">secure</td><td valign="top">:</td><td><div></div></td></tr><tr><td style="font-weight:bold;vertical-align:top">version</td><td valign="top">:</td><td><div></div></td></tr></table></div></td></tr></table></div></td></tr><tr><td style="font-weight:bold;vertical-align:top">env</td><td valign="top">:</td><td><div><table><tr><td style="font-weight:bold;vertical-align:top">app_folders</td><td valign="top">:</td><td><div>set([&#x27;/home/baadalvm/Desktop/web2py/applications/testapp/&#x27;, &#x27;/home/baadalvm/Desktop/web2py/applications/admin/&#x27;, &#x27;/home/baadalvm/Desktop/web2py/applications/welcome/&#x27;])</div></td></tr><tr><td style="font-weight:bold;vertical-align:top">applications_parent</td><td valign="top">:</td><td><div>/home/baadalvm/Desktop/web2py</div></td></tr><tr><td style="font-weight:bold;vertical-align:top">cmd_args</td><td valign="top">:</td><td><div><table></table></div></td></tr><tr><td style="font-weight:bold;vertical-align:top">cmd_options</td><td valign="top">:</td><td><div>&lt;Values at 0x2c47998: {&#x27;verbose&#x27;: False, &#x27;ip&#x27;: &#x27;127.0.0.1&#x27;, &#x27;with_scheduler&#x27;: False, &#x27;ips&#x27;: [&#x27;127.0.1.1&#x27;], &#x27;shutdown_timeout&#x27;: 5, &#x27;taskbar&#x27;: False, &#x27;with_coverage&#x27;: False, &#x27;port&#x27;: 8000, &#x27;maxthreads&#x27;: None, &#x27;softcron&#x27;: False, &#x27;server_name&#x27;: &#x27;baadalvm&#x27;, &#x27;bpython&#x27;: False, &#x27;nogui&#x27;: False, &#x27;pid_filename&#x27;: &#x27;httpserver.pid&#x27;, &#x27;extcron&#x27;: False, &#x27;runcron&#x27;: False, &#x27;run_system_tests&#x27;: False, &#x27;test&#x27;: None, &#x27;folder&#x27;: &#x27;/home/baadalvm/Desktop/web2py&#x27;, &#x27;config&#x27;: &#x27;&#x27;, &#x27;minthreads&#x27;: None, &#x27;winservice&#x27;: &#x27;&#x27;, &#x27;shell&#x27;: None, &#x27;run&#x27;: &#x27;&#x27;, &#x27;log_filename&#x27;: &#x27;httpserver.log&#x27;, &#x27;debuglevel&#x27;: 30, &#x27;args&#x27;: [&#x27;&#x27;], &#x27;socket_timeout&#x27;: 5, &#x27;ssl_ca_certificate&#x27;: None, &#x27;scheduler&#x27;: None, &#x27;profiler_filename&#x27;: None, &#x27;ssl_private_key&#x27;: &#x27;&#x27;, &#x27;scheduler_groups&#x27;: None, &#x27;password&#x27;: &#x27;&lt;ask&gt;&#x27;, &#x27;request_queue_size&#x27;: 5, &#x27;ssl_certificate&#x27;: &#x27;&#x27;, &#x27;cronjob&#x27;: False, &#x27;numthreads&#x27;: None, &#x27;quiet&#x27;: False, &#x27;interfaces&#x27;: None, &#x27;import_models&#x27;: False, &#x27;timeout&#x27;: 10, &#x27;plain&#x27;: False, &#x27;nobanner&#x27;: False}&gt;</div></td></tr><tr><td style="font-weight:bold;vertical-align:top">content_length</td><td valign="top">:</td><td><div>445</div></td></tr><tr><td style="font-weight:bold;vertical-align:top">content_type</td><td valign="top">:</td><td><div>multipart/form-data; boundary=---------------------------1973988058869030387440590610</div></td></tr><tr><td style="font-weight:bold;vertical-align:top">db_sessions</td><td valign="top">:</td><td><div>set([])</div></td></tr><tr><td style="font-weight:bold;vertical-align:top">debugging</td><td valign="top">:</td><td><div>True</div></td></tr><tr><td style="font-weight:bold;vertical-align:top">gluon_parent</td><td valign="top">:</td><td><div>/home/baadalvm/Desktop/web2py</div></td></tr><tr><td style="font-weight:bold;vertical-align:top">http_accept</td><td valign="top">:</td><td><div>text/html,application/xhtml+xml,application/xml;q=0.9,*/*;q=0.8</div></td></tr><tr><td style="font-weight:bold;vertical-align:top">http_accept_encoding</td><td valign="top">:</td><td><div>gzip, deflate</div></td></tr><tr><td style="font-weight:bold;vertical-align:top">http_accept_language</td><td valign="top">:</td><td><div>en-US,en;q=0.5</div></td></tr><tr><td style="font-weight:bold;vertical-align:top">http_connection</td><td valign="top">:</td><td><div>keep-alive</div></td></tr><tr><td style="font-weight:bold;vertical-align:top">http_content_length</td><td valign="top">:</td><td><div>445</div></td></tr><tr><td style="font-weight:bold;vertical-align:top">http_content_type</td><td valign="top">:</td><td><div>multipart/form-data; boundary=---------------------------1973988058869030387440590610</div></td></tr><tr><td style="font-weight:bold;vertical-align:top">http_cookie</td><td valign="top">:</td><td><div>session_id_welcome=127.0.0.1-fb808cd6-8028-4624-97c8-28288a8c6be2; session_id_testapp=127.0.0.1-6a3d0021-f0d7-44c0-9410-74aa38cd4103; session_id_admin=127.0.0.1-50613ddc-e5f5-44f0-86b9-afb5edd992de</div></td></tr><tr><td style="font-weight:bold;vertical-align:top">http_host</td><td valign="top">:</td><td><div>127.0.0.1:8000</div></td></tr><tr><td style="font-weight:bold;vertical-align:top">http_referer</td><td valign="top">:</td><td><div>http://127.0.0.1:8000/testapp/default/unit_testing</div></td></tr><tr><td style="font-weight:bold;vertical-align:top">http_user_agent</td><td valign="top">:</td><td><div>Mozilla/5.0 (X11; Ubuntu; Linux x86_64; rv:20.0) Gecko/20100101 Firefox/20.0</div></td></tr><tr><td style="font-weight:bold;vertical-align:top">is_jython</td><td valign="top">:</td><td><div>False</div></td></tr><tr><td style="font-weight:bold;vertical-align:top">is_pypy</td><td valign="top">:</td><td><div>False</div></td></tr><tr><td style="font-weight:bold;vertical-align:top">local_hosts</td><td valign="top">:</td><td><div><table><tr><td><div>::1</div></td></tr><tr><td><div>127.0.1.1</div></td></tr><tr><td><div>baadalvm</div></td></tr><tr><td><div>::ffff:127.0.0.1</div></td></tr><tr><td><div>127.0.0.1</div></td></tr></table></div></td></tr><tr><td style="font-weight:bold;vertical-align:top">path_info</td><td valign="top">:</td><td><div>/testapp/default/unit_testing</div></td></tr><tr><td style="font-weight:bold;vertical-align:top">query_string</td><td valign="top">:</td><td><div></div></td></tr><tr><td style="font-weight:bold;vertical-align:top">remote_addr</td><td valign="top">:</td><td><div>127.0.0.1</div></td></tr><tr><td style="font-weight:bold;vertical-align:top">remote_port</td><td valign="top">:</td><td><div>38459</div></td></tr><tr><td style="font-weight:bold;vertical-align:top">request_method</td><td valign="top">:</td><td><div>POST</div></td></tr><tr><td style="font-weight:bold;vertical-align:top">request_uri</td><td valign="top">:</td><td><div>/testapp/default/unit_testing</div></td></tr><tr><td style="font-weight:bold;vertical-align:top">script_name</td><td valign="top">:</td><td><div></div></td></tr><tr><td style="font-weight:bold;vertical-align:top">server_name</td><td valign="top">:</td><td><div>baadalvm</div></td></tr><tr><td style="font-weight:bold;vertical-align:top">server_port</td><td valign="top">:</td><td><div>8000</div></td></tr><tr><td style="font-weight:bold;vertical-align:top">server_protocol</td><td valign="top">:</td><td><div>HTTP/1.1</div></td></tr><tr><td style="font-weight:bold;vertical-align:top">server_software</td><td valign="top">:</td><td><div>Rocket 1.2.6</div></td></tr><tr><td style="font-weight:bold;vertical-align:top">web2py_path</td><td valign="top">:</td><td><div>/home/baadalvm/Desktop/web2py</div></td></tr><tr><td style="font-weight:bold;vertical-align:top">web2py_version</td><td valign="top">:</td><td><div>2.5.1-stable+timestamp.2013.06.06.15.39.19</div></td></tr><tr><td style="font-weight:bold;vertical-align:top">wsgi_errors</td><td valign="top">:</td><td><div>&lt;open file &#x27;&lt;stderr&gt;&#x27;, mode &#x27;w&#x27; at 0x7f9a83c43270&gt;</div></td></tr><tr><td style="font-weight:bold;vertical-align:top">wsgi_file_wrapper</td><td valign="top">:</td><td><div>&lt;class wsgiref.util.FileWrapper at 0x2bca668&gt;</div></td></tr><tr><td style="font-weight:bold;vertical-align:top">wsgi_input</td><td valign="top">:</td><td><div>&lt;socket._fileobject object at 0x7f9a54332d50&gt;</div></td></tr><tr><td style="font-weight:bold;vertical-align:top">wsgi_multiprocess</td><td valign="top">:</td><td><div>False</div></td></tr><tr><td style="font-weight:bold;vertical-align:top">wsgi_multithread</td><td valign="top">:</td><td><div>True</div></td></tr><tr><td style="font-weight:bold;vertical-align:top">wsgi_run_once</td><td valign="top">:</td><td><div>False</div></td></tr><tr><td style="font-weight:bold;vertical-align:top">wsgi_url_scheme</td><td valign="top">:</td><td><div>http</div></td></tr><tr><td style="font-weight:bold;vertical-align:top">wsgi_version</td><td valign="top">:</td><td><div><table><tr><td><div>1</div></td></tr><tr><td><div>0</div></td></tr></table></div></td></tr></table></div></td></tr><tr><td style="font-weight:bold;vertical-align:top">extension</td><td valign="top">:</td><td><div>html</div></td></tr><tr><td style="font-weight:bold;vertical-align:top">folder</td><td valign="top">:</td><td><div>/home/baadalvm/Desktop/web2py/applications/testapp/</div></td></tr><tr><td style="font-weight:bold;vertical-align:top">function</td><td valign="top">:</td><td><div>unit_testing</div></td></tr><tr><td style="font-weight:bold;vertical-align:top">get_vars</td><td valign="top">:</td><td><div><table></table></div></td></tr><tr><td style="font-weight:bold;vertical-align:top">global_settings</td><td valign="top">:</td><td><div><table><tr><td style="font-weight:bold;vertical-align:top">app_folders</td><td valign="top">:</td><td><div>set([&#x27;/home/baadalvm/Desktop/web2py/applications/testapp/&#x27;, &#x27;/home/baadalvm/Desktop/web2py/applications/admin/&#x27;, &#x27;/home/baadalvm/Desktop/web2py/applications/welcome/&#x27;])</div></td></tr><tr><td style="font-weight:bold;vertical-align:top">applications_parent</td><td valign="top">:</td><td><div>/home/baadalvm/Desktop/web2py</div></td></tr><tr><td style="font-weight:bold;vertical-align:top">cmd_args</td><td valign="top">:</td><td><div><table></table></div></td></tr><tr><td style="font-weight:bold;vertical-align:top">cmd_options</td><td valign="top">:</td><td><div>&lt;Values at 0x2c47998: {&#x27;verbose&#x27;: False, &#x27;ip&#x27;: &#x27;127.0.0.1&#x27;, &#x27;with_scheduler&#x27;: False, &#x27;ips&#x27;: [&#x27;127.0.1.1&#x27;], &#x27;shutdown_timeout&#x27;: 5, &#x27;taskbar&#x27;: False, &#x27;with_coverage&#x27;: False, &#x27;port&#x27;: 8000, &#x27;maxthreads&#x27;: None, &#x27;softcron&#x27;: False, &#x27;server_name&#x27;: &#x27;baadalvm&#x27;, &#x27;bpython&#x27;: False, &#x27;nogui&#x27;: False, &#x27;pid_filename&#x27;: &#x27;httpserver.pid&#x27;, &#x27;extcron&#x27;: False, &#x27;runcron&#x27;: False, &#x27;run_system_tests&#x27;: False, &#x27;test&#x27;: None, &#x27;folder&#x27;: &#x27;/home/baadalvm/Desktop/web2py&#x27;, &#x27;config&#x27;: &#x27;&#x27;, &#x27;minthreads&#x27;: None, &#x27;winservice&#x27;: &#x27;&#x27;, &#x27;shell&#x27;: None, &#x27;run&#x27;: &#x27;&#x27;, &#x27;log_filename&#x27;: &#x27;httpserver.log&#x27;, &#x27;debuglevel&#x27;: 30, &#x27;args&#x27;: [&#x27;&#x27;], &#x27;socket_timeout&#x27;: 5, &#x27;ssl_ca_certificate&#x27;: None, &#x27;scheduler&#x27;: None, &#x27;profiler_filename&#x27;: None, &#x27;ssl_private_key&#x27;: &#x27;&#x27;, &#x27;scheduler_groups&#x27;: None, &#x27;password&#x27;: &#x27;&lt;ask&gt;&#x27;, &#x27;request_queue_size&#x27;: 5, &#x27;ssl_certificate&#x27;: &#x27;&#x27;, &#x27;cronjob&#x27;: False, &#x27;numthreads&#x27;: None, &#x27;quiet&#x27;: False, &#x27;interfaces&#x27;: None, &#x27;import_models&#x27;: False, &#x27;timeout&#x27;: 10, &#x27;plain&#x27;: False, &#x27;nobanner&#x27;: False}&gt;</div></td></tr><tr><td style="font-weight:bold;vertical-align:top">db_sessions</td><td valign="top">:</td><td><div>set([])</div></td></tr><tr><td style="font-weight:bold;vertical-align:top">debugging</td><td valign="top">:</td><td><div>True</div></td></tr><tr><td style="font-weight:bold;vertical-align:top">gluon_parent</td><td valign="top">:</td><td><div>/home/baadalvm/Desktop/web2py</div></td></tr><tr><td style="font-weight:bold;vertical-align:top">is_jython</td><td valign="top">:</td><td><div>False</div></td></tr><tr><td style="font-weight:bold;vertical-align:top">is_pypy</td><td valign="top">:</td><td><div>False</div></td></tr><tr><td style="font-weight:bold;vertical-align:top">local_hosts</td><td valign="top">:</td><td><div><table><tr><td><div>::1</div></td></tr><tr><td><div>127.0.1.1</div></td></tr><tr><td><div>baadalvm</div></td></tr><tr><td><div>::ffff:127.0.0.1</div></td></tr><tr><td><div>127.0.0.1</div></td></tr></table></div></td></tr><tr><td style="font-weight:bold;vertical-align:top">web2py_version</td><td valign="top">:</td><td><div>2.5.1-stable+timestamp.2013.06.06.15.39.19</div></td></tr></table></div></td></tr><tr><td style="font-weight:bold;vertical-align:top">is_https</td><td valign="top">:</td><td><div>False</div></td></tr><tr><td style="font-weight:bold;vertical-align:top">is_local</td><td valign="top">:</td><td><div>True</div></td></tr><tr><td style="font-weight:bold;vertical-align:top">is_restful</td><td valign="top">:</td><td><div>False</div></td></tr><tr><td style="font-weight:bold;vertical-align:top">now</td><td valign="top">:</td><td><div>datetime.datetime(2013, 9, 30, 14, 27, 9, 479641)</div></td></tr><tr><td style="font-weight:bold;vertical-align:top">post_vars</td><td valign="top">:</td><td><div><table><tr><td style="font-weight:bold;vertical-align:top">testcase21</td><td valign="top">:</td><td><div>21</div></td></tr></table></div></td></tr><tr><td style="font-weight:bold;vertical-align:top">raw_args</td><td valign="top">:</td><td><div></div></td></tr><tr><td style="font-weight:bold;vertical-align:top">raw_extension</td><td valign="top">:</td><td><div>None</div></td></tr><tr><td style="font-weight:bold;vertical-align:top">url</td><td valign="top">:</td><td><div>/testapp/default/unit_testing</div></td></tr><tr><td style="font-weight:bold;vertical-align:top">utcnow</td><td valign="top">:</td><td><div>datetime.datetime(2013, 9, 30, 8, 57, 9, 479693)</div></td></tr><tr><td style="font-weight:bold;vertical-align:top">uuid</td><td valign="top">:</td><td><div>testapp/127.0.0.1.2013-09-30.14-27-09.07e87f74-1d9b-4b32-b576-4b85a5863d30</div></td></tr><tr><td style="font-weight:bold;vertical-align:top">vars</td><td valign="top">:</td><td><div><table><tr><td style="font-weight:bold;vertical-align:top">testcase21</td><td valign="top">:</td><td><div>21</div></td></tr></table></div></td></tr><tr><td style="font-weight:bold;vertical-align:top">wsgi</td><td valign="top">:</td><td><div><table><tr><td style="font-weight:bold;vertical-align:top">environ</td><td valign="top">:</td><td><div><table><tr><td style="font-weight:bold;vertical-align:top">CONTENT_LENGTH</td><td valign="top">:</td><td><div>445</div></td></tr><tr><td style="font-weight:bold;vertical-align:top">CONTENT_TYPE</td><td valign="top">:</td><td><div>multipart/form-data; boundary=---------------------------1973988058869030387440590610</div></td></tr><tr><td style="font-weight:bold;vertical-align:top">HTTP_ACCEPT</td><td valign="top">:</td><td><div>text/html,application/xhtml+xml,application/xml;q=0.9,*/*;q=0.8</div></td></tr><tr><td style="font-weight:bold;vertical-align:top">HTTP_ACCEPT_ENCODING</td><td valign="top">:</td><td><div>gzip, deflate</div></td></tr><tr><td style="font-weight:bold;vertical-align:top">HTTP_ACCEPT_LANGUAGE</td><td valign="top">:</td><td><div>en-US,en;q=0.5</div></td></tr><tr><td style="font-weight:bold;vertical-align:top">HTTP_CONNECTION</td><td valign="top">:</td><td><div>keep-alive</div></td></tr><tr><td style="font-weight:bold;vertical-align:top">HTTP_CONTENT_LENGTH</td><td valign="top">:</td><td><div>445</div></td></tr><tr><td style="font-weight:bold;vertical-align:top">HTTP_CONTENT_TYPE</td><td valign="top">:</td><td><div>multipart/form-data; boundary=---------------------------1973988058869030387440590610</div></td></tr><tr><td style="font-weight:bold;vertical-align:top">HTTP_COOKIE</td><td valign="top">:</td><td><div>session_id_welcome=127.0.0.1-fb808cd6-8028-4624-97c8-28288a8c6be2; session_id_testapp=127.0.0.1-6a3d0021-f0d7-44c0-9410-74aa38cd4103; session_id_admin=127.0.0.1-50613ddc-e5f5-44f0-86b9-afb5edd992de</div></td></tr><tr><td style="font-weight:bold;vertical-align:top">HTTP_HOST</td><td valign="top">:</td><td><div>127.0.0.1:8000</div></td></tr><tr><td style="font-weight:bold;vertical-align:top">HTTP_REFERER</td><td valign="top">:</td><td><div>http://127.0.0.1:8000/testapp/default/unit_testing</div></td></tr><tr><td style="font-weight:bold;vertical-align:top">HTTP_USER_AGENT</td><td valign="top">:</td><td><div>Mozilla/5.0 (X11; Ubuntu; Linux x86_64; rv:20.0) Gecko/20100101 Firefox/20.0</div></td></tr><tr><td style="font-weight:bold;vertical-align:top">PATH_INFO</td><td valign="top">:</td><td><div>/testapp/default/unit_testing</div></td></tr><tr><td style="font-weight:bold;vertical-align:top">QUERY_STRING</td><td valign="top">:</td><td><div></div></td></tr><tr><td style="font-weight:bold;vertical-align:top">REMOTE_ADDR</td><td valign="top">:</td><td><div>127.0.0.1</div></td></tr><tr><td style="font-weight:bold;vertical-align:top">REMOTE_PORT</td><td valign="top">:</td><td><div>38459</div></td></tr><tr><td style="font-weight:bold;vertical-align:top">REQUEST_METHOD</td><td valign="top">:</td><td><div>POST</div></td></tr><tr><td style="font-weight:bold;vertical-align:top">REQUEST_URI</td><td valign="top">:</td><td><div>/testapp/default/unit_testing</div></td></tr><tr><td style="font-weight:bold;vertical-align:top">SCRIPT_NAME</td><td valign="top">:</td><td><div></div></td></tr><tr><td style="font-weight:bold;vertical-align:top">SERVER_NAME</td><td valign="top">:</td><td><div>baadalvm</div></td></tr><tr><td style="font-weight:bold;vertical-align:top">SERVER_PORT</td><td valign="top">:</td><td><div>8000</div></td></tr><tr><td style="font-weight:bold;vertical-align:top">SERVER_PROTOCOL</td><td valign="top">:</td><td><div>HTTP/1.1</div></td></tr><tr><td style="font-weight:bold;vertical-align:top">SERVER_SOFTWARE</td><td valign="top">:</td><td><div>Rocket 1.2.6</div></td></tr><tr><td style="font-weight:bold;vertical-align:top">wsgi.errors</td><td valign="top">:</td><td><div>&lt;open file &#x27;&lt;stderr&gt;&#x27;, mode &#x27;w&#x27; at 0x7f9a83c43270&gt;</div></td></tr><tr><td style="font-weight:bold;vertical-align:top">wsgi.file_wrapper</td><td valign="top">:</td><td><div>&lt;class wsgiref.util.FileWrapper at 0x2bca668&gt;</div></td></tr><tr><td style="font-weight:bold;vertical-align:top">wsgi.input</td><td valign="top">:</td><td><div>&lt;open file &#x27;&lt;fdopen&gt;&#x27;, mode &#x27;w+b&#x27; at 0x7f9a5c16ee40&gt;</div></td></tr><tr><td style="font-weight:bold;vertical-align:top">wsgi.multiprocess</td><td valign="top">:</td><td><div>False</div></td></tr><tr><td style="font-weight:bold;vertical-align:top">wsgi.multithread</td><td valign="top">:</td><td><div>True</div></td></tr><tr><td style="font-weight:bold;vertical-align:top">wsgi.run_once</td><td valign="top">:</td><td><div>False</div></td></tr><tr><td style="font-weight:bold;vertical-align:top">wsgi.url_scheme</td><td valign="top">:</td><td><div>http</div></td></tr><tr><td style="font-weight:bold;vertical-align:top">wsgi.version</td><td valign="top">:</td><td><div>1</div></td></tr></table></div></td></tr></table></div></td></tr></table></div>'
tRp64
sS'frames'
p65
(lp66
(dp67
S'file'
p68
S'/home/baadalvm/Desktop/web2py/gluon/restricted.py'
p69
sS'dump'
p70
(dp71
S'environment'
p72
S"{'A': <class 'gluon.html.A'>, 'ANY_OF': <class 'gluon.validators.ANY_OF'>, 'Auth': <class 'gluon.tools.Auth'>, 'B': <class 'gluon.html.B'>, 'BEAUTIFY': <class 'gluon.html.BEAUTIFY'>, 'BODY': <class 'gluon.html.BODY'>, 'BR': <class 'gluon.html.BR'>, 'BUTTON': <class 'gluon.html.BUTTON'>, 'CAT': <class 'gluon.html.CAT'>, 'CENTER': <class 'gluon.html.CENTER'>, ...}"
p73
sS'ccode'
p74
S'<code object <module> at 0x7f9a6031bbb0, file "/...cations/testapp/controllers/default.py", line 11>'
p75
ssS'lnum'
p76
I212
sS'lines'
p77
(dp78
I207
S'    try:'
p79
sI208
S'        if isinstance(code, types.CodeType):'
p80
sI209
S'            ccode = code'
p81
sI210
S'        else:'
p82
sI211
S'            ccode = compile2(code, layer)'
p83
sI212
S'        exec ccode in environment'
p84
sI213
S'    except HTTP:'
p85
sI214
S'        raise'
p86
sI215
S'    except RestrictedError:'
p87
sI216
S'        # do not encapsulate (obfuscate) the original RestrictedError'
p88
ssS'call'
p89
S"(code='# -*- coding: utf-8 -*-\\n# this file is released ...e\\n\\nresponse._vars=response._caller(unit_testing)\\n', environment={'A': <class 'gluon.html.A'>, 'ANY_OF': <class 'gluon.validators.ANY_OF'>, 'Auth': <class 'gluon.tools.Auth'>, 'B': <class 'gluon.html.B'>, 'BEAUTIFY': <class 'gluon.html.BEAUTIFY'>, 'BODY': <class 'gluon.html.BODY'>, 'BR': <class 'gluon.html.BR'>, 'BUTTON': <class 'gluon.html.BUTTON'>, 'CAT': <class 'gluon.html.CAT'>, 'CENTER': <class 'gluon.html.CENTER'>, ...}, layer='/home/baadalvm/Desktop/web2py/applications/testapp/controllers/default.py')"
p90
sS'func'
p91
S'restricted'
p92
sa(dp93
g68
S'/home/baadalvm/Desktop/web2py/applications/testapp/controllers/default.py'
p94
sg70
(dp95
sg76
I224
sg77
(dp96
I213
S"                test_case_no=request.vars['testcase'+str(i)]"
p97
sI214
S'                if test_case_no!=None:'
p98
sI215
S'                    test_script(test_case_no)'
p99
sI216
S'        elif form.errors:'
p100
sI217
S"            response.flash = 'form has errors'"
p101
sI218
S'        else:'
p102
sI219
S"            response.flash = 'please fill the form'"
p103
sI220
S'        return dict(form=form)'
p104
sI221
S'    except Exception as e:'
p105
sI222
S'        print e'
p106
ssg89
S'()'
p107
sg91
S'<module>'
p108
sa(dp109
g68
S'/home/baadalvm/Desktop/web2py/gluon/globals.py'
p110
sg70
(dp111
S'self'
p112
S'undefined'
p113
sS'f'
S'<function unit_testing>'
p114
ssg76
I194
sg77
(dp115
I192
S"        self.delimiters = ('{{', '}}')"
p116
sI193
S'        self._vars = None'
p117
sI194
S'        self._caller = lambda f: f()'
p118
sI195
S'        self._view_environment = None'
p119
sI196
S'        self._custom_commit = None'
p120
sI197
S'        self._custom_rollback = None'
p121
sI198
S''
sI189
S'        self.menu = []             # used by the default view layout'
p122
sI190
S'        self.files = []            # used by web2py_ajax.html'
p123
sI191
S'        self.generic_patterns = []  # patterns to allow generic views'
p124
ssg89
S'(f=<function unit_testing>)'
p125
sg91
S'<lambda>'
p126
sa(dp127
g68
S'/home/baadalvm/Desktop/web2py/applications/testapp/controllers/default.py'
p128
sg70
(dp129
S'test_case_no'
p130
S"'21'"
p131
sS'global test_script'
p132
S'<function test_script>'
p133
ssg76
I134
sg77
(dp134
I129
S'      )'
p135
sI130
S'    if form.process().accepted:'
p136
sI131
S'        for i in range(1,51):'
p137
sI132
S"            test_case_no=request.vars['testcase'+str(i)]"
p138
sI133
S'            if test_case_no!=None:'
p139
sI134
S'                test_script(test_case_no)'
p140
sI135
S'    elif form.errors:'
p141
sI136
S"        response.flash = 'form has errors'"
p142
sI137
S'    else:'
p143
sI138
S"        response.flash = 'please fill the form'"
p144
ssg89
S'()'
p145
sg91
S'unit_testing'
p146
sa(dp147
g68
S'/home/baadalvm/Desktop/web2py/applications/testapp/models/test.py'
p148
sg70
(dp149
S'global isImage'
p150
S'<function isImage>'
p151
sS'table_path'
p152
S'"//div[@class=\'TABLE\']/table/tbody/tr/td"'
p153
sS'xml_sub_child'
p154
S"<Element 'setting'>"
p155
sS'driver'
p156
S'<selenium.webdriver.firefox.webdriver.WebDriver object>'
p157
sS'vm_name2'
p158
g113
sS'xml_child'
p159
S"<Element 'test_case2'>"
p160
ssg76
I167
sg77
(dp161
I162
S'                elif field_type=="table":'
p162
sI163
S'                    isTable(driver,xml_parent,xml_child,xml_sub_child)#checking for data in table'
p163
sI164
S''
sI165
S'                elif field_type=="img":#checking for setting image'
p164
sI166
S'                    table_path=xml_sub_child.get("path")'
p165
sI167
S'                    vm_name2=isImage(driver,xml_child,xml_sub_child,table_path)'
p166
sI168
S''
sI169
S'                elif field_type=="check_tables":#cheking for host table'
p167
sI170
S'                    isCheckTable(driver,xml_parent,xml_child,xml_sub_child)'
p168
sI171
S''
ssg89
S"(test_case_no='21')"
p169
sg91
S'test_script'
p170
sa(dp171
g68
S'/home/baadalvm/Desktop/web2py/applications/testapp/models/test.py'
p172
sg70
(dp173
S'global vm_running'
p174
S'<function vm_running>'
p175
sS'xml_sub_child'
p176
S"<Element 'setting'>"
p177
sS'driver'
p178
S'<selenium.webdriver.firefox.webdriver.WebDriver object>'
p179
sS'xml_child'
p180
S"<Element 'test_case2'>"
p181
ssg76
I691
sg77
(dp182
I686
S'\treturn'
p183
sI687
S''
sI688
S'def isImage(driver,xml_child,xml_sub_child,a):'
p184
sI689
S'    if isElementPresent(driver,xml_child,a):'
p185
sI690
S'        if xml_sub_child.get("name") in {"vm_running_Setting","vm_running_Setting_intgrtn"}:'
p186
sI691
S'            vm_running(xml_child,xml_sub_child,driver)'
p187
sI692
S'        elif xml_sub_child.get("name")=="vm_paused_Setting":'
p188
sI693
S'            vm_paused(xml_child,xml_sub_child,driver)'
p189
sI694
S'        elif xml_sub_child.get("name")=="vm_shutdown_Setting":'
p190
sI695
S'            print "in"'
p191
ssg89
S'(driver=<selenium.webdriver.firefox.webdriver.WebDriver object>, xml_child=<Element \'test_case2\'>, xml_sub_child=<Element \'setting\'>, a="//div[@class=\'TABLE\']/table/tbody/tr/td")'
p192
sg91
S'isImage'
p193
sa(dp194
g68
S'/home/baadalvm/Desktop/web2py/applications/testapp/models/test.py'
p195
sg70
(dp196
S'vm_name'
p197
S"'test12345'"
p198
sS'xml_sub_child'
p199
S"<Element 'setting'>"
p200
sS'driver'
p201
S'<selenium.webdriver.firefox.webdriver.WebDriver object>'
p202
sS'xml_child'
p203
S"<Element 'test_case2'>"
p204
sS'vm_id'
p205
S'9L'
p206
sS'global check_operation'
p207
S'<function check_operation>'
p208
ssg76
I426
sg77
(dp209
I421
S'        if status==5:'
p210
sI422
S'            click_on_setting(driver,xml_sub_child,xml_child,vm_name,vm_id)'
p211
sI423
S'            check_snapshot(vm_name,driver,xml_child,xml_sub_child)'
p212
sI424
S'            check_user(driver,xml_child,xml_sub_child,vm_name)'
p213
sI425
S'            check_vm_configuration(driver,xml_child,xml_sub_child,vm_name)'
p214
sI426
S'            check_operation(driver,xml_child,xml_sub_child,vm_name,vm_id)'
p215
sI427
S''
sI428
S'        if (status==7) | (status==6):'
p216
sI429
S'            if (row_count-1)==length:'
p217
sI430
S'                logger.debug("No VM exist which is in running state,So Please Run a VM before doing this testing")'
p218
ssg89
S"(xml_child=<Element 'test_case2'>, xml_sub_child=<Element 'setting'>, driver=<selenium.webdriver.firefox.webdriver.WebDriver object>)"
p219
sg91
S'vm_running'
p220
sa(dp221
g68
S'/home/baadalvm/Desktop/web2py/applications/testapp/models/test.py'
p222
sg70
(dp223
S'vm_name'
p224
S"'test12345'"
p225
sS'xml_sub_child'
p226
S"<Element 'setting'>"
p227
sS'driver'
p228
S'<selenium.webdriver.firefox.webdriver.WebDriver object>'
p229
sS'xml_child'
p230
S"<Element 'test_case2'>"
p231
sS'global click_on_operation'
p232
S'<function click_on_operation>'
p233
sS'vm_id'
p234
S'9L'
p235
ssg76
I305
sg77
(dp236
I300
S'def check_operation(driver,xml_child,xml_sub_child,vm_name,vm_id):'
p237
sI301
S'    if xml_sub_child.get("op")=="snapshot":'
p238
sI302
S'        click_on_operation(driver,xml_sub_child,xml_child,vm_name,vm_id)'
p239
sI303
S'        max_snap(driver,xml_sub_child,xml_child,vm_name)'
p240
sI304
S'    else:'
p241
sI305
S'        click_on_operation(driver,xml_sub_child,xml_child,vm_name,vm_id)'
p242
sI306
S'    return operation_name'
p243
sI307
S''
sI308
S''
sI309
S''
ssg89
S"(driver=<selenium.webdriver.firefox.webdriver.WebDriver object>, xml_child=<Element 'test_case2'>, xml_sub_child=<Element 'setting'>, vm_name='test12345', vm_id=9L)"
p244
sg91
S'check_operation'
p245
sa(dp246
g68
S'/home/baadalvm/Desktop/web2py/applications/testapp/models/test.py'
p247
sg70
(dp248
S'vm_name'
p249
S"'test12345'"
p250
sS'xml_sub_child'
p251
S"<Element 'setting'>"
p252
sS'driver'
p253
S'<selenium.webdriver.firefox.webdriver.WebDriver object>'
p254
sS'xml_child'
p255
S"<Element 'test_case2'>"
p256
sS'global add_user'
p257
S'<function add_user>'
p258
sS'vm_id'
p259
S'9L'
p260
ssg76
I383
sg77
(dp261
I384
S'        if xml_sub_child.get("name")=="vm_running_Setting_intgrtn":'
p262
sI385
S'            check_user_table(driver,xml_sub_child,xml_child,vm_name,vm_id)'
p263
sI386
S'    elif op_name=="Delete":'
p264
sI387
S'        driver.find_element_by_xpath(xml_sub_child.get("title")).click()'
p265
sI378
S'    op_name=xml_sub_child.get("op")'
p266
sI379
S'    print op_name'
p267
sI380
S'    if op_name=="user_details":'
p268
sI381
S'        print "user"'
p269
sI382
S'        driver.find_element_by_xpath("//*[@href=\'/baadal/admin/"+ str(op_name) +"/"+ str(vm_id) +"\']").click()'
p270
sI383
S'        add_user(driver,xml_sub_child,xml_child,vm_name,vm_id)'
p271
ssg89
S"(driver=<selenium.webdriver.firefox.webdriver.WebDriver object>, xml_sub_child=<Element 'setting'>, xml_child=<Element 'test_case2'>, vm_name='test12345', vm_id=9L)"
p272
sg91
S'click_on_operation'
p273
sa(dp274
g68
S'/home/baadalvm/Desktop/web2py/applications/testapp/models/test.py'
p275
sg70
(dp276
S'global isButton_add'
p277
S'<function isButton_add>'
p278
sS'xml_sub_child'
p279
S"<Element 'setting'>"
p280
sS'driver'
p281
S'<selenium.webdriver.firefox.webdriver.WebDriver object>'
p282
sS'val'
p283
S'"//input[@value=\'Confirm Details\']"'
p284
ssg76
I294
sg77
(dp285
I289
S'    check_user(driver,xml_child,xml_sub_child,vm_name)'
p286
sI290
S'    isInput_add(driver, xml_sub_child)'
p287
sI291
S'    value=xml_sub_child.get("add_submit")'
p288
sI292
S'    isButton_add(driver, xml_sub_child,value)'
p289
sI293
S'    val=xml_sub_child.get("add_button")'
p290
sI294
S'    isButton_add(driver, xml_sub_child,val)'
p291
sI295
S'    return'
p292
sI296
S''
sI297
S''
sI298
S''
ssg89
S"(driver=<selenium.webdriver.firefox.webdriver.WebDriver object>, xml_sub_child=<Element 'setting'>, xml_child=<Element 'test_case2'>, vm_name='test12345', vm_id=9L)"
p293
sg91
S'add_user'
p294
sa(dp295
g68
S'/home/baadalvm/Desktop/web2py/applications/testapp/models/test.py'
p296
sg70
(dp297
S'driver.find_element_by_xpath'
p298
S'<bound method WebDriver.find_element_by_xpath of...um.webdriver.firefox.webdriver.WebDriver object>>'
p299
sS').click'
p300
g113
sS'driver'
p301
S'<selenium.webdriver.firefox.webdriver.WebDriver object>'
p302
sS'value'
p303
S'"//input[@value=\'Confirm Details\']"'
p304
ssg76
I671
sg77
(dp305
I672
S'    return'
p306
sI673
S''
sI674
S'def isScroll(driver, xml_sub_child):'
p307
sI675
S'\tfield=driver.find_element_by_tag_name("html")'
p308
sI666
S'def isButton(driver, xml_sub_child):'
p309
sI667
S'\tdriver.find_element_by_xpath(xml_sub_child.text).click()'
p310
sI668
S'\treturn'
p311
sI669
S''
sI670
S'def isButton_add(driver, xml_sub_child,value):'
p312
sI671
S'    driver.find_element_by_xpath(value).click()'
p313
ssg89
S'(driver=<selenium.webdriver.firefox.webdriver.WebDriver object>, xml_sub_child=<Element \'setting\'>, value="//input[@value=\'Confirm Details\']")'
p314
sg91
S'isButton_add'
p315
sa(dp316
g68
S'/usr/local/lib/python2.7/dist-packages/selenium/webdriver/remote/webdriver.py'
p317
sg70
(dp318
S'xpath'
p319
S'"//input[@value=\'Confirm Details\']"'
p320
sS'self.find_element'
p321
S'<bound method WebDriver.find_element of <selenium.webdriver.firefox.webdriver.WebDriver object>>'
p322
sS'self'
p323
S'<selenium.webdriver.firefox.webdriver.WebDriver object>'
p324
sS'value'
p325
g113
sS'By.XPATH'
p326
S"'xpath'"
p327
sS'global By'
p328
S"<class 'selenium.webdriver.common.by.By'>"
p329
sS'by'
p330
g113
ssg76
I222
sg77
(dp331
I224
S'    def find_elements_by_xpath(self, xpath):'
p332
sI225
S'        """'
p333
sI226
S'        Finds multiple elements by xpath.'
p334
sI217
S'         - xpath - The xpath locator of the element to find.'
p335
sI218
S''
sI219
S'        :Usage:'
p336
sI220
S"            driver.find_element_by_xpath('//div/td[1]')"
p337
sI221
S'        """'
p338
sI222
S'        return self.find_element(by=By.XPATH, value=xpath)'
p339
sI223
S''
ssg89
S'(self=<selenium.webdriver.firefox.webdriver.WebDriver object>, xpath="//input[@value=\'Confirm Details\']")'
p340
sg91
S'find_element_by_xpath'
p341
sa(dp342
g68
S'/usr/local/lib/python2.7/dist-packages/selenium/webdriver/remote/webdriver.py'
p343
sg70
(dp344
S'by'
p345
S"'xpath'"
p346
sS'value'
p347
S'"//input[@value=\'Confirm Details\']"'
p348
ssg76
I680
sg77
(dp349
I675
S'        """'
p350
sI676
S'        if isinstance(by, tuple) or isinstance(value, int) or value==None:'
p351
sI677
S'            raise InvalidSelectorException("Invalid locator values passed in")'
p352
sI678
S''
sI679
S'        return self.execute(Command.FIND_ELEMENT,'
p353
sI680
S"                             {'using': by, 'value': value})['value']"
p354
sI681
S''
sI682
S'    def find_elements(self, by=By.ID, value=None):'
p355
sI683
S'        """'
p356
sI684
S"        'Private' method used by the find_elements_by_* methods."
p357
ssg89
S'(self=<selenium.webdriver.firefox.webdriver.WebDriver object>, by=\'xpath\', value="//input[@value=\'Confirm Details\']")'
p358
sg91
S'find_element'
p359
sa(dp360
g68
S'/usr/local/lib/python2.7/dist-packages/selenium/webdriver/remote/webdriver.py'
p361
sg70
(dp362
S'self.command_executor'
p363
S'<selenium.webdriver.firefox.extension_connection.ExtensionConnection object>'
p364
sS'self'
p365
S'<selenium.webdriver.firefox.webdriver.WebDriver object>'
p366
sS'params'
p367
S'{\'sessionId\': u\'dbfa5ab2-3f4e-4ef6-bc22-405ba674f5a0\', \'using\': \'xpath\', \'value\': "//input[@value=\'Confirm Details\']"}'
p368
sS'self.command_executor.execute'
p369
S'<bound method ExtensionConnection.execute of <se...extension_connection.ExtensionConnection object>>'
p370
sS'response'
p371
g113
sS'driver_command'
p372
S"'findElement'"
p373
ssg76
I163
sg77
(dp374
I160
S"            params['sessionId'] = self.session_id"
p375
sI161
S''
sI162
S'        params = self._wrap_value(params)'
p376
sI163
S'        response = self.command_executor.execute(driver_command, params)'
p377
sI164
S'        if response:'
p378
sI165
S'            self.error_handler.check_response(response)'
p379
sI166
S"            response['value'] = self._unwrap_value("
p380
sI167
S"                response.get('value', None))"
p381
sI158
S"            params = {'sessionId': self.session_id}"
p382
sI159
S"        elif 'sessionId' not in params:"
p383
ssg89
S'(self=<selenium.webdriver.firefox.webdriver.WebDriver object>, driver_command=\'findElement\', params={\'sessionId\': u\'dbfa5ab2-3f4e-4ef6-bc22-405ba674f5a0\', \'using\': \'xpath\', \'value\': "//input[@value=\'Confirm Details\']"})'
p384
sg91
S'execute'
p385
sa(dp386
g68
S'/usr/local/lib/python2.7/dist-packages/selenium/webdriver/remote/remote_connection.py'
p387
sg70
(dp388
S'url'
p389
S"u'http://127.0.0.1:56841/hub/session/dbfa5ab2-3f4e-4ef6-bc22-405ba674f5a0/element'"
p390
sS'self'
p391
S'<selenium.webdriver.firefox.extension_connection.ExtensionConnection object>'
p392
sS'command_info'
p393
S"('POST', '/session/$sessionId/element')"
p394
sS'self._request'
p395
S'<bound method ExtensionConnection._request of <s...extension_connection.ExtensionConnection object>>'
p396
sS'data'
p397
S'\'{"using": "xpath", "sessionId": "dbfa5ab2-3f4e-4...0", "value": "//input[@value=\\\'Confirm Details\\\']"}\''
p398
sS'method'
p399
g113
ssg76
I349
sg77
(dp400
I352
S'        """'
p401
sI353
S'        Send an HTTP request to the remote server.'
p402
sI344
S'        command_info = self._commands[command]'
p403
sI345
S"        assert command_info is not None, 'Unrecognised command %s' % command"
p404
sI346
S'        data = utils.dump_json(params)'
p405
sI347
S'        path = string.Template(command_info[1]).substitute(params)'
p406
sI348
S"        url = '%s%s' % (self._url, path)"
p407
sI349
S'        return self._request(url, method=command_info[0], data=data)'
p408
sI350
S''
sI351
S'    def _request(self, url, data=None, method=None):'
p409
ssg89
S'(self=<selenium.webdriver.firefox.extension_connection.ExtensionConnection object>, command=\'findElement\', params={\'sessionId\': u\'dbfa5ab2-3f4e-4ef6-bc22-405ba674f5a0\', \'using\': \'xpath\', \'value\': "//input[@value=\'Confirm Details\']"})'
p410
sg91
g385
sa(dp411
g68
S'/usr/local/lib/python2.7/dist-packages/selenium/webdriver/remote/remote_connection.py'
p412
sg70
(dp413
S'opener'
p414
S'<urllib2.OpenerDirector instance>'
p415
sS'request'
p416
S'<selenium.webdriver.remote.remote_connection.Request instance>'
p417
sS'response'
p418
g113
sS'opener.open'
p419
S'<bound method OpenerDirector.open of <urllib2.OpenerDirector instance>>'
p420
ssg76
I396
sg77
(dp421
I391
S'                                          HttpErrorHandler(),'
p422
sI392
S'                                          url_request.HTTPBasicAuthHandler(password_manager))'
p423
sI393
S'        else:'
p424
sI394
S'            opener = url_request.build_opener(url_request.HTTPRedirectHandler(),'
p425
sI395
S'                                          HttpErrorHandler())'
p426
sI396
S'        response = opener.open(request)'
p427
sI397
S'        try:'
p428
sI398
S'            if response.code > 399 and response.code < 500:'
p429
sI399
S"                return {'status': response.code, 'value': response.read()}"
p430
sI400
S"            body = response.read().decode('utf-8').replace('\\x00', '').strip()"
p431
ssg89
S'(self=<selenium.webdriver.firefox.extension_connection.ExtensionConnection object>, url=u\'http://127.0.0.1:56841/hub/session/dbfa5ab2-3f4e-4ef6-bc22-405ba674f5a0/element\', data=\'{"using": "xpath", "sessionId": "dbfa5ab2-3f4e-4...0", "value": "//input[@value=\\\'Confirm Details\\\']"}\', method=\'POST\')'
p432
sg91
S'_request'
p433
sa(dp434
g68
S'/usr/lib/python2.7/urllib2.py'
p435
sg70
(dp436
S'self'
p437
S'<urllib2.OpenerDirector instance>'
p438
sS'req'
p439
S'<selenium.webdriver.remote.remote_connection.Request instance>'
p440
sS'data'
p441
S'None'
p442
sS'response'
p443
g113
sS'self._open'
p444
S'<bound method OpenerDirector._open of <urllib2.OpenerDirector instance>>'
p445
ssg76
I400
sg77
(dp446
I395
S'        meth_name = protocol+"_request"'
p447
sI396
S'        for processor in self.process_request.get(protocol, []):'
p448
sI397
S'            meth = getattr(processor, meth_name)'
p449
sI398
S'            req = meth(req)'
p450
sI399
S''
sI400
S'        response = self._open(req, data)'
p451
sI401
S''
sI402
S'        # post-process response'
p452
sI403
S'        meth_name = protocol+"_response"'
p453
sI404
S'        for processor in self.process_response.get(protocol, []):'
p454
ssg89
S'(self=<urllib2.OpenerDirector instance>, fullurl=<selenium.webdriver.remote.remote_connection.Request instance>, data=None, timeout=<object object>)'
p455
sg91
S'open'
p456
sa(dp457
g68
S'/usr/lib/python2.7/urllib2.py'
p458
sg70
(dp459
S'req'
p460
S'<selenium.webdriver.remote.remote_connection.Request instance>'
p461
ssg76
I418
sg77
(dp462
I416
S'        protocol = req.get_type()'
p463
sI417
S'        result = self._call_chain(self.handle_open, protocol, protocol +'
p464
sI418
S"                                  '_open', req)"
p465
sI419
S'        if result:'
p466
sI420
S'            return result'
p467
sI421
S''
sI422
S"        return self._call_chain(self.handle_open, 'unknown',"
p468
sI413
S'        if result:'
p469
sI414
S'            return result'
p470
sI415
S''
ssg89
S'(self=<urllib2.OpenerDirector instance>, req=<selenium.webdriver.remote.remote_connection.Request instance>, data=None)'
p471
sg91
S'_open'
p472
sa(dp473
g68
S'/usr/lib/python2.7/urllib2.py'
p474
sg70
(dp475
S'args'
p476
S'(<selenium.webdriver.remote.remote_connection.Request instance>,)'
p477
sS'result'
p478
g113
sS'func'
p479
S'<bound method HTTPHandler.http_open of <urllib2.HTTPHandler instance>>'
p480
ssg76
I378
sg77
(dp481
I373
S'        # could.  Otherwise, they return the response.'
p482
sI374
S'        handlers = chain.get(kind, ())'
p483
sI375
S'        for handler in handlers:'
p484
sI376
S'            func = getattr(handler, meth_name)'
p485
sI377
S''
sI378
S'            result = func(*args)'
p486
sI379
S'            if result is not None:'
p487
sI380
S'                return result'
p488
sI381
S''
sI382
S'    def open(self, fullurl, data=None, timeout=socket._GLOBAL_DEFAULT_TIMEOUT):'
p489
ssg89
S"(self=<urllib2.OpenerDirector instance>, chain={'file': [<urllib2.FileHandler instance>], 'ftp': [<urllib2.FTPHandler instance>], 'http': [<urllib2.HTTPHandler instance>], 'https': [<urllib2.HTTPSHandler instance>], 'unknown': [<urllib2.UnknownHandler instance>]}, kind=u'http', meth_name=u'http_open', *args=(<selenium.webdriver.remote.remote_connection.Request instance>,))"
p490
sg91
S'_call_chain'
p491
sa(dp492
g68
S'/usr/lib/python2.7/urllib2.py'
p493
sg70
(dp494
S'self'
p495
S'<urllib2.HTTPHandler instance>'
p496
sS'req'
p497
S'<selenium.webdriver.remote.remote_connection.Request instance>'
p498
sS'global httplib'
p499
S"<module 'httplib' from '/usr/lib/python2.7/httplib.pyc'>"
p500
sS'self.do_open'
p501
S'<bound method HTTPHandler.do_open of <urllib2.HTTPHandler instance>>'
p502
sS'httplib.HTTPConnection'
p503
S'<class httplib.HTTPConnection>'
p504
ssg76
I1207
sg77
(dp505
I1202
S''
sI1203
S''
sI1204
S'class HTTPHandler(AbstractHTTPHandler):'
p506
sI1205
S''
sI1206
S'    def http_open(self, req):'
p507
sI1207
S'        return self.do_open(httplib.HTTPConnection, req)'
p508
sI1208
S''
sI1209
S'    http_request = AbstractHTTPHandler.do_request_'
p509
sI1210
S''
sI1211
S"if hasattr(httplib, 'HTTPS'):"
p510
ssg89
S'(self=<urllib2.HTTPHandler instance>, req=<selenium.webdriver.remote.remote_connection.Request instance>)'
p511
sg91
S'http_open'
p512
sa(dp513
g68
S'/usr/lib/python2.7/urllib2.py'
p514
sg70
(dp515
S'h'
S'<httplib.HTTPConnection instance>'
p516
sS'buffering'
p517
g113
sS'r'
g113
sS'builtinTrue'
p518
S'True'
p519
sS'h.getresponse'
p520
S'<bound method HTTPConnection.getresponse of <httplib.HTTPConnection instance>>'
p521
ssg76
I1180
sg77
(dp522
I1184
S'        # Pick apart the HTTPResponse object to get the addinfourl'
p523
sI1175
S'        except socket.error, err: # XXX what error?'
p524
sI1176
S'            h.close()'
p525
sI1177
S'            raise URLError(err)'
p526
sI1178
S'        else:'
p527
sI1179
S'            try:'
p528
sI1180
S'                r = h.getresponse(buffering=True)'
p529
sI1181
S'            except TypeError: # buffering kw not supported'
p530
sI1182
S'                r = h.getresponse()'
p531
sI1183
S''
ssg89
S'(self=<urllib2.HTTPHandler instance>, http_class=<class httplib.HTTPConnection>, req=<selenium.webdriver.remote.remote_connection.Request instance>)'
p532
sg91
S'do_open'
p533
sa(dp534
g68
S'/usr/lib/python2.7/httplib.py'
p535
sg70
(dp536
S'response.begin'
p537
S'<bound method HTTPResponse.begin of <httplib.HTTPResponse instance>>'
p538
sS'response'
p539
S'<httplib.HTTPResponse instance>'
p540
ssg76
I1030
sg77
(dp541
I1025
S'            #only add this keyword if non-default, for compatibility with'
p542
sI1026
S'            #other response_classes.'
p543
sI1027
S'            kwds["buffering"] = True;'
p544
sI1028
S'        response = self.response_class(*args, **kwds)'
p545
sI1029
S''
sI1030
S'        response.begin()'
p546
sI1031
S'        assert response.will_close != _UNKNOWN'
p547
sI1032
S'        self.__state = _CS_IDLE'
p548
sI1033
S''
sI1034
S'        if response.will_close:'
p549
ssg89
S'(self=<httplib.HTTPConnection instance>, buffering=True)'
p550
sg91
S'getresponse'
p551
sa(dp552
g68
S'/usr/lib/python2.7/httplib.py'
p553
sg70
(dp554
S'status'
p555
g113
sS'reason'
p556
g113
sS'version'
p557
g113
sS'self'
p558
S'<httplib.HTTPResponse instance>'
p559
sS'self._read_status'
p560
S'<bound method HTTPResponse._read_status of <httplib.HTTPResponse instance>>'
p561
ssg76
I407
sg77
(dp562
I402
S"            # we've already started reading the response"
p563
sI403
S'            return'
p564
sI404
S''
sI405
S'        # read until we get a non-100 response'
p565
sI406
S'        while True:'
p566
sI407
S'            version, status, reason = self._read_status()'
p567
sI408
S'            if status != CONTINUE:'
p568
sI409
S'                break'
p569
sI410
S'            # skip the header from the 100 response'
p570
sI411
S'            while True:'
p571
ssg89
S'(self=<httplib.HTTPResponse instance>)'
p572
sg91
S'begin'
p573
sa(dp574
g68
S'/usr/lib/python2.7/httplib.py'
p575
sg70
(dp576
S'line'
p577
S"''"
p578
sS'global BadStatusLine'
p579
S"<class 'httplib.BadStatusLine'>"
p580
ssg76
I371
sg77
(dp581
I366
S'        if self.debuglevel > 0:'
p582
sI367
S'            print "reply:", repr(line)'
p583
sI368
S'        if not line:'
p584
sI369
S'            # Presumably, the server closed the connection before'
p585
sI370
S'            # sending a valid response.'
p586
sI371
S'            raise BadStatusLine(line)'
p587
sI372
S'        try:'
p588
sI373
S'            [version, status, reason] = line.split(None, 2)'
p589
sI374
S'        except ValueError:'
p590
sI375
S'            try:'
p591
ssg89
S'(self=<httplib.HTTPResponse instance>)'
p592
sg91
S'_read_status'
p593
sasS'pyver'
p594
S'Python 2.7.3: /usr/bin/python (prefix: /usr)'
p595
sS'session'
p596
g63
(S's\x1a\x00\x00\x00<div><table></table></div>'
tRp597
sS'etype'
p598
S"<class 'httplib.BadStatusLine'>"
p599
sS'date'
p600
S'Mon Sep 30 14:27:45 2013'
p601
sS'response'
p602
g63
(S's\xac,\x00\x00<div><table><tr><td style="font-weight:bold;vertical-align:top">body</td><td valign="top">:</td><td><div>&lt;cStringIO.StringO object at 0x7f9a5c3ab458&gt;</div></td></tr><tr><td style="font-weight:bold;vertical-align:top">cookies</td><td valign="top">:</td><td><div><table><tr><td style="font-weight:bold;vertical-align:top">session_id_testapp</td><td valign="top">:</td><td><div>127.0.0.1-6a3d0021-f0d7-44c0-9410-74aa38cd4103<table><tr><td style="font-weight:bold;vertical-align:top">comment</td><td valign="top">:</td><td><div></div></td></tr><tr><td style="font-weight:bold;vertical-align:top">domain</td><td valign="top">:</td><td><div></div></td></tr><tr><td style="font-weight:bold;vertical-align:top">expires</td><td valign="top">:</td><td><div></div></td></tr><tr><td style="font-weight:bold;vertical-align:top">httponly</td><td valign="top">:</td><td><div></div></td></tr><tr><td style="font-weight:bold;vertical-align:top">max-age</td><td valign="top">:</td><td><div></div></td></tr><tr><td style="font-weight:bold;vertical-align:top">path</td><td valign="top">:</td><td><div>/</div></td></tr><tr><td style="font-weight:bold;vertical-align:top">secure</td><td valign="top">:</td><td><div></div></td></tr><tr><td style="font-weight:bold;vertical-align:top">version</td><td valign="top">:</td><td><div></div></td></tr></table></div></td></tr></table></div></td></tr><tr><td style="font-weight:bold;vertical-align:top">delimiters</td><td valign="top">:</td><td><div><table><tr><td><div>{{</div></td></tr><tr><td><div>}}</div></td></tr></table></div></td></tr><tr><td style="font-weight:bold;vertical-align:top">files</td><td valign="top">:</td><td><div><table></table></div></td></tr><tr><td style="font-weight:bold;vertical-align:top">flash</td><td valign="top">:</td><td><div>Success!</div></td></tr><tr><td style="font-weight:bold;vertical-align:top">generic_patterns</td><td valign="top">:</td><td><div><table></table></div></td></tr><tr><td style="font-weight:bold;vertical-align:top">google_analytics_id</td><td valign="top">:</td><td><div>None</div></td></tr><tr><td style="font-weight:bold;vertical-align:top">headers</td><td valign="top">:</td><td><div><table><tr><td style="font-weight:bold;vertical-align:top">X-Powered-By</td><td valign="top">:</td><td><div>web2py</div></td></tr></table></div></td></tr><tr><td style="font-weight:bold;vertical-align:top">logo</td><td valign="top">:</td><td><div><a class="brand" href="http://www.web2py.com/"><b>web<span>2</span>py</b>&trade;&nbsp;</a></div></td></tr><tr><td style="font-weight:bold;vertical-align:top">menu</td><td valign="top">:</td><td><div><table><tr><td><div><table><tr><td><div>Home</div></td></tr><tr><td><div>False</div></td></tr><tr><td><div>/testapp/default/index</div></td></tr><tr><td><div><table></table></div></td></tr></table></div></td></tr><tr><td><div><table><tr><td><div><span class="highlighted">web2py</span></div></td></tr><tr><td><div>False</div></td></tr><tr><td><div>http://web2py.com</div></td></tr><tr><td><div><table><tr><td><div><table><tr><td><div>My Sites</div></td></tr><tr><td><div>False</div></td></tr><tr><td><div>/admin/default/site</div></td></tr></table></div></td></tr><tr><td><div><table><tr><td><div>This App</div></td></tr><tr><td><div>False</div></td></tr><tr><td><div>/admin/default/design/testapp</div></td></tr><tr><td><div>[(&lt;lazyT &#x27;Controller&#x27;&gt;, False, &#x27;/admin/default/edit/testapp/controllers/default.py&#x27;), (&lt;lazyT &#x27;View&#x27;&gt;, False, &#x27;/admin/default/edit/testapp/views/default/unit_testing.html&#x27;), (&lt;lazyT &#x27;Layout&#x27;&gt;, False, &#x27;/admin/default/edit/testapp/views/layout.html&#x27;), (&lt;lazyT &#x27;Stylesheet&#x27;&gt;, False, &#x27;/admin/default/edit/testapp/static/css/web2py.css&#x27;), (&lt;lazyT &#x27;DB Model&#x27;&gt;, False, &#x27;/admin/default/edit/testapp/models/db.py&#x27;), (&lt;lazyT &#x27;Menu Model&#x27;&gt;, False, &#x27;/admin/default/edit/testapp/models/menu.py&#x27;), (&lt;lazyT &#x27;Database&#x27;&gt;, False, &#x27;/testapp/appadmin/index&#x27;), (&lt;lazyT &#x27;Errors&#x27;&gt;, False, &#x27;/admin/default/errors/testapp&#x27;), (&lt;lazyT &#x27;About&#x27;&gt;, False, &#x27;/admin/default/about/testapp&#x27;)]</div></td></tr></table></div></td></tr><tr><td><div><table><tr><td><div>web2py.com</div></td></tr><tr><td><div>False</div></td></tr><tr><td><div>http://www.web2py.com</div></td></tr><tr><td><div>[(&lt;lazyT &#x27;Download&#x27;&gt;, False, &#x27;http://www.web2py.com/examples/default/download&#x27;), (&lt;lazyT &#x27;Support&#x27;&gt;, False, &#x27;http://www.web2py.com/examples/default/support&#x27;), (&lt;lazyT &#x27;Demo&#x27;&gt;, False, &#x27;http://web2py.com/demo_admin&#x27;), (&lt;lazyT &#x27;Quick Examples&#x27;&gt;, False, &#x27;http://web2py.com/examples/default/examples&#x27;), (&lt;lazyT &#x27;FAQ&#x27;&gt;, False, &#x27;http://web2py.com/AlterEgo&#x27;), (&lt;lazyT &#x27;Videos&#x27;&gt;, False, &#x27;http://www.web2py.com/examples/default/videos/&#x27;), (&lt;lazyT &#x27;Free Applications&#x27;&gt;, False, &#x27;http://web2py.com/appliances&#x27;), (&lt;lazyT &#x27;Plugins&#x27;&gt;, False, &#x27;http://web2py.com/plugins&#x27;), (&lt;lazyT &#x27;Layouts&#x27;&gt;, False, &#x27;http://web2py.com/layouts&#x27;), (&lt;lazyT &#x27;Recipes&#x27;&gt;, False, &#x27;http://web2pyslices.com/&#x27;), (&lt;lazyT &#x27;Semantic&#x27;&gt;, False, &#x27;http://web2py.com/semantic&#x27;)]</div></td></tr></table></div></td></tr><tr><td><div><table><tr><td><div>Documentation</div></td></tr><tr><td><div>False</div></td></tr><tr><td><div>http://www.web2py.com/book</div></td></tr><tr><td><div>[(&lt;lazyT &#x27;Preface&#x27;&gt;, False, &#x27;http://www.web2py.com/book/default/chapter/00&#x27;), (&lt;lazyT &#x27;Introduction&#x27;&gt;, False, &#x27;http://www.web2py.com/book/default/chapter/01&#x27;), (&lt;lazyT &#x27;Python&#x27;&gt;, False, &#x27;http://www.web2py.com/book/default/chapter/02&#x27;), (&lt;lazyT &#x27;Overview&#x27;&gt;, False, &#x27;http://www.web2py.com/book/default/chapter/03&#x27;), (&lt;lazyT &#x27;The Core&#x27;&gt;, False, &#x27;http://www.web2py.com/book/default/chapter/04&#x27;), (&lt;lazyT &#x27;The Views&#x27;&gt;, False, &#x27;http://www.web2py.com/book/default/chapter/05&#x27;), (&lt;lazyT &#x27;Database&#x27;&gt;, False, &#x27;http://www.web2py.com/book/default/chapter/06&#x27;), (&lt;lazyT &#x27;Forms and Validators&#x27;&gt;, False, &#x27;http://www.web2py.com/book/default/chapter/07&#x27;), (&lt;lazyT &#x27;Email and SMS&#x27;&gt;, False, &#x27;http://www.web2py.com/book/default/chapter/08&#x27;), (&lt;lazyT &#x27;Access Control&#x27;&gt;, False, &#x27;http://www.web2py.com/book/default/chapter/09&#x27;), (&lt;lazyT &#x27;Services&#x27;&gt;, False, &#x27;http://www.web2py.com/book/default/chapter/10&#x27;), (&lt;lazyT &#x27;Ajax Recipes&#x27;&gt;, False, &#x27;http://www.web2py.com/book/default/chapter/11&#x27;), (&lt;lazyT &#x27;Components and Plugins&#x27;&gt;, False, &#x27;http://www.web2py.com/book/default/chapter/12&#x27;), (&lt;lazyT &#x27;Deployment Recipes&#x27;&gt;, False, &#x27;http://www.web2py.com/book/default/chapter/13&#x27;), (&lt;lazyT &#x27;Other Recipes&#x27;&gt;, False, &#x27;http://www.web2py.com/book/default/chapter/14&#x27;), (&lt;lazyT &#x27;Buy this book&#x27;&gt;, False, &#x27;http://stores.lulu.com/web2py&#x27;)]</div></td></tr></table></div></td></tr><tr><td><div><table><tr><td><div>Community</div></td></tr><tr><td><div>False</div></td></tr><tr><td><div>None</div></td></tr><tr><td><div>[(&lt;lazyT &#x27;Groups&#x27;&gt;, False, &#x27;http://www.web2py.com/examples/default/usergroups&#x27;), (&lt;lazyT &#x27;Twitter&#x27;&gt;, False, &#x27;http://twitter.com/web2py&#x27;), (&lt;lazyT &#x27;Live Chat&#x27;&gt;, False, &#x27;http://webchat.freenode.net/?channels=web2py&#x27;)]</div></td></tr></table></div></td></tr><tr><td><div><table><tr><td><div>Plugins</div></td></tr><tr><td><div>False</div></td></tr><tr><td><div>None</div></td></tr><tr><td><div>[(&#x27;plugin_wiki&#x27;, False, &#x27;http://web2py.com/examples/default/download&#x27;), (&lt;lazyT &#x27;Other Plugins&#x27;&gt;, False, &#x27;http://web2py.com/plugins&#x27;), (&lt;lazyT &#x27;Layout Plugins&#x27;&gt;, False, &#x27;http://web2py.com/layouts&#x27;)]</div></td></tr></table></div></td></tr></table></div></td></tr></table></div></td></tr></table></div></td></tr><tr><td style="font-weight:bold;vertical-align:top">meta</td><td valign="top">:</td><td><div><table><tr><td style="font-weight:bold;vertical-align:top">author</td><td valign="top">:</td><td><div>Your Name &lt;you@example.com&gt;</div></td></tr><tr><td style="font-weight:bold;vertical-align:top">description</td><td valign="top">:</td><td><div>a cool new app</div></td></tr><tr><td style="font-weight:bold;vertical-align:top">generator</td><td valign="top">:</td><td><div>Web2py Web Framework</div></td></tr><tr><td style="font-weight:bold;vertical-align:top">keywords</td><td valign="top">:</td><td><div>web2py, python, framework</div></td></tr></table></div></td></tr><tr><td style="font-weight:bold;vertical-align:top">models_to_run</td><td valign="top">:</td><td><div><table><tr><td><div>^\\w+\\.py$</div></td></tr><tr><td><div>^default/\\w+\\.py$</div></td></tr><tr><td><div>^default/unit_testing/\\w+\\.py$</div></td></tr></table></div></td></tr><tr><td style="font-weight:bold;vertical-align:top">postprocessing</td><td valign="top">:</td><td><div><table></table></div></td></tr><tr><td style="font-weight:bold;vertical-align:top">session_cookie_expires</td><td valign="top">:</td><td><div>None</div></td></tr><tr><td style="font-weight:bold;vertical-align:top">session_data_name</td><td valign="top">:</td><td><div>session_data_testapp</div></td></tr><tr><td style="font-weight:bold;vertical-align:top">session_file</td><td valign="top">:</td><td><div>&lt;open file &#x27;/home/baadalvm/Desktop/web2py/applications/testapp/sessions/127.0.0.1-6a3d0021-f0d7-44c0-9410-74aa38cd4103&#x27;, mode &#x27;rb+&#x27; at 0x7f9a4c62bc90&gt;</div></td></tr><tr><td style="font-weight:bold;vertical-align:top">session_filename</td><td valign="top">:</td><td><div>/home/baadalvm/Desktop/web2py/applications/testapp/sessions/127.0.0.1-6a3d0021-f0d7-44c0-9410-74aa38cd4103</div></td></tr><tr><td style="font-weight:bold;vertical-align:top">session_id</td><td valign="top">:</td><td><div>127.0.0.1-6a3d0021-f0d7-44c0-9410-74aa38cd4103</div></td></tr><tr><td style="font-weight:bold;vertical-align:top">session_id_name</td><td valign="top">:</td><td><div>session_id_testapp</div></td></tr><tr><td style="font-weight:bold;vertical-align:top">session_locked</td><td valign="top">:</td><td><div>True</div></td></tr><tr><td style="font-weight:bold;vertical-align:top">session_new</td><td valign="top">:</td><td><div>False</div></td></tr><tr><td style="font-weight:bold;vertical-align:top">session_storage_type</td><td valign="top">:</td><td><div>file</div></td></tr><tr><td style="font-weight:bold;vertical-align:top">status</td><td valign="top">:</td><td><div>200</div></td></tr><tr><td style="font-weight:bold;vertical-align:top">subtitle</td><td valign="top">:</td><td><div>customize me!</div></td></tr><tr><td style="font-weight:bold;vertical-align:top">title</td><td valign="top">:</td><td><div>Testapp</div></td></tr><tr><td style="font-weight:bold;vertical-align:top">view</td><td valign="top">:</td><td><div>default/unit_testing.html</div></td></tr></table></div>'
tRp603
sS'locals'
p604
(dp605
S'self'
p606
S'<httplib.HTTPResponse instance>'
p607
sg50
S"''"
p608
sssS'traceback'
p609
S'Traceback (most recent call last):\n  File "/home/baadalvm/Desktop/web2py/gluon/restricted.py", line 212, in restricted\n    exec ccode in environment\n  File "/home/baadalvm/Desktop/web2py/applications/testapp/controllers/default.py", line 224, in <module>\n  File "/home/baadalvm/Desktop/web2py/gluon/globals.py", line 194, in <lambda>\n    self._caller = lambda f: f()\n  File "/home/baadalvm/Desktop/web2py/applications/testapp/controllers/default.py", line 134, in unit_testing\n    test_script(test_case_no)\n  File "/home/baadalvm/Desktop/web2py/applications/testapp/models/test.py", line 167, in test_script\n    vm_name2=isImage(driver,xml_child,xml_sub_child,table_path)\n  File "/home/baadalvm/Desktop/web2py/applications/testapp/models/test.py", line 691, in isImage\n    vm_running(xml_child,xml_sub_child,driver)\n  File "/home/baadalvm/Desktop/web2py/applications/testapp/models/test.py", line 426, in vm_running\n    check_operation(driver,xml_child,xml_sub_child,vm_name,vm_id)\n  File "/home/baadalvm/Desktop/web2py/applications/testapp/models/test.py", line 305, in check_operation\n    click_on_operation(driver,xml_sub_child,xml_child,vm_name,vm_id)\n  File "/home/baadalvm/Desktop/web2py/applications/testapp/models/test.py", line 383, in click_on_operation\n    add_user(driver,xml_sub_child,xml_child,vm_name,vm_id)\n  File "/home/baadalvm/Desktop/web2py/applications/testapp/models/test.py", line 294, in add_user\n    isButton_add(driver, xml_sub_child,val)\n  File "/home/baadalvm/Desktop/web2py/applications/testapp/models/test.py", line 671, in isButton_add\n    driver.find_element_by_xpath(value).click()\n  File "/usr/local/lib/python2.7/dist-packages/selenium/webdriver/remote/webdriver.py", line 222, in find_element_by_xpath\n    return self.find_element(by=By.XPATH, value=xpath)\n  File "/usr/local/lib/python2.7/dist-packages/selenium/webdriver/remote/webdriver.py", line 680, in find_element\n    {\'using\': by, \'value\': value})[\'value\']\n  File "/usr/local/lib/python2.7/dist-packages/selenium/webdriver/remote/webdriver.py", line 163, in execute\n    response = self.command_executor.execute(driver_command, params)\n  File "/usr/local/lib/python2.7/dist-packages/selenium/webdriver/remote/remote_connection.py", line 349, in execute\n    return self._request(url, method=command_info[0], data=data)\n  File "/usr/local/lib/python2.7/dist-packages/selenium/webdriver/remote/remote_connection.py", line 396, in _request\n    response = opener.open(request)\n  File "/usr/lib/python2.7/urllib2.py", line 400, in open\n    response = self._open(req, data)\n  File "/usr/lib/python2.7/urllib2.py", line 418, in _open\n    \'_open\', req)\n  File "/usr/lib/python2.7/urllib2.py", line 378, in _call_chain\n    result = func(*args)\n  File "/usr/lib/python2.7/urllib2.py", line 1207, in http_open\n    return self.do_open(httplib.HTTPConnection, req)\n  File "/usr/lib/python2.7/urllib2.py", line 1180, in do_open\n    r = h.getresponse(buffering=True)\n  File "/usr/lib/python2.7/httplib.py", line 1030, in getresponse\n    response.begin()\n  File "/usr/lib/python2.7/httplib.py", line 407, in begin\n    version, status, reason = self._read_status()\n  File "/usr/lib/python2.7/httplib.py", line 371, in _read_status\n    raise BadStatusLine(line)\nBadStatusLine: \'\'\n'
p610
s.