(dp1
S'output'
p2
S"<class 'selenium.common.exceptions.WebDriverException'> Message: 'The browser appears to have exited before we could connect. The output was: *** LOG addons.xpi: startup\\n*** LOG addons.xpi: checkForChanges\\n*** LOG addons.xpi: No changes found\\n*** Blocklist::_loadBlocklistFromFile: blocklist is disabled\\n' "
p3
sS'layer'
p4
S'/home/monika/Desktop/web2py/applications/todo/controllers/default.py'
p5
sS'code'
p6
S'# -*- coding: utf-8 -*-\n# this file is released under public domain and you can use without limitations\n\n#########################################################################\n## This is a sample controller\n## - index is the default action of any application\n## - user is required for authentication and authorization\n## - download is for downloading files uploaded in the db (does streaming)\n## - call exposes all registered services (none by default)\n#########################################################################\n\n\n\n\n\ndef index():\n    """\n    example action using the internationalization operator T and flash\n    rendered by views/default/index.html or views/generic.html\n\n    if you need a simple wiki simple replace the two lines below with:\n    return auth.wiki()\n    """\n    response.flash = T("Welcome to web2py!")\n    return dict(message=T(\'Hello World\'))\n\n\ndef user():\n    """\n    exposes:\n    http://..../[app]/default/user/login\n    http://..../[app]/default/user/logout\n    http://..../[app]/default/user/register\n    http://..../[app]/default/user/profile\n    http://..../[app]/default/user/retrieve_password\n    http://..../[app]/default/user/change_password\n    http://..../[app]/default/user/manage_users (requires membership in \n    use @auth.requires_login()\n        @auth.requires_membership(\'group name\')\n        @auth.requires_permission(\'read\',\'table name\',record_id)\n    to decorate functions that need access control\n    """\n    return dict(form=auth())\n\n@cache.action()\ndef download():\n    """\n    allows downloading of uploaded files\n    http://..../[app]/default/download/[filename]\n    """\n    return response.download(request, db)\n\n\ndef call():\n    """\n    exposes services. for example:\n    http://..../[app]/default/call/jsonrpc\n    decorate with @services.jsonrpc the functions to expose\n    supports xml, json, xmlrpc, jsonrpc, amfrpc, rss, csv\n    """\n    return service()\n\n\n@auth.requires_signature()\ndef data():\n    """\n    http://..../[app]/default/data/tables\n    http://..../[app]/default/data/create/[table]\n    http://..../[app]/default/data/read/[table]/[id]\n    http://..../[app]/default/data/update/[table]/[id]\n    http://..../[app]/default/data/delete/[table]/[id]\n    http://..../[app]/default/data/select/[table]\n    http://..../[app]/default/data/search/[table]\n    but URLs must be signed, i.e. linked with\n      A(\'table\',_href=URL(\'data/tables\',user_signature=True))\n    or with the signed load operator\n      LOAD(\'default\',\'data.load\',args=\'tables\',ajax=True,user_signature=True)\n    """\n    return dict(form=crud())\n    \n    \n    \ndef display_form():\n    import commands\n    form = FORM(\n                  TABLE\n                  (   TR(A(B(H3(\'Choose the test cases to be executed:\')))),\n                      TR(\'Login\',INPUT(_name=\'testcase1\', _type=\'checkbox\', _value="1")),\n                      TR(\'Request VM\',INPUT(_name=\'testcase2\', _type=\'checkbox\', _value="2")),\n                      TR(\'My VMs\',INPUT(_name=\'testcase3\', _type=\'checkbox\', _value="3")),\n                      TR(\'My Pending Tasks\',INPUT(_name=\'testcase4\', _type=\'checkbox\', _value="4")),\n                      TR(\'My Completed Tasks\',INPUT(_name=\'testcase5\', _type=\'checkbox\', _value="5")),\n                      TR(\'My Failed Taskss\',INPUT(_name=\'testcase6\', _type=\'checkbox\', _value="6")),\n                      TR(\'Pending Faculty-Level VM Approvals\',INPUT(_name=\'testcase7\', _type=\'checkbox\', _value="7")),\n                      TR(\'Pending Org-Level VM Approvals\',INPUT(_name=\'testcase8\', _type=\'checkbox\', _value="8")),\n                      TR(\'List All Org-Level VMs\',INPUT(_name=\'testcase9\', _type=\'checkbox\', _value="9")),\n                      TR(\'All VMs\',INPUT(_name=\'testcase10\', _type=\'checkbox\', _value="10")),\n                      TR(\'Host and VMs\',INPUT(_name=\'testcase11\', _type=\'checkbox\', _value="11")),\n                      TR(\'Pending Tasks\',INPUT(_name=\'testcase12\', _type=\'checkbox\', _value="12")),\n                      TR(\'Completed Tasks\',INPUT(_name=\'testcase13\', _type=\'checkbox\', _value="13")),\n                      TR(\'Failed Tasks\',INPUT(_name=\'testcase14\', _type=\'checkbox\', _value="14")),\n                      TR(\'Configure System: Add Host\',INPUT(_name=\'testcase15\', _type=\'checkbox\', _value="15")),\n                      TR(\'Configure System: Add Template\',INPUT(_name=\'testcase16\', _type=\'checkbox\', _value="16")),\n                      TR(\'Configure System: Add Datastore\',INPUT(_name=\'testcase17\', _type=\'checkbox\', _value="17")),\n                      TR(\'Checking Setting\',INPUT(_name=\'testcase18\', _type=\'checkbox\', _value="18")),\n                      TR(\'Configure System: Host Setting\',INPUT(_name=\'testcase19\', _type=\'checkbox\', _value="19")),\n                      TR(\'Configure System: Host table\',INPUT(_name=\'testcase20\', _type=\'checkbox\', _value="20")),\n                      \n                      BR(),\n                      TR(INPUT(_type=\'submit\',_value=\'submit\'))\n                  )\n              )\n              \n    if form.process().accepted:\n        for i in xrange(1,17):\n            arg=request.vars[\'testcase\'+str(i)]\n            if arg!=None:\n                \'\'\'b=commands.getoutput("python /home/monika/Desktop/test_copy2.py "+arg)\n                print b\'\'\'\n                ts(arg)\n    elif form.errors:\n        response.flash = \'form has errors\'\n    else:\n        response.flash = \'please fill the form\'\n    return dict(form=form)\n\nresponse._vars=response._caller(display_form)\n'
p7
sS'snapshot'
p8
(dp9
S'exception'
p10
(dp11
S'stacktrace'
p12
S'None'
p13
sS'__module__'
p14
S"'selenium.common.exceptions'"
p15
sS'__getslice__'
p16
S"<method-wrapper '__getslice__' of WebDriverException object>"
p17
sS'__str__'
p18
S'<bound method WebDriverException.__str__ of WebDriverException()>'
p19
sS'__reduce__'
p20
S'<built-in method __reduce__ of WebDriverException object>'
p21
sS'__dict__'
p22
S"{'msg': 'The browser appears to have exited before we cou...t::_loadBlocklistFromFile: blocklist is disabled\\n', 'screen': None, 'stacktrace': None}"
p23
sS'__sizeof__'
p24
S'<built-in method __sizeof__ of WebDriverException object>'
p25
sS'__weakref__'
p26
S'None'
p27
sS'__init__'
p28
S'<bound method WebDriverException.__init__ of WebDriverException()>'
p29
sS'__setattr__'
p30
S"<method-wrapper '__setattr__' of WebDriverException object>"
p31
sS'__reduce_ex__'
p32
S'<built-in method __reduce_ex__ of WebDriverException object>'
p33
sS'__new__'
p34
S'<built-in method __new__ of type object>'
p35
sS'__format__'
p36
S'<built-in method __format__ of WebDriverException object>'
p37
sS'__class__'
p38
S"<class 'selenium.common.exceptions.WebDriverException'>"
p39
sS'msg'
p40
S"'The browser appears to have exited before we cou...t::_loadBlocklistFromFile: blocklist is disabled\\n'"
p41
sS'__doc__'
p42
S'None'
p43
sS'__getitem__'
p44
S"<method-wrapper '__getitem__' of WebDriverException object>"
p45
sS'__setstate__'
p46
S'<built-in method __setstate__ of WebDriverException object>'
p47
sS'__getattribute__'
p48
S"<method-wrapper '__getattribute__' of WebDriverException object>"
p49
sS'screen'
p50
S'None'
p51
sS'args'
p52
S'()'
p53
sS'__subclasshook__'
p54
S'<built-in method __subclasshook__ of type object>'
p55
sS'__unicode__'
p56
S'<built-in method __unicode__ of WebDriverException object>'
p57
sS'__delattr__'
p58
S"<method-wrapper '__delattr__' of WebDriverException object>"
p59
sS'__repr__'
p60
S"<method-wrapper '__repr__' of WebDriverException object>"
p61
sS'__hash__'
p62
S"<method-wrapper '__hash__' of WebDriverException object>"
p63
ssS'evalue'
p64
S"Message: 'The browser appears to have exited before we could connect. The output was: *** LOG addons.xpi: startup\\n*** LOG addons.xpi: checkForChanges\\n*** LOG addons.xpi: No changes found\\n*** Blocklist::_loadBlocklistFromFile: blocklist is disabled\\n' "
p65
sS'request'
p66
cgluon.html
XML_unpickle
p67
(S's\x96`\x00\x00<div><table><tr><td style="font-weight:bold;vertical-align:top">ajax</td><td valign="top">:</td><td><div>False</div></td></tr><tr><td style="font-weight:bold;vertical-align:top">application</td><td valign="top">:</td><td><div>todo</div></td></tr><tr><td style="font-weight:bold;vertical-align:top">args</td><td valign="top">:</td><td><div><table></table></div></td></tr><tr><td style="font-weight:bold;vertical-align:top">body</td><td valign="top">:</td><td><div>&lt;open file &#x27;&lt;fdopen&gt;&#x27;, mode &#x27;w+b&#x27; at 0x7f7b986cf5d0&gt;</div></td></tr><tr><td style="font-weight:bold;vertical-align:top">cid</td><td valign="top">:</td><td><div>None</div></td></tr><tr><td style="font-weight:bold;vertical-align:top">client</td><td valign="top">:</td><td><div>127.0.0.1</div></td></tr><tr><td style="font-weight:bold;vertical-align:top">controller</td><td valign="top">:</td><td><div>default</div></td></tr><tr><td style="font-weight:bold;vertical-align:top">cookies</td><td valign="top">:</td><td><div><table><tr><td style="font-weight:bold;vertical-align:top">session_id_admin</td><td valign="top">:</td><td><div>127.0.0.1-bb913e5b-eba9-4ae6-9053-c2b5e63587b6<table><tr><td style="font-weight:bold;vertical-align:top">comment</td><td valign="top">:</td><td><div></div></td></tr><tr><td style="font-weight:bold;vertical-align:top">domain</td><td valign="top">:</td><td><div></div></td></tr><tr><td style="font-weight:bold;vertical-align:top">expires</td><td valign="top">:</td><td><div></div></td></tr><tr><td style="font-weight:bold;vertical-align:top">httponly</td><td valign="top">:</td><td><div></div></td></tr><tr><td style="font-weight:bold;vertical-align:top">max-age</td><td valign="top">:</td><td><div></div></td></tr><tr><td style="font-weight:bold;vertical-align:top">path</td><td valign="top">:</td><td><div></div></td></tr><tr><td style="font-weight:bold;vertical-align:top">secure</td><td valign="top">:</td><td><div></div></td></tr><tr><td style="font-weight:bold;vertical-align:top">version</td><td valign="top">:</td><td><div></div></td></tr></table></div></td></tr><tr><td style="font-weight:bold;vertical-align:top">session_id_test</td><td valign="top">:</td><td><div>127.0.0.1-5b24de29-7c8f-4f90-825d-5edfa5198cbb<table><tr><td style="font-weight:bold;vertical-align:top">comment</td><td valign="top">:</td><td><div></div></td></tr><tr><td style="font-weight:bold;vertical-align:top">domain</td><td valign="top">:</td><td><div></div></td></tr><tr><td style="font-weight:bold;vertical-align:top">expires</td><td valign="top">:</td><td><div></div></td></tr><tr><td style="font-weight:bold;vertical-align:top">httponly</td><td valign="top">:</td><td><div></div></td></tr><tr><td style="font-weight:bold;vertical-align:top">max-age</td><td valign="top">:</td><td><div></div></td></tr><tr><td style="font-weight:bold;vertical-align:top">path</td><td valign="top">:</td><td><div></div></td></tr><tr><td style="font-weight:bold;vertical-align:top">secure</td><td valign="top">:</td><td><div></div></td></tr><tr><td style="font-weight:bold;vertical-align:top">version</td><td valign="top">:</td><td><div></div></td></tr></table></div></td></tr><tr><td style="font-weight:bold;vertical-align:top">session_id_todo</td><td valign="top">:</td><td><div>127.0.0.1-0fdde0a8-fe60-43bb-8b54-07547c84079b<table><tr><td style="font-weight:bold;vertical-align:top">comment</td><td valign="top">:</td><td><div></div></td></tr><tr><td style="font-weight:bold;vertical-align:top">domain</td><td valign="top">:</td><td><div></div></td></tr><tr><td style="font-weight:bold;vertical-align:top">expires</td><td valign="top">:</td><td><div></div></td></tr><tr><td style="font-weight:bold;vertical-align:top">httponly</td><td valign="top">:</td><td><div></div></td></tr><tr><td style="font-weight:bold;vertical-align:top">max-age</td><td valign="top">:</td><td><div></div></td></tr><tr><td style="font-weight:bold;vertical-align:top">path</td><td valign="top">:</td><td><div></div></td></tr><tr><td style="font-weight:bold;vertical-align:top">secure</td><td valign="top">:</td><td><div></div></td></tr><tr><td style="font-weight:bold;vertical-align:top">version</td><td valign="top">:</td><td><div></div></td></tr></table></div></td></tr><tr><td style="font-weight:bold;vertical-align:top">session_id_welcome</td><td valign="top">:</td><td><div>127.0.0.1-ce3b3349-4298-4ef2-9eae-747b86d8bdf1<table><tr><td style="font-weight:bold;vertical-align:top">comment</td><td valign="top">:</td><td><div></div></td></tr><tr><td style="font-weight:bold;vertical-align:top">domain</td><td valign="top">:</td><td><div></div></td></tr><tr><td style="font-weight:bold;vertical-align:top">expires</td><td valign="top">:</td><td><div></div></td></tr><tr><td style="font-weight:bold;vertical-align:top">httponly</td><td valign="top">:</td><td><div></div></td></tr><tr><td style="font-weight:bold;vertical-align:top">max-age</td><td valign="top">:</td><td><div></div></td></tr><tr><td style="font-weight:bold;vertical-align:top">path</td><td valign="top">:</td><td><div></div></td></tr><tr><td style="font-weight:bold;vertical-align:top">secure</td><td valign="top">:</td><td><div></div></td></tr><tr><td style="font-weight:bold;vertical-align:top">version</td><td valign="top">:</td><td><div></div></td></tr></table></div></td></tr></table></div></td></tr><tr><td style="font-weight:bold;vertical-align:top">env</td><td valign="top">:</td><td><div><table><tr><td style="font-weight:bold;vertical-align:top">app_folders</td><td valign="top">:</td><td><div>set([&#x27;/home/monika/Desktop/web2py/applications/welcome/&#x27;, &#x27;/home/monika/Desktop/web2py/applications/admin/&#x27;, &#x27;/home/monika/Desktop/web2py/applications/todo/&#x27;, &#x27;/home/monika/Desktop/web2py/applications/test/&#x27;])</div></td></tr><tr><td style="font-weight:bold;vertical-align:top">applications_parent</td><td valign="top">:</td><td><div>/home/monika/Desktop/web2py</div></td></tr><tr><td style="font-weight:bold;vertical-align:top">cmd_args</td><td valign="top">:</td><td><div><table></table></div></td></tr><tr><td style="font-weight:bold;vertical-align:top">cmd_options</td><td valign="top">:</td><td><div>&lt;Values at 0x2cebe18: {&#x27;verbose&#x27;: False, &#x27;ip&#x27;: &#x27;127.0.0.1&#x27;, &#x27;with_scheduler&#x27;: False, &#x27;ips&#x27;: [&#x27;127.0.1.1&#x27;], &#x27;shutdown_timeout&#x27;: 5, &#x27;taskbar&#x27;: False, &#x27;with_coverage&#x27;: False, &#x27;port&#x27;: 8000, &#x27;maxthreads&#x27;: None, &#x27;softcron&#x27;: False, &#x27;server_name&#x27;: &#x27;dell-OptiPlex-7010&#x27;, &#x27;bpython&#x27;: False, &#x27;nogui&#x27;: False, &#x27;pid_filename&#x27;: &#x27;httpserver.pid&#x27;, &#x27;extcron&#x27;: False, &#x27;runcron&#x27;: False, &#x27;run_system_tests&#x27;: False, &#x27;test&#x27;: None, &#x27;folder&#x27;: &#x27;/home/monika/Desktop/web2py&#x27;, &#x27;config&#x27;: &#x27;&#x27;, &#x27;minthreads&#x27;: None, &#x27;winservice&#x27;: &#x27;&#x27;, &#x27;shell&#x27;: None, &#x27;run&#x27;: &#x27;&#x27;, &#x27;log_filename&#x27;: &#x27;httpserver.log&#x27;, &#x27;debuglevel&#x27;: 30, &#x27;args&#x27;: [&#x27;&#x27;], &#x27;socket_timeout&#x27;: 5, &#x27;ssl_ca_certificate&#x27;: None, &#x27;scheduler&#x27;: None, &#x27;profiler_filename&#x27;: None, &#x27;ssl_private_key&#x27;: &#x27;&#x27;, &#x27;scheduler_groups&#x27;: None, &#x27;password&#x27;: &#x27;aaa&#x27;, &#x27;request_queue_size&#x27;: 5, &#x27;ssl_certificate&#x27;: &#x27;&#x27;, &#x27;cronjob&#x27;: False, &#x27;numthreads&#x27;: None, &#x27;quiet&#x27;: False, &#x27;interfaces&#x27;: None, &#x27;import_models&#x27;: False, &#x27;timeout&#x27;: 10, &#x27;plain&#x27;: False, &#x27;nobanner&#x27;: False}&gt;</div></td></tr><tr><td style="font-weight:bold;vertical-align:top">content_length</td><td valign="top">:</td><td><div>443</div></td></tr><tr><td style="font-weight:bold;vertical-align:top">content_type</td><td valign="top">:</td><td><div>multipart/form-data; boundary=---------------------------1321293505981335532512340688</div></td></tr><tr><td style="font-weight:bold;vertical-align:top">db_sessions</td><td valign="top">:</td><td><div>set([])</div></td></tr><tr><td style="font-weight:bold;vertical-align:top">debugging</td><td valign="top">:</td><td><div>True</div></td></tr><tr><td style="font-weight:bold;vertical-align:top">gluon_parent</td><td valign="top">:</td><td><div>/home/monika/Desktop/web2py</div></td></tr><tr><td style="font-weight:bold;vertical-align:top">http_accept</td><td valign="top">:</td><td><div>text/html,application/xhtml+xml,application/xml;q=0.9,*/*;q=0.8</div></td></tr><tr><td style="font-weight:bold;vertical-align:top">http_accept_encoding</td><td valign="top">:</td><td><div>gzip, deflate</div></td></tr><tr><td style="font-weight:bold;vertical-align:top">http_accept_language</td><td valign="top">:</td><td><div>en-US,en;q=0.5</div></td></tr><tr><td style="font-weight:bold;vertical-align:top">http_cache_control</td><td valign="top">:</td><td><div>max-age=0</div></td></tr><tr><td style="font-weight:bold;vertical-align:top">http_connection</td><td valign="top">:</td><td><div>keep-alive</div></td></tr><tr><td style="font-weight:bold;vertical-align:top">http_content_length</td><td valign="top">:</td><td><div>443</div></td></tr><tr><td style="font-weight:bold;vertical-align:top">http_content_type</td><td valign="top">:</td><td><div>multipart/form-data; boundary=---------------------------1321293505981335532512340688</div></td></tr><tr><td style="font-weight:bold;vertical-align:top">http_cookie</td><td valign="top">:</td><td><div>session_id_test=127.0.0.1-5b24de29-7c8f-4f90-825d-5edfa5198cbb; session_id_todo=127.0.0.1-0fdde0a8-fe60-43bb-8b54-07547c84079b; session_id_admin=127.0.0.1-bb913e5b-eba9-4ae6-9053-c2b5e63587b6; session_id_welcome=127.0.0.1-ce3b3349-4298-4ef2-9eae-747b86d8bdf1</div></td></tr><tr><td style="font-weight:bold;vertical-align:top">http_host</td><td valign="top">:</td><td><div>127.0.0.1:8000</div></td></tr><tr><td style="font-weight:bold;vertical-align:top">http_referer</td><td valign="top">:</td><td><div>http://127.0.0.1:8000/todo/default/display_form</div></td></tr><tr><td style="font-weight:bold;vertical-align:top">http_user_agent</td><td valign="top">:</td><td><div>Mozilla/5.0 (X11; Ubuntu; Linux x86_64; rv:22.0) Gecko/20100101 Firefox/22.0</div></td></tr><tr><td style="font-weight:bold;vertical-align:top">is_jython</td><td valign="top">:</td><td><div>False</div></td></tr><tr><td style="font-weight:bold;vertical-align:top">is_pypy</td><td valign="top">:</td><td><div>False</div></td></tr><tr><td style="font-weight:bold;vertical-align:top">local_hosts</td><td valign="top">:</td><td><div><table><tr><td><div>127.0.1.1</div></td></tr><tr><td><div>::1</div></td></tr><tr><td><div>dell-OptiPlex-7010</div></td></tr><tr><td><div>::ffff:127.0.0.1</div></td></tr><tr><td><div>127.0.0.1</div></td></tr></table></div></td></tr><tr><td style="font-weight:bold;vertical-align:top">path_info</td><td valign="top">:</td><td><div>/todo/default/display_form</div></td></tr><tr><td style="font-weight:bold;vertical-align:top">query_string</td><td valign="top">:</td><td><div></div></td></tr><tr><td style="font-weight:bold;vertical-align:top">remote_addr</td><td valign="top">:</td><td><div>127.0.0.1</div></td></tr><tr><td style="font-weight:bold;vertical-align:top">remote_port</td><td valign="top">:</td><td><div>34133</div></td></tr><tr><td style="font-weight:bold;vertical-align:top">request_method</td><td valign="top">:</td><td><div>POST</div></td></tr><tr><td style="font-weight:bold;vertical-align:top">request_uri</td><td valign="top">:</td><td><div>/todo/default/display_form</div></td></tr><tr><td style="font-weight:bold;vertical-align:top">script_name</td><td valign="top">:</td><td><div></div></td></tr><tr><td style="font-weight:bold;vertical-align:top">server_name</td><td valign="top">:</td><td><div>dell-OptiPlex-7010</div></td></tr><tr><td style="font-weight:bold;vertical-align:top">server_port</td><td valign="top">:</td><td><div>8000</div></td></tr><tr><td style="font-weight:bold;vertical-align:top">server_protocol</td><td valign="top">:</td><td><div>HTTP/1.1</div></td></tr><tr><td style="font-weight:bold;vertical-align:top">server_software</td><td valign="top">:</td><td><div>Rocket 1.2.6</div></td></tr><tr><td style="font-weight:bold;vertical-align:top">web2py_path</td><td valign="top">:</td><td><div>/home/monika/Desktop/web2py</div></td></tr><tr><td style="font-weight:bold;vertical-align:top">web2py_version</td><td valign="top">:</td><td><div>2.5.1-stable+timestamp.2013.06.06.15.39.19</div></td></tr><tr><td style="font-weight:bold;vertical-align:top">wsgi_errors</td><td valign="top">:</td><td><div>&lt;open file &#x27;&lt;stderr&gt;&#x27;, mode &#x27;w&#x27; at 0x7f7ba220a270&gt;</div></td></tr><tr><td style="font-weight:bold;vertical-align:top">wsgi_file_wrapper</td><td valign="top">:</td><td><div>&lt;class wsgiref.util.FileWrapper at 0x2c25c18&gt;</div></td></tr><tr><td style="font-weight:bold;vertical-align:top">wsgi_input</td><td valign="top">:</td><td><div>&lt;socket._fileobject object at 0x7f7b986cd750&gt;</div></td></tr><tr><td style="font-weight:bold;vertical-align:top">wsgi_multiprocess</td><td valign="top">:</td><td><div>False</div></td></tr><tr><td style="font-weight:bold;vertical-align:top">wsgi_multithread</td><td valign="top">:</td><td><div>True</div></td></tr><tr><td style="font-weight:bold;vertical-align:top">wsgi_run_once</td><td valign="top">:</td><td><div>False</div></td></tr><tr><td style="font-weight:bold;vertical-align:top">wsgi_url_scheme</td><td valign="top">:</td><td><div>http</div></td></tr><tr><td style="font-weight:bold;vertical-align:top">wsgi_version</td><td valign="top">:</td><td><div><table><tr><td><div>1</div></td></tr><tr><td><div>0</div></td></tr></table></div></td></tr></table></div></td></tr><tr><td style="font-weight:bold;vertical-align:top">extension</td><td valign="top">:</td><td><div>html</div></td></tr><tr><td style="font-weight:bold;vertical-align:top">folder</td><td valign="top">:</td><td><div>/home/monika/Desktop/web2py/applications/todo/</div></td></tr><tr><td style="font-weight:bold;vertical-align:top">function</td><td valign="top">:</td><td><div>display_form</div></td></tr><tr><td style="font-weight:bold;vertical-align:top">get_vars</td><td valign="top">:</td><td><div><table></table></div></td></tr><tr><td style="font-weight:bold;vertical-align:top">global_settings</td><td valign="top">:</td><td><div><table><tr><td style="font-weight:bold;vertical-align:top">app_folders</td><td valign="top">:</td><td><div>set([&#x27;/home/monika/Desktop/web2py/applications/welcome/&#x27;, &#x27;/home/monika/Desktop/web2py/applications/admin/&#x27;, &#x27;/home/monika/Desktop/web2py/applications/todo/&#x27;, &#x27;/home/monika/Desktop/web2py/applications/test/&#x27;])</div></td></tr><tr><td style="font-weight:bold;vertical-align:top">applications_parent</td><td valign="top">:</td><td><div>/home/monika/Desktop/web2py</div></td></tr><tr><td style="font-weight:bold;vertical-align:top">cmd_args</td><td valign="top">:</td><td><div><table></table></div></td></tr><tr><td style="font-weight:bold;vertical-align:top">cmd_options</td><td valign="top">:</td><td><div>&lt;Values at 0x2cebe18: {&#x27;verbose&#x27;: False, &#x27;ip&#x27;: &#x27;127.0.0.1&#x27;, &#x27;with_scheduler&#x27;: False, &#x27;ips&#x27;: [&#x27;127.0.1.1&#x27;], &#x27;shutdown_timeout&#x27;: 5, &#x27;taskbar&#x27;: False, &#x27;with_coverage&#x27;: False, &#x27;port&#x27;: 8000, &#x27;maxthreads&#x27;: None, &#x27;softcron&#x27;: False, &#x27;server_name&#x27;: &#x27;dell-OptiPlex-7010&#x27;, &#x27;bpython&#x27;: False, &#x27;nogui&#x27;: False, &#x27;pid_filename&#x27;: &#x27;httpserver.pid&#x27;, &#x27;extcron&#x27;: False, &#x27;runcron&#x27;: False, &#x27;run_system_tests&#x27;: False, &#x27;test&#x27;: None, &#x27;folder&#x27;: &#x27;/home/monika/Desktop/web2py&#x27;, &#x27;config&#x27;: &#x27;&#x27;, &#x27;minthreads&#x27;: None, &#x27;winservice&#x27;: &#x27;&#x27;, &#x27;shell&#x27;: None, &#x27;run&#x27;: &#x27;&#x27;, &#x27;log_filename&#x27;: &#x27;httpserver.log&#x27;, &#x27;debuglevel&#x27;: 30, &#x27;args&#x27;: [&#x27;&#x27;], &#x27;socket_timeout&#x27;: 5, &#x27;ssl_ca_certificate&#x27;: None, &#x27;scheduler&#x27;: None, &#x27;profiler_filename&#x27;: None, &#x27;ssl_private_key&#x27;: &#x27;&#x27;, &#x27;scheduler_groups&#x27;: None, &#x27;password&#x27;: &#x27;aaa&#x27;, &#x27;request_queue_size&#x27;: 5, &#x27;ssl_certificate&#x27;: &#x27;&#x27;, &#x27;cronjob&#x27;: False, &#x27;numthreads&#x27;: None, &#x27;quiet&#x27;: False, &#x27;interfaces&#x27;: None, &#x27;import_models&#x27;: False, &#x27;timeout&#x27;: 10, &#x27;plain&#x27;: False, &#x27;nobanner&#x27;: False}&gt;</div></td></tr><tr><td style="font-weight:bold;vertical-align:top">db_sessions</td><td valign="top">:</td><td><div>set([])</div></td></tr><tr><td style="font-weight:bold;vertical-align:top">debugging</td><td valign="top">:</td><td><div>True</div></td></tr><tr><td style="font-weight:bold;vertical-align:top">gluon_parent</td><td valign="top">:</td><td><div>/home/monika/Desktop/web2py</div></td></tr><tr><td style="font-weight:bold;vertical-align:top">is_jython</td><td valign="top">:</td><td><div>False</div></td></tr><tr><td style="font-weight:bold;vertical-align:top">is_pypy</td><td valign="top">:</td><td><div>False</div></td></tr><tr><td style="font-weight:bold;vertical-align:top">local_hosts</td><td valign="top">:</td><td><div><table><tr><td><div>127.0.1.1</div></td></tr><tr><td><div>::1</div></td></tr><tr><td><div>dell-OptiPlex-7010</div></td></tr><tr><td><div>::ffff:127.0.0.1</div></td></tr><tr><td><div>127.0.0.1</div></td></tr></table></div></td></tr><tr><td style="font-weight:bold;vertical-align:top">web2py_version</td><td valign="top">:</td><td><div>2.5.1-stable+timestamp.2013.06.06.15.39.19</div></td></tr></table></div></td></tr><tr><td style="font-weight:bold;vertical-align:top">is_https</td><td valign="top">:</td><td><div>False</div></td></tr><tr><td style="font-weight:bold;vertical-align:top">is_local</td><td valign="top">:</td><td><div>True</div></td></tr><tr><td style="font-weight:bold;vertical-align:top">is_restful</td><td valign="top">:</td><td><div>False</div></td></tr><tr><td style="font-weight:bold;vertical-align:top">now</td><td valign="top">:</td><td><div>datetime.datetime(2013, 7, 29, 14, 53, 34, 525618)</div></td></tr><tr><td style="font-weight:bold;vertical-align:top">post_vars</td><td valign="top">:</td><td><div><table><tr><td style="font-weight:bold;vertical-align:top">testcase1</td><td valign="top">:</td><td><div>1</div></td></tr></table></div></td></tr><tr><td style="font-weight:bold;vertical-align:top">raw_args</td><td valign="top">:</td><td><div></div></td></tr><tr><td style="font-weight:bold;vertical-align:top">raw_extension</td><td valign="top">:</td><td><div>None</div></td></tr><tr><td style="font-weight:bold;vertical-align:top">url</td><td valign="top">:</td><td><div>/todo/default/display_form</div></td></tr><tr><td style="font-weight:bold;vertical-align:top">utcnow</td><td valign="top">:</td><td><div>datetime.datetime(2013, 7, 29, 9, 23, 34, 525655)</div></td></tr><tr><td style="font-weight:bold;vertical-align:top">uuid</td><td valign="top">:</td><td><div>todo/127.0.0.1.2013-07-29.14-53-34.68893779-3ac4-4dec-9dbf-a178c9cff922</div></td></tr><tr><td style="font-weight:bold;vertical-align:top">vars</td><td valign="top">:</td><td><div><table><tr><td style="font-weight:bold;vertical-align:top">testcase1</td><td valign="top">:</td><td><div>1</div></td></tr></table></div></td></tr><tr><td style="font-weight:bold;vertical-align:top">wsgi</td><td valign="top">:</td><td><div><table><tr><td style="font-weight:bold;vertical-align:top">environ</td><td valign="top">:</td><td><div><table><tr><td style="font-weight:bold;vertical-align:top">CONTENT_LENGTH</td><td valign="top">:</td><td><div>443</div></td></tr><tr><td style="font-weight:bold;vertical-align:top">CONTENT_TYPE</td><td valign="top">:</td><td><div>multipart/form-data; boundary=---------------------------1321293505981335532512340688</div></td></tr><tr><td style="font-weight:bold;vertical-align:top">HTTP_ACCEPT</td><td valign="top">:</td><td><div>text/html,application/xhtml+xml,application/xml;q=0.9,*/*;q=0.8</div></td></tr><tr><td style="font-weight:bold;vertical-align:top">HTTP_ACCEPT_ENCODING</td><td valign="top">:</td><td><div>gzip, deflate</div></td></tr><tr><td style="font-weight:bold;vertical-align:top">HTTP_ACCEPT_LANGUAGE</td><td valign="top">:</td><td><div>en-US,en;q=0.5</div></td></tr><tr><td style="font-weight:bold;vertical-align:top">HTTP_CACHE_CONTROL</td><td valign="top">:</td><td><div>max-age=0</div></td></tr><tr><td style="font-weight:bold;vertical-align:top">HTTP_CONNECTION</td><td valign="top">:</td><td><div>keep-alive</div></td></tr><tr><td style="font-weight:bold;vertical-align:top">HTTP_CONTENT_LENGTH</td><td valign="top">:</td><td><div>443</div></td></tr><tr><td style="font-weight:bold;vertical-align:top">HTTP_CONTENT_TYPE</td><td valign="top">:</td><td><div>multipart/form-data; boundary=---------------------------1321293505981335532512340688</div></td></tr><tr><td style="font-weight:bold;vertical-align:top">HTTP_COOKIE</td><td valign="top">:</td><td><div>session_id_test=127.0.0.1-5b24de29-7c8f-4f90-825d-5edfa5198cbb; session_id_todo=127.0.0.1-0fdde0a8-fe60-43bb-8b54-07547c84079b; session_id_admin=127.0.0.1-bb913e5b-eba9-4ae6-9053-c2b5e63587b6; session_id_welcome=127.0.0.1-ce3b3349-4298-4ef2-9eae-747b86d8bdf1</div></td></tr><tr><td style="font-weight:bold;vertical-align:top">HTTP_HOST</td><td valign="top">:</td><td><div>127.0.0.1:8000</div></td></tr><tr><td style="font-weight:bold;vertical-align:top">HTTP_REFERER</td><td valign="top">:</td><td><div>http://127.0.0.1:8000/todo/default/display_form</div></td></tr><tr><td style="font-weight:bold;vertical-align:top">HTTP_USER_AGENT</td><td valign="top">:</td><td><div>Mozilla/5.0 (X11; Ubuntu; Linux x86_64; rv:22.0) Gecko/20100101 Firefox/22.0</div></td></tr><tr><td style="font-weight:bold;vertical-align:top">PATH_INFO</td><td valign="top">:</td><td><div>/todo/default/display_form</div></td></tr><tr><td style="font-weight:bold;vertical-align:top">QUERY_STRING</td><td valign="top">:</td><td><div></div></td></tr><tr><td style="font-weight:bold;vertical-align:top">REMOTE_ADDR</td><td valign="top">:</td><td><div>127.0.0.1</div></td></tr><tr><td style="font-weight:bold;vertical-align:top">REMOTE_PORT</td><td valign="top">:</td><td><div>34133</div></td></tr><tr><td style="font-weight:bold;vertical-align:top">REQUEST_METHOD</td><td valign="top">:</td><td><div>POST</div></td></tr><tr><td style="font-weight:bold;vertical-align:top">REQUEST_URI</td><td valign="top">:</td><td><div>/todo/default/display_form</div></td></tr><tr><td style="font-weight:bold;vertical-align:top">SCRIPT_NAME</td><td valign="top">:</td><td><div></div></td></tr><tr><td style="font-weight:bold;vertical-align:top">SERVER_NAME</td><td valign="top">:</td><td><div>dell-OptiPlex-7010</div></td></tr><tr><td style="font-weight:bold;vertical-align:top">SERVER_PORT</td><td valign="top">:</td><td><div>8000</div></td></tr><tr><td style="font-weight:bold;vertical-align:top">SERVER_PROTOCOL</td><td valign="top">:</td><td><div>HTTP/1.1</div></td></tr><tr><td style="font-weight:bold;vertical-align:top">SERVER_SOFTWARE</td><td valign="top">:</td><td><div>Rocket 1.2.6</div></td></tr><tr><td style="font-weight:bold;vertical-align:top">wsgi.errors</td><td valign="top">:</td><td><div>&lt;open file &#x27;&lt;stderr&gt;&#x27;, mode &#x27;w&#x27; at 0x7f7ba220a270&gt;</div></td></tr><tr><td style="font-weight:bold;vertical-align:top">wsgi.file_wrapper</td><td valign="top">:</td><td><div>&lt;class wsgiref.util.FileWrapper at 0x2c25c18&gt;</div></td></tr><tr><td style="font-weight:bold;vertical-align:top">wsgi.input</td><td valign="top">:</td><td><div>&lt;open file &#x27;&lt;fdopen&gt;&#x27;, mode &#x27;w+b&#x27; at 0x7f7b986cf5d0&gt;</div></td></tr><tr><td style="font-weight:bold;vertical-align:top">wsgi.multiprocess</td><td valign="top">:</td><td><div>False</div></td></tr><tr><td style="font-weight:bold;vertical-align:top">wsgi.multithread</td><td valign="top">:</td><td><div>True</div></td></tr><tr><td style="font-weight:bold;vertical-align:top">wsgi.run_once</td><td valign="top">:</td><td><div>False</div></td></tr><tr><td style="font-weight:bold;vertical-align:top">wsgi.url_scheme</td><td valign="top">:</td><td><div>http</div></td></tr><tr><td style="font-weight:bold;vertical-align:top">wsgi.version</td><td valign="top">:</td><td><div>1</div></td></tr></table></div></td></tr></table></div></td></tr></table></div>'
tRp68
sS'frames'
p69
(lp70
(dp71
S'file'
p72
S'/home/monika/Desktop/web2py/gluon/restricted.py'
p73
sS'dump'
p74
(dp75
S'environment'
p76
S"{'A': <class 'gluon.html.A'>, 'ANY_OF': <class 'gluon.validators.ANY_OF'>, 'Auth': <class 'gluon.tools.Auth'>, 'B': <class 'gluon.html.B'>, 'BEAUTIFY': <class 'gluon.html.BEAUTIFY'>, 'BODY': <class 'gluon.html.BODY'>, 'BR': <class 'gluon.html.BR'>, 'BUTTON': <class 'gluon.html.BUTTON'>, 'CAT': <class 'gluon.html.CAT'>, 'CENTER': <class 'gluon.html.CENTER'>, ...}"
p77
sS'ccode'
p78
S'<code object <module> at 0x7f7b84266cb0, file "/...plications/todo/controllers/default.py", line 16>'
p79
ssS'lnum'
p80
I212
sS'lines'
p81
(dp82
I207
S'    try:'
p83
sI208
S'        if isinstance(code, types.CodeType):'
p84
sI209
S'            ccode = code'
p85
sI210
S'        else:'
p86
sI211
S'            ccode = compile2(code, layer)'
p87
sI212
S'        exec ccode in environment'
p88
sI213
S'    except HTTP:'
p89
sI214
S'        raise'
p90
sI215
S'    except RestrictedError:'
p91
sI216
S'        # do not encapsulate (obfuscate) the original RestrictedError'
p92
ssS'call'
p93
S"(code='# -*- coding: utf-8 -*-\\n# this file is released ...)\\n\\nresponse._vars=response._caller(display_form)\\n', environment={'A': <class 'gluon.html.A'>, 'ANY_OF': <class 'gluon.validators.ANY_OF'>, 'Auth': <class 'gluon.tools.Auth'>, 'B': <class 'gluon.html.B'>, 'BEAUTIFY': <class 'gluon.html.BEAUTIFY'>, 'BODY': <class 'gluon.html.BODY'>, 'BR': <class 'gluon.html.BR'>, 'BUTTON': <class 'gluon.html.BUTTON'>, 'CAT': <class 'gluon.html.CAT'>, 'CENTER': <class 'gluon.html.CENTER'>, ...}, layer='/home/monika/Desktop/web2py/applications/todo/controllers/default.py')"
p94
sS'func'
p95
S'restricted'
p96
sa(dp97
g72
S'/home/monika/Desktop/web2py/applications/todo/controllers/default.py'
p98
sg74
(dp99
sg80
I127
sg81
(dp100
I116
S"            arg=request.vars['testcase'+str(i)]"
p101
sI117
S'            if arg!=None:'
p102
sI118
S'                \'\'\'b=commands.getoutput("python /home/monika/Desktop/test_copy2.py "+arg)'
p103
sI119
S"                print b'''"
p104
sI120
S'                ts(arg)'
p105
sI121
S'    elif form.errors:'
p106
sI122
S"        response.flash = 'form has errors'"
p107
sI123
S'    else:'
p108
sI124
S"        response.flash = 'please fill the form'"
p109
sI125
S'    return dict(form=form)'
p110
ssg93
S'()'
p111
sg95
S'<module>'
p112
sa(dp113
g72
S'/home/monika/Desktop/web2py/gluon/globals.py'
p114
sg74
(dp115
S'self'
p116
S'undefined'
p117
sS'f'
S'<function display_form>'
p118
ssg80
I194
sg81
(dp119
I192
S"        self.delimiters = ('{{', '}}')"
p120
sI193
S'        self._vars = None'
p121
sI194
S'        self._caller = lambda f: f()'
p122
sI195
S'        self._view_environment = None'
p123
sI196
S'        self._custom_commit = None'
p124
sI197
S'        self._custom_rollback = None'
p125
sI198
S''
sI189
S'        self.menu = []             # used by the default view layout'
p126
sI190
S'        self.files = []            # used by web2py_ajax.html'
p127
sI191
S'        self.generic_patterns = []  # patterns to allow generic views'
p128
ssg93
S'(f=<function display_form>)'
p129
sg95
S'<lambda>'
p130
sa(dp131
g72
S'/home/monika/Desktop/web2py/applications/todo/controllers/default.py'
p132
sg74
(dp133
S'global ts'
p134
S'<function ts>'
p135
sS'arg'
p136
S"'1'"
p137
ssg80
I120
sg81
(dp138
I115
S'        for i in xrange(1,17):'
p139
sI116
S"            arg=request.vars['testcase'+str(i)]"
p140
sI117
S'            if arg!=None:'
p141
sI118
S'                \'\'\'b=commands.getoutput("python /home/monika/Desktop/test_copy2.py "+arg)'
p142
sI119
S"                print b'''"
p143
sI120
S'                ts(arg)'
p144
sI121
S'    elif form.errors:'
p145
sI122
S"        response.flash = 'form has errors'"
p146
sI123
S'    else:'
p147
sI124
S"        response.flash = 'please fill the form'"
p148
ssg93
S'()'
p149
sg95
S'display_form'
p150
sa(dp151
g72
S'/home/monika/Desktop/web2py/applications/todo/models/test.py'
p152
sg74
(dp153
S'global webdriver'
p154
S"<module 'selenium.webdriver' from '/usr/local/li....33.0-py2.7.egg/selenium/webdriver/__init__.pyc'>"
p155
sS'driver'
p156
g117
sS'webdriver.Firefox'
p157
S"<class 'selenium.webdriver.firefox.webdriver.WebDriver'>"
p158
ssg80
I32
sg81
(dp159
I32
S'            driver = webdriver.Firefox()#connect to server'
p160
sI33
S'            driver.implicitly_wait(10)'
p161
sI34
S'            driver.get(root[i].get("url")) #url to the page to be hit'
p162
sI35
S'            driver.find_element_by_link_text(root[i].get("href")).click()'
p163
sI36
S'            for k in xrange(0,len(root[i][j])):'
p164
sI27
S'    if root[num-1].get("id")==str(b[0]):'
p165
sI28
S'        print num'
p166
sI29
S'        i=num-1'
p167
sI30
S'        for j in xrange(0,len(root[i])):'
p168
sI31
S'            logger = logging.getLogger(root[i].get("name"))# create logger'
p169
ssg93
S"(b='1')"
p170
sg95
S'ts'
p171
sa(dp172
g72
S'/usr/local/lib/python2.7/dist-packages/selenium-2.33.0-py2.7.egg/selenium/webdriver/firefox/webdriver.py'
p173
sg74
(dp174
S'self.binary'
p175
S'<selenium.webdriver.firefox.firefox_binary.FirefoxBinary object>'
p176
sS'self'
p177
S'<selenium.webdriver.firefox.webdriver.WebDriver object>'
p178
sS'timeout'
p179
S'30'
p180
ssg80
I61
sg81
(dp181
I64
S''
sI65
S'    def create_web_element(self, element_id):'
p182
sI56
S'            proxy.add_to_capabilities(capabilities)'
p183
sI57
S''
sI58
S''
sI59
S'        RemoteWebDriver.__init__(self,'
p184
sI60
S'            command_executor=ExtensionConnection("127.0.0.1", self.profile,'
p185
sI61
S'            self.binary, timeout),'
p186
sI62
S'            desired_capabilities=capabilities)'
p187
sI63
S'        self._is_remote = False'
p188
ssg93
S"(self=<selenium.webdriver.firefox.webdriver.WebDriver object>, firefox_profile=None, firefox_binary=None, timeout=30, capabilities={'browserName': 'firefox', 'javascriptEnabled': True, 'platform': 'ANY', 'version': ''}, proxy=None)"
p189
sg95
g28
sa(dp190
g72
S'/usr/local/lib/python2.7/dist-packages/selenium-2.33.0-py2.7.egg/selenium/webdriver/firefox/extension_connection.py'
p191
sg74
(dp192
S'self.binary'
p193
S'<selenium.webdriver.firefox.firefox_binary.FirefoxBinary object>'
p194
sS'self.binary.launch_browser'
p195
S'<bound method FirefoxBinary.launch_browser of <s...ver.firefox.firefox_binary.FirefoxBinary object>>'
p196
sS'self'
p197
S'<selenium.webdriver.firefox.extension_connection.ExtensionConnection object>'
p198
sS'self.profile'
p199
S'<selenium.webdriver.firefox.firefox_profile.FirefoxProfile object>'
p200
ssg80
I47
sg81
(dp201
I42
S'        self.profile.port = PORT'
p202
sI43
S'        self.profile.update_preferences()'
p203
sI44
S''
sI45
S'        self.profile.add_extension()'
p204
sI46
S''
sI47
S'        self.binary.launch_browser(self.profile)'
p205
sI48
S'        _URL = "http://%s:%d/hub" % (HOST, PORT)'
p206
sI49
S'        RemoteConnection.__init__('
p207
sI50
S'            self, _URL)'
p208
sI51
S''
ssg93
S"(self=<selenium.webdriver.firefox.extension_connection.ExtensionConnection object>, host='127.0.0.1', firefox_profile=<selenium.webdriver.firefox.firefox_profile.FirefoxProfile object>, firefox_binary=<selenium.webdriver.firefox.firefox_binary.FirefoxBinary object>, timeout=30)"
p209
sg95
g28
sa(dp210
g72
S'/usr/local/lib/python2.7/dist-packages/selenium-2.33.0-py2.7.egg/selenium/webdriver/firefox/firefox_binary.py'
p211
sg74
(dp212
S'self'
p213
S'<selenium.webdriver.firefox.firefox_binary.FirefoxBinary object>'
p214
sS'self._wait_until_connectable'
p215
S'<bound method FirefoxBinary._wait_until_connecta...ver.firefox.firefox_binary.FirefoxBinary object>>'
p216
ssg80
I51
sg81
(dp217
I46
S'        It is assumed the profile already exists.'
p218
sI47
S'        """'
p219
sI48
S'        self.profile = profile'
p220
sI49
S''
sI50
S'        self._start_from_profile_path(self.profile.path)'
p221
sI51
S'        self._wait_until_connectable()'
p222
sI52
S''
sI53
S'    def kill(self):'
p223
sI54
S'        """Kill the browser.'
p224
sI55
S''
ssg93
S'(self=<selenium.webdriver.firefox.firefox_binary.FirefoxBinary object>, profile=<selenium.webdriver.firefox.firefox_profile.FirefoxProfile object>)'
p225
sg95
S'launch_browser'
p226
sa(dp227
g72
S'/usr/local/lib/python2.7/dist-packages/selenium-2.33.0-py2.7.egg/selenium/webdriver/firefox/firefox_binary.py'
p228
sg74
(dp229
S'self'
p230
S'<selenium.webdriver.firefox.firefox_binary.FirefoxBinary object>'
p231
sS'self._get_firefox_output'
p232
S'<bound method FirefoxBinary._get_firefox_output ...ver.firefox.firefox_binary.FirefoxBinary object>>'
p233
ssg80
I90
sg81
(dp234
I85
S'        while not utils.is_connectable(self.profile.port):'
p235
sI86
S'            if self.process.poll() is not None:'
p236
sI87
S'                # Browser has exited'
p237
sI88
S'                raise WebDriverException("The browser appears to have exited "'
p238
sI89
S'                      "before we could connect. The output was: %s" %'
p239
sI90
S'                      self._get_firefox_output())'
p240
sI91
S'            if count == 30:'
p241
sI92
S'                self.kill()'
p242
sI93
S'                raise WebDriverException("Can\'t load the profile. Profile "'
p243
sI94
S'                      "Dir: %s Firefox output: %s" % ('
p244
ssg93
S'(self=<selenium.webdriver.firefox.firefox_binary.FirefoxBinary object>)'
p245
sg95
S'_wait_until_connectable'
p246
sasS'pyver'
p247
S'Python 2.7.3: /usr/bin/python (prefix: /usr)'
p248
sS'session'
p249
g67
(S's\x1a\x00\x00\x00<div><table></table></div>'
tRp250
sS'etype'
p251
S"<class 'selenium.common.exceptions.WebDriverException'>"
p252
sS'date'
p253
S'Mon Jul 29 15:04:23 2013'
p254
sS'response'
p255
g67
(S'su,\x00\x00<div><table><tr><td style="font-weight:bold;vertical-align:top">body</td><td valign="top">:</td><td><div>&lt;cStringIO.StringO object at 0x7f7b8843da78&gt;</div></td></tr><tr><td style="font-weight:bold;vertical-align:top">cookies</td><td valign="top">:</td><td><div><table><tr><td style="font-weight:bold;vertical-align:top">session_id_todo</td><td valign="top">:</td><td><div>127.0.0.1-0fdde0a8-fe60-43bb-8b54-07547c84079b<table><tr><td style="font-weight:bold;vertical-align:top">comment</td><td valign="top">:</td><td><div></div></td></tr><tr><td style="font-weight:bold;vertical-align:top">domain</td><td valign="top">:</td><td><div></div></td></tr><tr><td style="font-weight:bold;vertical-align:top">expires</td><td valign="top">:</td><td><div></div></td></tr><tr><td style="font-weight:bold;vertical-align:top">httponly</td><td valign="top">:</td><td><div></div></td></tr><tr><td style="font-weight:bold;vertical-align:top">max-age</td><td valign="top">:</td><td><div></div></td></tr><tr><td style="font-weight:bold;vertical-align:top">path</td><td valign="top">:</td><td><div>/</div></td></tr><tr><td style="font-weight:bold;vertical-align:top">secure</td><td valign="top">:</td><td><div></div></td></tr><tr><td style="font-weight:bold;vertical-align:top">version</td><td valign="top">:</td><td><div></div></td></tr></table></div></td></tr></table></div></td></tr><tr><td style="font-weight:bold;vertical-align:top">delimiters</td><td valign="top">:</td><td><div><table><tr><td><div>{{</div></td></tr><tr><td><div>}}</div></td></tr></table></div></td></tr><tr><td style="font-weight:bold;vertical-align:top">files</td><td valign="top">:</td><td><div><table></table></div></td></tr><tr><td style="font-weight:bold;vertical-align:top">flash</td><td valign="top">:</td><td><div>Success!</div></td></tr><tr><td style="font-weight:bold;vertical-align:top">generic_patterns</td><td valign="top">:</td><td><div><table></table></div></td></tr><tr><td style="font-weight:bold;vertical-align:top">google_analytics_id</td><td valign="top">:</td><td><div>None</div></td></tr><tr><td style="font-weight:bold;vertical-align:top">headers</td><td valign="top">:</td><td><div><table><tr><td style="font-weight:bold;vertical-align:top">X-Powered-By</td><td valign="top">:</td><td><div>web2py</div></td></tr></table></div></td></tr><tr><td style="font-weight:bold;vertical-align:top">logo</td><td valign="top">:</td><td><div><a class="brand" href="http://www.web2py.com/"><b>web<span>2</span>py</b>&trade;&nbsp;</a></div></td></tr><tr><td style="font-weight:bold;vertical-align:top">menu</td><td valign="top">:</td><td><div><table><tr><td><div><table><tr><td><div>Home</div></td></tr><tr><td><div>False</div></td></tr><tr><td><div>/todo/default/index</div></td></tr><tr><td><div><table></table></div></td></tr></table></div></td></tr><tr><td><div><table><tr><td><div><span class="highlighted">web2py</span></div></td></tr><tr><td><div>False</div></td></tr><tr><td><div>http://web2py.com</div></td></tr><tr><td><div><table><tr><td><div><table><tr><td><div>My Sites</div></td></tr><tr><td><div>False</div></td></tr><tr><td><div>/admin/default/site</div></td></tr></table></div></td></tr><tr><td><div><table><tr><td><div>This App</div></td></tr><tr><td><div>False</div></td></tr><tr><td><div>/admin/default/design/todo</div></td></tr><tr><td><div>[(&lt;lazyT &#x27;Controller&#x27;&gt;, False, &#x27;/admin/default/edit/todo/controllers/default.py&#x27;), (&lt;lazyT &#x27;View&#x27;&gt;, False, &#x27;/admin/default/edit/todo/views/default/display_form.html&#x27;), (&lt;lazyT &#x27;Layout&#x27;&gt;, False, &#x27;/admin/default/edit/todo/views/layout.html&#x27;), (&lt;lazyT &#x27;Stylesheet&#x27;&gt;, False, &#x27;/admin/default/edit/todo/static/css/web2py.css&#x27;), (&lt;lazyT &#x27;DB Model&#x27;&gt;, False, &#x27;/admin/default/edit/todo/models/db.py&#x27;), (&lt;lazyT &#x27;Menu Model&#x27;&gt;, False, &#x27;/admin/default/edit/todo/models/menu.py&#x27;), (&lt;lazyT &#x27;Database&#x27;&gt;, False, &#x27;/todo/appadmin/index&#x27;), (&lt;lazyT &#x27;Errors&#x27;&gt;, False, &#x27;/admin/default/errors/todo&#x27;), (&lt;lazyT &#x27;About&#x27;&gt;, False, &#x27;/admin/default/about/todo&#x27;)]</div></td></tr></table></div></td></tr><tr><td><div><table><tr><td><div>web2py.com</div></td></tr><tr><td><div>False</div></td></tr><tr><td><div>http://www.web2py.com</div></td></tr><tr><td><div>[(&lt;lazyT &#x27;Download&#x27;&gt;, False, &#x27;http://www.web2py.com/examples/default/download&#x27;), (&lt;lazyT &#x27;Support&#x27;&gt;, False, &#x27;http://www.web2py.com/examples/default/support&#x27;), (&lt;lazyT &#x27;Demo&#x27;&gt;, False, &#x27;http://web2py.com/demo_admin&#x27;), (&lt;lazyT &#x27;Quick Examples&#x27;&gt;, False, &#x27;http://web2py.com/examples/default/examples&#x27;), (&lt;lazyT &#x27;FAQ&#x27;&gt;, False, &#x27;http://web2py.com/AlterEgo&#x27;), (&lt;lazyT &#x27;Videos&#x27;&gt;, False, &#x27;http://www.web2py.com/examples/default/videos/&#x27;), (&lt;lazyT &#x27;Free Applications&#x27;&gt;, False, &#x27;http://web2py.com/appliances&#x27;), (&lt;lazyT &#x27;Plugins&#x27;&gt;, False, &#x27;http://web2py.com/plugins&#x27;), (&lt;lazyT &#x27;Layouts&#x27;&gt;, False, &#x27;http://web2py.com/layouts&#x27;), (&lt;lazyT &#x27;Recipes&#x27;&gt;, False, &#x27;http://web2pyslices.com/&#x27;), (&lt;lazyT &#x27;Semantic&#x27;&gt;, False, &#x27;http://web2py.com/semantic&#x27;)]</div></td></tr></table></div></td></tr><tr><td><div><table><tr><td><div>Documentation</div></td></tr><tr><td><div>False</div></td></tr><tr><td><div>http://www.web2py.com/book</div></td></tr><tr><td><div>[(&lt;lazyT &#x27;Preface&#x27;&gt;, False, &#x27;http://www.web2py.com/book/default/chapter/00&#x27;), (&lt;lazyT &#x27;Introduction&#x27;&gt;, False, &#x27;http://www.web2py.com/book/default/chapter/01&#x27;), (&lt;lazyT &#x27;Python&#x27;&gt;, False, &#x27;http://www.web2py.com/book/default/chapter/02&#x27;), (&lt;lazyT &#x27;Overview&#x27;&gt;, False, &#x27;http://www.web2py.com/book/default/chapter/03&#x27;), (&lt;lazyT &#x27;The Core&#x27;&gt;, False, &#x27;http://www.web2py.com/book/default/chapter/04&#x27;), (&lt;lazyT &#x27;The Views&#x27;&gt;, False, &#x27;http://www.web2py.com/book/default/chapter/05&#x27;), (&lt;lazyT &#x27;Database&#x27;&gt;, False, &#x27;http://www.web2py.com/book/default/chapter/06&#x27;), (&lt;lazyT &#x27;Forms and Validators&#x27;&gt;, False, &#x27;http://www.web2py.com/book/default/chapter/07&#x27;), (&lt;lazyT &#x27;Email and SMS&#x27;&gt;, False, &#x27;http://www.web2py.com/book/default/chapter/08&#x27;), (&lt;lazyT &#x27;Access Control&#x27;&gt;, False, &#x27;http://www.web2py.com/book/default/chapter/09&#x27;), (&lt;lazyT &#x27;Services&#x27;&gt;, False, &#x27;http://www.web2py.com/book/default/chapter/10&#x27;), (&lt;lazyT &#x27;Ajax Recipes&#x27;&gt;, False, &#x27;http://www.web2py.com/book/default/chapter/11&#x27;), (&lt;lazyT &#x27;Components and Plugins&#x27;&gt;, False, &#x27;http://www.web2py.com/book/default/chapter/12&#x27;), (&lt;lazyT &#x27;Deployment Recipes&#x27;&gt;, False, &#x27;http://www.web2py.com/book/default/chapter/13&#x27;), (&lt;lazyT &#x27;Other Recipes&#x27;&gt;, False, &#x27;http://www.web2py.com/book/default/chapter/14&#x27;), (&lt;lazyT &#x27;Buy this book&#x27;&gt;, False, &#x27;http://stores.lulu.com/web2py&#x27;)]</div></td></tr></table></div></td></tr><tr><td><div><table><tr><td><div>Community</div></td></tr><tr><td><div>False</div></td></tr><tr><td><div>None</div></td></tr><tr><td><div>[(&lt;lazyT &#x27;Groups&#x27;&gt;, False, &#x27;http://www.web2py.com/examples/default/usergroups&#x27;), (&lt;lazyT &#x27;Twitter&#x27;&gt;, False, &#x27;http://twitter.com/web2py&#x27;), (&lt;lazyT &#x27;Live Chat&#x27;&gt;, False, &#x27;http://webchat.freenode.net/?channels=web2py&#x27;)]</div></td></tr></table></div></td></tr><tr><td><div><table><tr><td><div>Plugins</div></td></tr><tr><td><div>False</div></td></tr><tr><td><div>None</div></td></tr><tr><td><div>[(&#x27;plugin_wiki&#x27;, False, &#x27;http://web2py.com/examples/default/download&#x27;), (&lt;lazyT &#x27;Other Plugins&#x27;&gt;, False, &#x27;http://web2py.com/plugins&#x27;), (&lt;lazyT &#x27;Layout Plugins&#x27;&gt;, False, &#x27;http://web2py.com/layouts&#x27;)]</div></td></tr></table></div></td></tr></table></div></td></tr></table></div></td></tr></table></div></td></tr><tr><td style="font-weight:bold;vertical-align:top">meta</td><td valign="top">:</td><td><div><table><tr><td style="font-weight:bold;vertical-align:top">author</td><td valign="top">:</td><td><div>Your Name &lt;you@example.com&gt;</div></td></tr><tr><td style="font-weight:bold;vertical-align:top">description</td><td valign="top">:</td><td><div>a cool new app</div></td></tr><tr><td style="font-weight:bold;vertical-align:top">generator</td><td valign="top">:</td><td><div>Web2py Web Framework</div></td></tr><tr><td style="font-weight:bold;vertical-align:top">keywords</td><td valign="top">:</td><td><div>web2py, python, framework</div></td></tr></table></div></td></tr><tr><td style="font-weight:bold;vertical-align:top">models_to_run</td><td valign="top">:</td><td><div><table><tr><td><div>^\\w+\\.py$</div></td></tr><tr><td><div>^default/\\w+\\.py$</div></td></tr><tr><td><div>^default/display_form/\\w+\\.py$</div></td></tr></table></div></td></tr><tr><td style="font-weight:bold;vertical-align:top">postprocessing</td><td valign="top">:</td><td><div><table></table></div></td></tr><tr><td style="font-weight:bold;vertical-align:top">session_cookie_expires</td><td valign="top">:</td><td><div>None</div></td></tr><tr><td style="font-weight:bold;vertical-align:top">session_data_name</td><td valign="top">:</td><td><div>session_data_todo</div></td></tr><tr><td style="font-weight:bold;vertical-align:top">session_file</td><td valign="top">:</td><td><div>&lt;open file &#x27;/home/monika/Desktop/web2py/applications/todo/sessions/127.0.0.1-0fdde0a8-fe60-43bb-8b54-07547c84079b&#x27;, mode &#x27;rb+&#x27; at 0x7f7b986cfb70&gt;</div></td></tr><tr><td style="font-weight:bold;vertical-align:top">session_filename</td><td valign="top">:</td><td><div>/home/monika/Desktop/web2py/applications/todo/sessions/127.0.0.1-0fdde0a8-fe60-43bb-8b54-07547c84079b</div></td></tr><tr><td style="font-weight:bold;vertical-align:top">session_id</td><td valign="top">:</td><td><div>127.0.0.1-0fdde0a8-fe60-43bb-8b54-07547c84079b</div></td></tr><tr><td style="font-weight:bold;vertical-align:top">session_id_name</td><td valign="top">:</td><td><div>session_id_todo</div></td></tr><tr><td style="font-weight:bold;vertical-align:top">session_locked</td><td valign="top">:</td><td><div>True</div></td></tr><tr><td style="font-weight:bold;vertical-align:top">session_new</td><td valign="top">:</td><td><div>False</div></td></tr><tr><td style="font-weight:bold;vertical-align:top">session_storage_type</td><td valign="top">:</td><td><div>file</div></td></tr><tr><td style="font-weight:bold;vertical-align:top">status</td><td valign="top">:</td><td><div>200</div></td></tr><tr><td style="font-weight:bold;vertical-align:top">subtitle</td><td valign="top">:</td><td><div>customize me!</div></td></tr><tr><td style="font-weight:bold;vertical-align:top">title</td><td valign="top">:</td><td><div>Todo</div></td></tr><tr><td style="font-weight:bold;vertical-align:top">view</td><td valign="top">:</td><td><div>default/display_form.html</div></td></tr></table></div>'
tRp256
sS'locals'
p257
(dp258
S'count'
p259
S'1'
sS'self'
p260
S'<selenium.webdriver.firefox.firefox_binary.FirefoxBinary object>'
p261
sssS'traceback'
p262
S'Traceback (most recent call last):\n  File "/home/monika/Desktop/web2py/gluon/restricted.py", line 212, in restricted\n    exec ccode in environment\n  File "/home/monika/Desktop/web2py/applications/todo/controllers/default.py", line 127, in <module>\n  File "/home/monika/Desktop/web2py/gluon/globals.py", line 194, in <lambda>\n    self._caller = lambda f: f()\n  File "/home/monika/Desktop/web2py/applications/todo/controllers/default.py", line 120, in display_form\n    ts(arg)\n  File "/home/monika/Desktop/web2py/applications/todo/models/test.py", line 32, in ts\n    driver = webdriver.Firefox()#connect to server\n  File "/usr/local/lib/python2.7/dist-packages/selenium-2.33.0-py2.7.egg/selenium/webdriver/firefox/webdriver.py", line 61, in __init__\n    self.binary, timeout),\n  File "/usr/local/lib/python2.7/dist-packages/selenium-2.33.0-py2.7.egg/selenium/webdriver/firefox/extension_connection.py", line 47, in __init__\n    self.binary.launch_browser(self.profile)\n  File "/usr/local/lib/python2.7/dist-packages/selenium-2.33.0-py2.7.egg/selenium/webdriver/firefox/firefox_binary.py", line 51, in launch_browser\n    self._wait_until_connectable()\n  File "/usr/local/lib/python2.7/dist-packages/selenium-2.33.0-py2.7.egg/selenium/webdriver/firefox/firefox_binary.py", line 90, in _wait_until_connectable\n    self._get_firefox_output())\nWebDriverException: Message: \'The browser appears to have exited before we could connect. The output was: *** LOG addons.xpi: startup\\n*** LOG addons.xpi: checkForChanges\\n*** LOG addons.xpi: No changes found\\n*** Blocklist::_loadBlocklistFromFile: blocklist is disabled\\n\' \n'
p263
s.