(dp1
S'output'
p2
S"<class 'selenium.common.exceptions.WebDriverException'> Message: u'a is null' ; Stacktrace: \n    at fxdriver.modals.findButton_ (file:///tmp/tmp_x23CQ/extensions/fxdriver@googlecode.com/components/driver_component.js:7981)\n    at fxdriver.modals.acceptAlert (file:///tmp/tmp_x23CQ/extensions/fxdriver@googlecode.com/components/driver_component.js:7952)\n    at FirefoxDriver.prototype.acceptAlert (file:///tmp/tmp_x23CQ/extensions/fxdriver@googlecode.com/components/driver_component.js:8660)\n    at DelayedCommand.prototype.executeInternal_/h (file:///tmp/tmp_x23CQ/extensions/fxdriver@googlecode.com/components/command_processor.js:10456)\n    at fxdriver.Timer.prototype.setTimeout/<.notify (file:///tmp/tmp_x23CQ/extensions/fxdriver@googlecode.com/components/command_processor.js:386) "
p3
sS'layer'
p4
S'/home/monika/Desktop/web2py/applications/todo/controllers/default.py'
p5
sS'code'
p6
S'# -*- coding: utf-8 -*-\n# this file is released under public domain and you can use without limitations\n\n#########################################################################\n## This is a sample controller\n## - index is the default action of any application\n## - user is required for authentication and authorization\n## - download is for downloading files uploaded in the db (does streaming)\n## - call exposes all registered services (none by default)\n#########################################################################\n\n\n\n\n\ndef index():\n    """\n    example action using the internationalization operator T and flash\n    rendered by views/default/index.html or views/generic.html\n\n    if you need a simple wiki simple replace the two lines below with:\n    return auth.wiki()\n    """\n    response.flash = T("Welcome to web2py!")\n    return dict(message=T(\'Hello World\'))\n\n\ndef user():\n    """\n    exposes:\n    http://..../[app]/default/user/login\n    http://..../[app]/default/user/logout\n    http://..../[app]/default/user/register\n    http://..../[app]/default/user/profile\n    http://..../[app]/default/user/retrieve_password\n    http://..../[app]/default/user/change_password\n    http://..../[app]/default/user/manage_users (requires membership in \n    use @auth.requires_login()\n        @auth.requires_membership(\'group name\')\n        @auth.requires_permission(\'read\',\'table name\',record_id)\n    to decorate functions that need access control\n    """\n    return dict(form=auth())\n\n@cache.action()\ndef download():\n    """\n    allows downloading of uploaded files\n    http://..../[app]/default/download/[filename]\n    """\n    return response.download(request, db)\n\n\ndef call():\n    """\n    exposes services. for example:\n    http://..../[app]/default/call/jsonrpc\n    decorate with @services.jsonrpc the functions to expose\n    supports xml, json, xmlrpc, jsonrpc, amfrpc, rss, csv\n    """\n    return service()\n\n\n@auth.requires_signature()\ndef data():\n    """\n    http://..../[app]/default/data/tables\n    http://..../[app]/default/data/create/[table]\n    http://..../[app]/default/data/read/[table]/[id]\n    http://..../[app]/default/data/update/[table]/[id]\n    http://..../[app]/default/data/delete/[table]/[id]\n    http://..../[app]/default/data/select/[table]\n    http://..../[app]/default/data/search/[table]\n    but URLs must be signed, i.e. linked with\n      A(\'table\',_href=URL(\'data/tables\',user_signature=True))\n    or with the signed load operator\n      LOAD(\'default\',\'data.load\',args=\'tables\',ajax=True,user_signature=True)\n    """\n    return dict(form=crud())\n    \n    \n    \ndef display_form():\n    import commands\n    form = FORM(\n                  TABLE\n                  (   TR(A(B(H3(\'Choose the test cases to be executed:\')))),\n                      TR(\'Login\',INPUT(_name=\'testcase1\', _type=\'checkbox\', _value="1")),\n                      TR(\'Request VM\',INPUT(_name=\'testcase2\', _type=\'checkbox\', _value="2")),\n                      TR(\'My Pending VMs\',INPUT(_name=\'testcase3\', _type=\'checkbox\', _value="3")),\n                      TR(\'My VMs\',INPUT(_name=\'testcase21\', _type=\'checkbox\', _value="21")),\n                      TR(\'My Pending Tasks\',INPUT(_name=\'testcase4\', _type=\'checkbox\', _value="4")),\n                      TR(\'My Completed Tasks\',INPUT(_name=\'testcase5\', _type=\'checkbox\', _value="5")),\n                      TR(\'My Failed Taskss\',INPUT(_name=\'testcase6\', _type=\'checkbox\', _value="6")),\n                      TR(\'Pending Faculty-Level VM Approvals\',INPUT(_name=\'testcase7\', _type=\'checkbox\', _value="7")),\n                      TR(\'Pending Org-Level VM Approvals\',INPUT(_name=\'testcase8\', _type=\'checkbox\', _value="8")),\n                      TR(\'List All Org-Level VMs\',INPUT(_name=\'testcase9\', _type=\'checkbox\', _value="9")),\n                      TR(\'All VMs\',INPUT(_name=\'testcase10\', _type=\'checkbox\', _value="10")),\n                      TR(\'Host and VMs\',INPUT(_name=\'testcase11\', _type=\'checkbox\', _value="11")),\n                      TR(\'Pending Tasks\',INPUT(_name=\'testcase12\', _type=\'checkbox\', _value="12")),\n                      TR(\'Completed Tasks\',INPUT(_name=\'testcase13\', _type=\'checkbox\', _value="13")),\n                      TR(\'Failed Tasks\',INPUT(_name=\'testcase14\', _type=\'checkbox\', _value="14")),\n                      TR(\'Configure System: Add Host\',INPUT(_name=\'testcase15\', _type=\'checkbox\', _value="15")),\n                      TR(\'Configure System: Add Template\',INPUT(_name=\'testcase16\', _type=\'checkbox\', _value="16")),\n                      TR(\'Configure System: Add Datastore\',INPUT(_name=\'testcase17\', _type=\'checkbox\', _value="17")),\n                      TR(\'Checking Setting\',INPUT(_name=\'testcase18\', _type=\'checkbox\', _value="18")),\n                      TR(\'Configure System: Host Setting\',INPUT(_name=\'testcase19\', _type=\'checkbox\', _value="19")),\n                      TR(\'Configure System: Host table\',INPUT(_name=\'testcase20\', _type=\'checkbox\', _value="20")),\n                      \n                      BR(),\n                      TR(INPUT(_type=\'submit\',_value=\'submit\'))\n                  )\n              )\n              \n    if form.process().accepted:\n        for i in xrange(1,21):\n            test_case_no=request.vars[\'testcase\'+str(i)]\n            if test_case_no!=None:\n                test_script(test_case_no)\n    elif form.errors:\n        response.flash = \'form has errors\'\n    else:\n        response.flash = \'please fill the form\'\n    return dict(form=form)\n\nresponse._vars=response._caller(display_form)\n'
p7
sS'snapshot'
p8
(dp9
S'exception'
p10
(dp11
S'stacktrace'
p12
S"[u'    at fxdriver.modals.findButton_ (file:///tm...glecode.com/components/driver_component.js:7981)', u'    at fxdriver.modals.acceptAlert (file:///tm...glecode.com/components/driver_component.js:7952)', u'    at FirefoxDriver.prototype.acceptAlert (fi...glecode.com/components/driver_component.js:8660)', u'    at DelayedCommand.prototype.executeInterna...ecode.com/components/command_processor.js:10456)', u'    at fxdriver.Timer.prototype.setTimeout/<.n...glecode.com/components/command_processor.js:386)']"
p13
sS'__module__'
p14
S"'selenium.common.exceptions'"
p15
sS'__getslice__'
p16
S"<method-wrapper '__getslice__' of WebDriverException object>"
p17
sS'__str__'
p18
S'<bound method WebDriverException.__str__ of WebDriverException()>'
p19
sS'__reduce__'
p20
S'<built-in method __reduce__ of WebDriverException object>'
p21
sS'__dict__'
p22
S"{'msg': u'a is null', 'screen': None, 'stacktrace': [u'    at fxdriver.modals.findButton_ (file:///tm...glecode.com/components/driver_component.js:7981)', u'    at fxdriver.modals.acceptAlert (file:///tm...glecode.com/components/driver_component.js:7952)', u'    at FirefoxDriver.prototype.acceptAlert (fi...glecode.com/components/driver_component.js:8660)', u'    at DelayedCommand.prototype.executeInterna...ecode.com/components/command_processor.js:10456)', u'    at fxdriver.Timer.prototype.setTimeout/<.n...glecode.com/components/command_processor.js:386)']}"
p23
sS'__sizeof__'
p24
S'<built-in method __sizeof__ of WebDriverException object>'
p25
sS'__weakref__'
p26
S'None'
p27
sS'__init__'
p28
S'<bound method WebDriverException.__init__ of WebDriverException()>'
p29
sS'__setattr__'
p30
S"<method-wrapper '__setattr__' of WebDriverException object>"
p31
sS'__reduce_ex__'
p32
S'<built-in method __reduce_ex__ of WebDriverException object>'
p33
sS'__new__'
p34
S'<built-in method __new__ of type object>'
p35
sS'__format__'
p36
S'<built-in method __format__ of WebDriverException object>'
p37
sS'__class__'
p38
S"<class 'selenium.common.exceptions.WebDriverException'>"
p39
sS'msg'
p40
S"u'a is null'"
p41
sS'__doc__'
p42
S'None'
p43
sS'__getitem__'
p44
S"<method-wrapper '__getitem__' of WebDriverException object>"
p45
sS'__setstate__'
p46
S'<built-in method __setstate__ of WebDriverException object>'
p47
sS'__getattribute__'
p48
S"<method-wrapper '__getattribute__' of WebDriverException object>"
p49
sS'screen'
p50
S'None'
p51
sS'args'
p52
S'()'
p53
sS'__subclasshook__'
p54
S'<built-in method __subclasshook__ of type object>'
p55
sS'__unicode__'
p56
S'<built-in method __unicode__ of WebDriverException object>'
p57
sS'__delattr__'
p58
S"<method-wrapper '__delattr__' of WebDriverException object>"
p59
sS'__repr__'
p60
S"<method-wrapper '__repr__' of WebDriverException object>"
p61
sS'__hash__'
p62
S"<method-wrapper '__hash__' of WebDriverException object>"
p63
ssS'evalue'
p64
S"Message: u'a is null' ; Stacktrace: \n    at fxdriver.modals.findButton_ (file:///tmp/tmp_x23CQ/extensions/fxdriver@googlecode.com/components/driver_component.js:7981)\n    at fxdriver.modals.acceptAlert (file:///tmp/tmp_x23CQ/extensions/fxdriver@googlecode.com/components/driver_component.js:7952)\n    at FirefoxDriver.prototype.acceptAlert (file:///tmp/tmp_x23CQ/extensions/fxdriver@googlecode.com/components/driver_component.js:8660)\n    at DelayedCommand.prototype.executeInternal_/h (file:///tmp/tmp_x23CQ/extensions/fxdriver@googlecode.com/components/command_processor.js:10456)\n    at fxdriver.Timer.prototype.setTimeout/<.notify (file:///tmp/tmp_x23CQ/extensions/fxdriver@googlecode.com/components/command_processor.js:386) "
p65
sS'request'
p66
cgluon.html
XML_unpickle
p67
(S's{Z\x00\x00<div><table><tr><td style="font-weight:bold;vertical-align:top">ajax</td><td valign="top">:</td><td><div>False</div></td></tr><tr><td style="font-weight:bold;vertical-align:top">application</td><td valign="top">:</td><td><div>todo</div></td></tr><tr><td style="font-weight:bold;vertical-align:top">args</td><td valign="top">:</td><td><div><table></table></div></td></tr><tr><td style="font-weight:bold;vertical-align:top">body</td><td valign="top">:</td><td><div>&lt;open file &#x27;&lt;fdopen&gt;&#x27;, mode &#x27;w+b&#x27; at 0x7f8d942f8660&gt;</div></td></tr><tr><td style="font-weight:bold;vertical-align:top">cid</td><td valign="top">:</td><td><div>None</div></td></tr><tr><td style="font-weight:bold;vertical-align:top">client</td><td valign="top">:</td><td><div>127.0.0.1</div></td></tr><tr><td style="font-weight:bold;vertical-align:top">controller</td><td valign="top">:</td><td><div>default</div></td></tr><tr><td style="font-weight:bold;vertical-align:top">cookies</td><td valign="top">:</td><td><div><table><tr><td style="font-weight:bold;vertical-align:top">session_id_admin</td><td valign="top">:</td><td><div>127.0.0.1-fa13630b-03d7-4009-910c-a319aeba0c0f<table><tr><td style="font-weight:bold;vertical-align:top">comment</td><td valign="top">:</td><td><div></div></td></tr><tr><td style="font-weight:bold;vertical-align:top">domain</td><td valign="top">:</td><td><div></div></td></tr><tr><td style="font-weight:bold;vertical-align:top">expires</td><td valign="top">:</td><td><div></div></td></tr><tr><td style="font-weight:bold;vertical-align:top">httponly</td><td valign="top">:</td><td><div></div></td></tr><tr><td style="font-weight:bold;vertical-align:top">max-age</td><td valign="top">:</td><td><div></div></td></tr><tr><td style="font-weight:bold;vertical-align:top">path</td><td valign="top">:</td><td><div></div></td></tr><tr><td style="font-weight:bold;vertical-align:top">secure</td><td valign="top">:</td><td><div></div></td></tr><tr><td style="font-weight:bold;vertical-align:top">version</td><td valign="top">:</td><td><div></div></td></tr></table></div></td></tr><tr><td style="font-weight:bold;vertical-align:top">session_id_todo</td><td valign="top">:</td><td><div>127.0.0.1-33ad01bd-2567-400b-a758-a676e79347ee<table><tr><td style="font-weight:bold;vertical-align:top">comment</td><td valign="top">:</td><td><div></div></td></tr><tr><td style="font-weight:bold;vertical-align:top">domain</td><td valign="top">:</td><td><div></div></td></tr><tr><td style="font-weight:bold;vertical-align:top">expires</td><td valign="top">:</td><td><div></div></td></tr><tr><td style="font-weight:bold;vertical-align:top">httponly</td><td valign="top">:</td><td><div></div></td></tr><tr><td style="font-weight:bold;vertical-align:top">max-age</td><td valign="top">:</td><td><div></div></td></tr><tr><td style="font-weight:bold;vertical-align:top">path</td><td valign="top">:</td><td><div></div></td></tr><tr><td style="font-weight:bold;vertical-align:top">secure</td><td valign="top">:</td><td><div></div></td></tr><tr><td style="font-weight:bold;vertical-align:top">version</td><td valign="top">:</td><td><div></div></td></tr></table></div></td></tr><tr><td style="font-weight:bold;vertical-align:top">session_id_welcome</td><td valign="top">:</td><td><div>127.0.0.1-3f6effc8-ac9b-4dda-8467-0bad0cefb2eb<table><tr><td style="font-weight:bold;vertical-align:top">comment</td><td valign="top">:</td><td><div></div></td></tr><tr><td style="font-weight:bold;vertical-align:top">domain</td><td valign="top">:</td><td><div></div></td></tr><tr><td style="font-weight:bold;vertical-align:top">expires</td><td valign="top">:</td><td><div></div></td></tr><tr><td style="font-weight:bold;vertical-align:top">httponly</td><td valign="top">:</td><td><div></div></td></tr><tr><td style="font-weight:bold;vertical-align:top">max-age</td><td valign="top">:</td><td><div></div></td></tr><tr><td style="font-weight:bold;vertical-align:top">path</td><td valign="top">:</td><td><div></div></td></tr><tr><td style="font-weight:bold;vertical-align:top">secure</td><td valign="top">:</td><td><div></div></td></tr><tr><td style="font-weight:bold;vertical-align:top">version</td><td valign="top">:</td><td><div></div></td></tr></table></div></td></tr></table></div></td></tr><tr><td style="font-weight:bold;vertical-align:top">env</td><td valign="top">:</td><td><div><table><tr><td style="font-weight:bold;vertical-align:top">app_folders</td><td valign="top">:</td><td><div>set([&#x27;/home/monika/Desktop/web2py/applications/welcome/&#x27;, &#x27;/home/monika/Desktop/web2py/applications/admin/&#x27;, &#x27;/home/monika/Desktop/web2py/applications/todo/&#x27;])</div></td></tr><tr><td style="font-weight:bold;vertical-align:top">applications_parent</td><td valign="top">:</td><td><div>/home/monika/Desktop/web2py</div></td></tr><tr><td style="font-weight:bold;vertical-align:top">cmd_args</td><td valign="top">:</td><td><div><table></table></div></td></tr><tr><td style="font-weight:bold;vertical-align:top">cmd_options</td><td valign="top">:</td><td><div>&lt;Values at 0x28a9320: {&#x27;verbose&#x27;: False, &#x27;ip&#x27;: &#x27;127.0.0.1&#x27;, &#x27;with_scheduler&#x27;: False, &#x27;ips&#x27;: [&#x27;127.0.1.1&#x27;], &#x27;shutdown_timeout&#x27;: 5, &#x27;taskbar&#x27;: False, &#x27;with_coverage&#x27;: False, &#x27;port&#x27;: 8000, &#x27;maxthreads&#x27;: None, &#x27;softcron&#x27;: False, &#x27;server_name&#x27;: &#x27;dell-OptiPlex-7010&#x27;, &#x27;bpython&#x27;: False, &#x27;nogui&#x27;: False, &#x27;pid_filename&#x27;: &#x27;httpserver.pid&#x27;, &#x27;extcron&#x27;: False, &#x27;runcron&#x27;: False, &#x27;run_system_tests&#x27;: False, &#x27;test&#x27;: None, &#x27;folder&#x27;: &#x27;/home/monika/Desktop/web2py&#x27;, &#x27;config&#x27;: &#x27;&#x27;, &#x27;minthreads&#x27;: None, &#x27;winservice&#x27;: &#x27;&#x27;, &#x27;shell&#x27;: None, &#x27;run&#x27;: &#x27;&#x27;, &#x27;log_filename&#x27;: &#x27;httpserver.log&#x27;, &#x27;debuglevel&#x27;: 30, &#x27;args&#x27;: [&#x27;&#x27;], &#x27;socket_timeout&#x27;: 5, &#x27;ssl_ca_certificate&#x27;: None, &#x27;scheduler&#x27;: None, &#x27;profiler_filename&#x27;: None, &#x27;ssl_private_key&#x27;: &#x27;&#x27;, &#x27;scheduler_groups&#x27;: None, &#x27;password&#x27;: &#x27;&lt;ask&gt;&#x27;, &#x27;request_queue_size&#x27;: 5, &#x27;ssl_certificate&#x27;: &#x27;&#x27;, &#x27;cronjob&#x27;: False, &#x27;numthreads&#x27;: None, &#x27;quiet&#x27;: False, &#x27;interfaces&#x27;: None, &#x27;import_models&#x27;: False, &#x27;timeout&#x27;: 10, &#x27;plain&#x27;: False, &#x27;nobanner&#x27;: False}&gt;</div></td></tr><tr><td style="font-weight:bold;vertical-align:top">content_length</td><td valign="top">:</td><td><div>449</div></td></tr><tr><td style="font-weight:bold;vertical-align:top">content_type</td><td valign="top">:</td><td><div>multipart/form-data; boundary=---------------------------27495853212621619451643434139</div></td></tr><tr><td style="font-weight:bold;vertical-align:top">db_sessions</td><td valign="top">:</td><td><div>set([])</div></td></tr><tr><td style="font-weight:bold;vertical-align:top">debugging</td><td valign="top">:</td><td><div>True</div></td></tr><tr><td style="font-weight:bold;vertical-align:top">gluon_parent</td><td valign="top">:</td><td><div>/home/monika/Desktop/web2py</div></td></tr><tr><td style="font-weight:bold;vertical-align:top">http_accept</td><td valign="top">:</td><td><div>text/html,application/xhtml+xml,application/xml;q=0.9,*/*;q=0.8</div></td></tr><tr><td style="font-weight:bold;vertical-align:top">http_accept_encoding</td><td valign="top">:</td><td><div>gzip, deflate</div></td></tr><tr><td style="font-weight:bold;vertical-align:top">http_accept_language</td><td valign="top">:</td><td><div>en-US,en;q=0.5</div></td></tr><tr><td style="font-weight:bold;vertical-align:top">http_connection</td><td valign="top">:</td><td><div>keep-alive</div></td></tr><tr><td style="font-weight:bold;vertical-align:top">http_content_length</td><td valign="top">:</td><td><div>449</div></td></tr><tr><td style="font-weight:bold;vertical-align:top">http_content_type</td><td valign="top">:</td><td><div>multipart/form-data; boundary=---------------------------27495853212621619451643434139</div></td></tr><tr><td style="font-weight:bold;vertical-align:top">http_cookie</td><td valign="top">:</td><td><div>session_id_welcome=127.0.0.1-3f6effc8-ac9b-4dda-8467-0bad0cefb2eb; session_id_admin=127.0.0.1-fa13630b-03d7-4009-910c-a319aeba0c0f; session_id_todo=127.0.0.1-33ad01bd-2567-400b-a758-a676e79347ee</div></td></tr><tr><td style="font-weight:bold;vertical-align:top">http_host</td><td valign="top">:</td><td><div>127.0.0.1:8000</div></td></tr><tr><td style="font-weight:bold;vertical-align:top">http_referer</td><td valign="top">:</td><td><div>http://127.0.0.1:8000/todo/default/display_form</div></td></tr><tr><td style="font-weight:bold;vertical-align:top">http_user_agent</td><td valign="top">:</td><td><div>Mozilla/5.0 (X11; Ubuntu; Linux x86_64; rv:22.0) Gecko/20100101 Firefox/22.0</div></td></tr><tr><td style="font-weight:bold;vertical-align:top">is_jython</td><td valign="top">:</td><td><div>False</div></td></tr><tr><td style="font-weight:bold;vertical-align:top">is_pypy</td><td valign="top">:</td><td><div>False</div></td></tr><tr><td style="font-weight:bold;vertical-align:top">local_hosts</td><td valign="top">:</td><td><div><table><tr><td><div>127.0.1.1</div></td></tr><tr><td><div>::1</div></td></tr><tr><td><div>dell-OptiPlex-7010</div></td></tr><tr><td><div>::ffff:127.0.0.1</div></td></tr><tr><td><div>127.0.0.1</div></td></tr></table></div></td></tr><tr><td style="font-weight:bold;vertical-align:top">path_info</td><td valign="top">:</td><td><div>/todo/default/display_form</div></td></tr><tr><td style="font-weight:bold;vertical-align:top">query_string</td><td valign="top">:</td><td><div></div></td></tr><tr><td style="font-weight:bold;vertical-align:top">remote_addr</td><td valign="top">:</td><td><div>127.0.0.1</div></td></tr><tr><td style="font-weight:bold;vertical-align:top">remote_port</td><td valign="top">:</td><td><div>33014</div></td></tr><tr><td style="font-weight:bold;vertical-align:top">request_method</td><td valign="top">:</td><td><div>POST</div></td></tr><tr><td style="font-weight:bold;vertical-align:top">request_uri</td><td valign="top">:</td><td><div>/todo/default/display_form</div></td></tr><tr><td style="font-weight:bold;vertical-align:top">script_name</td><td valign="top">:</td><td><div></div></td></tr><tr><td style="font-weight:bold;vertical-align:top">server_name</td><td valign="top">:</td><td><div>dell-OptiPlex-7010</div></td></tr><tr><td style="font-weight:bold;vertical-align:top">server_port</td><td valign="top">:</td><td><div>8000</div></td></tr><tr><td style="font-weight:bold;vertical-align:top">server_protocol</td><td valign="top">:</td><td><div>HTTP/1.1</div></td></tr><tr><td style="font-weight:bold;vertical-align:top">server_software</td><td valign="top">:</td><td><div>Rocket 1.2.6</div></td></tr><tr><td style="font-weight:bold;vertical-align:top">web2py_path</td><td valign="top">:</td><td><div>/home/monika/Desktop/web2py</div></td></tr><tr><td style="font-weight:bold;vertical-align:top">web2py_version</td><td valign="top">:</td><td><div>2.5.1-stable+timestamp.2013.06.06.15.39.19</div></td></tr><tr><td style="font-weight:bold;vertical-align:top">wsgi_errors</td><td valign="top">:</td><td><div>&lt;open file &#x27;&lt;stderr&gt;&#x27;, mode &#x27;w&#x27; at 0x7f8dbdbae270&gt;</div></td></tr><tr><td style="font-weight:bold;vertical-align:top">wsgi_file_wrapper</td><td valign="top">:</td><td><div>&lt;class wsgiref.util.FileWrapper at 0x28071f0&gt;</div></td></tr><tr><td style="font-weight:bold;vertical-align:top">wsgi_input</td><td valign="top">:</td><td><div>&lt;socket._fileobject object at 0x7f8d80292f50&gt;</div></td></tr><tr><td style="font-weight:bold;vertical-align:top">wsgi_multiprocess</td><td valign="top">:</td><td><div>False</div></td></tr><tr><td style="font-weight:bold;vertical-align:top">wsgi_multithread</td><td valign="top">:</td><td><div>True</div></td></tr><tr><td style="font-weight:bold;vertical-align:top">wsgi_run_once</td><td valign="top">:</td><td><div>False</div></td></tr><tr><td style="font-weight:bold;vertical-align:top">wsgi_url_scheme</td><td valign="top">:</td><td><div>http</div></td></tr><tr><td style="font-weight:bold;vertical-align:top">wsgi_version</td><td valign="top">:</td><td><div><table><tr><td><div>1</div></td></tr><tr><td><div>0</div></td></tr></table></div></td></tr></table></div></td></tr><tr><td style="font-weight:bold;vertical-align:top">extension</td><td valign="top">:</td><td><div>html</div></td></tr><tr><td style="font-weight:bold;vertical-align:top">folder</td><td valign="top">:</td><td><div>/home/monika/Desktop/web2py/applications/todo/</div></td></tr><tr><td style="font-weight:bold;vertical-align:top">function</td><td valign="top">:</td><td><div>display_form</div></td></tr><tr><td style="font-weight:bold;vertical-align:top">get_vars</td><td valign="top">:</td><td><div><table></table></div></td></tr><tr><td style="font-weight:bold;vertical-align:top">global_settings</td><td valign="top">:</td><td><div><table><tr><td style="font-weight:bold;vertical-align:top">app_folders</td><td valign="top">:</td><td><div>set([&#x27;/home/monika/Desktop/web2py/applications/welcome/&#x27;, &#x27;/home/monika/Desktop/web2py/applications/admin/&#x27;, &#x27;/home/monika/Desktop/web2py/applications/todo/&#x27;])</div></td></tr><tr><td style="font-weight:bold;vertical-align:top">applications_parent</td><td valign="top">:</td><td><div>/home/monika/Desktop/web2py</div></td></tr><tr><td style="font-weight:bold;vertical-align:top">cmd_args</td><td valign="top">:</td><td><div><table></table></div></td></tr><tr><td style="font-weight:bold;vertical-align:top">cmd_options</td><td valign="top">:</td><td><div>&lt;Values at 0x28a9320: {&#x27;verbose&#x27;: False, &#x27;ip&#x27;: &#x27;127.0.0.1&#x27;, &#x27;with_scheduler&#x27;: False, &#x27;ips&#x27;: [&#x27;127.0.1.1&#x27;], &#x27;shutdown_timeout&#x27;: 5, &#x27;taskbar&#x27;: False, &#x27;with_coverage&#x27;: False, &#x27;port&#x27;: 8000, &#x27;maxthreads&#x27;: None, &#x27;softcron&#x27;: False, &#x27;server_name&#x27;: &#x27;dell-OptiPlex-7010&#x27;, &#x27;bpython&#x27;: False, &#x27;nogui&#x27;: False, &#x27;pid_filename&#x27;: &#x27;httpserver.pid&#x27;, &#x27;extcron&#x27;: False, &#x27;runcron&#x27;: False, &#x27;run_system_tests&#x27;: False, &#x27;test&#x27;: None, &#x27;folder&#x27;: &#x27;/home/monika/Desktop/web2py&#x27;, &#x27;config&#x27;: &#x27;&#x27;, &#x27;minthreads&#x27;: None, &#x27;winservice&#x27;: &#x27;&#x27;, &#x27;shell&#x27;: None, &#x27;run&#x27;: &#x27;&#x27;, &#x27;log_filename&#x27;: &#x27;httpserver.log&#x27;, &#x27;debuglevel&#x27;: 30, &#x27;args&#x27;: [&#x27;&#x27;], &#x27;socket_timeout&#x27;: 5, &#x27;ssl_ca_certificate&#x27;: None, &#x27;scheduler&#x27;: None, &#x27;profiler_filename&#x27;: None, &#x27;ssl_private_key&#x27;: &#x27;&#x27;, &#x27;scheduler_groups&#x27;: None, &#x27;password&#x27;: &#x27;&lt;ask&gt;&#x27;, &#x27;request_queue_size&#x27;: 5, &#x27;ssl_certificate&#x27;: &#x27;&#x27;, &#x27;cronjob&#x27;: False, &#x27;numthreads&#x27;: None, &#x27;quiet&#x27;: False, &#x27;interfaces&#x27;: None, &#x27;import_models&#x27;: False, &#x27;timeout&#x27;: 10, &#x27;plain&#x27;: False, &#x27;nobanner&#x27;: False}&gt;</div></td></tr><tr><td style="font-weight:bold;vertical-align:top">db_sessions</td><td valign="top">:</td><td><div>set([])</div></td></tr><tr><td style="font-weight:bold;vertical-align:top">debugging</td><td valign="top">:</td><td><div>True</div></td></tr><tr><td style="font-weight:bold;vertical-align:top">gluon_parent</td><td valign="top">:</td><td><div>/home/monika/Desktop/web2py</div></td></tr><tr><td style="font-weight:bold;vertical-align:top">is_jython</td><td valign="top">:</td><td><div>False</div></td></tr><tr><td style="font-weight:bold;vertical-align:top">is_pypy</td><td valign="top">:</td><td><div>False</div></td></tr><tr><td style="font-weight:bold;vertical-align:top">local_hosts</td><td valign="top">:</td><td><div><table><tr><td><div>127.0.1.1</div></td></tr><tr><td><div>::1</div></td></tr><tr><td><div>dell-OptiPlex-7010</div></td></tr><tr><td><div>::ffff:127.0.0.1</div></td></tr><tr><td><div>127.0.0.1</div></td></tr></table></div></td></tr><tr><td style="font-weight:bold;vertical-align:top">web2py_version</td><td valign="top">:</td><td><div>2.5.1-stable+timestamp.2013.06.06.15.39.19</div></td></tr></table></div></td></tr><tr><td style="font-weight:bold;vertical-align:top">is_https</td><td valign="top">:</td><td><div>False</div></td></tr><tr><td style="font-weight:bold;vertical-align:top">is_local</td><td valign="top">:</td><td><div>True</div></td></tr><tr><td style="font-weight:bold;vertical-align:top">is_restful</td><td valign="top">:</td><td><div>False</div></td></tr><tr><td style="font-weight:bold;vertical-align:top">now</td><td valign="top">:</td><td><div>datetime.datetime(2013, 7, 31, 16, 2, 48, 17190)</div></td></tr><tr><td style="font-weight:bold;vertical-align:top">post_vars</td><td valign="top">:</td><td><div><table><tr><td style="font-weight:bold;vertical-align:top">testcase19</td><td valign="top">:</td><td><div>19</div></td></tr></table></div></td></tr><tr><td style="font-weight:bold;vertical-align:top">raw_args</td><td valign="top">:</td><td><div></div></td></tr><tr><td style="font-weight:bold;vertical-align:top">raw_extension</td><td valign="top">:</td><td><div>None</div></td></tr><tr><td style="font-weight:bold;vertical-align:top">url</td><td valign="top">:</td><td><div>/todo/default/display_form</div></td></tr><tr><td style="font-weight:bold;vertical-align:top">utcnow</td><td valign="top">:</td><td><div>datetime.datetime(2013, 7, 31, 10, 32, 48, 17225)</div></td></tr><tr><td style="font-weight:bold;vertical-align:top">uuid</td><td valign="top">:</td><td><div>todo/127.0.0.1.2013-07-31.16-02-48.f01062eb-2451-40b3-8564-15b5dca90099</div></td></tr><tr><td style="font-weight:bold;vertical-align:top">vars</td><td valign="top">:</td><td><div><table><tr><td style="font-weight:bold;vertical-align:top">testcase19</td><td valign="top">:</td><td><div>19</div></td></tr></table></div></td></tr><tr><td style="font-weight:bold;vertical-align:top">wsgi</td><td valign="top">:</td><td><div><table><tr><td style="font-weight:bold;vertical-align:top">environ</td><td valign="top">:</td><td><div><table><tr><td style="font-weight:bold;vertical-align:top">CONTENT_LENGTH</td><td valign="top">:</td><td><div>449</div></td></tr><tr><td style="font-weight:bold;vertical-align:top">CONTENT_TYPE</td><td valign="top">:</td><td><div>multipart/form-data; boundary=---------------------------27495853212621619451643434139</div></td></tr><tr><td style="font-weight:bold;vertical-align:top">HTTP_ACCEPT</td><td valign="top">:</td><td><div>text/html,application/xhtml+xml,application/xml;q=0.9,*/*;q=0.8</div></td></tr><tr><td style="font-weight:bold;vertical-align:top">HTTP_ACCEPT_ENCODING</td><td valign="top">:</td><td><div>gzip, deflate</div></td></tr><tr><td style="font-weight:bold;vertical-align:top">HTTP_ACCEPT_LANGUAGE</td><td valign="top">:</td><td><div>en-US,en;q=0.5</div></td></tr><tr><td style="font-weight:bold;vertical-align:top">HTTP_CONNECTION</td><td valign="top">:</td><td><div>keep-alive</div></td></tr><tr><td style="font-weight:bold;vertical-align:top">HTTP_CONTENT_LENGTH</td><td valign="top">:</td><td><div>449</div></td></tr><tr><td style="font-weight:bold;vertical-align:top">HTTP_CONTENT_TYPE</td><td valign="top">:</td><td><div>multipart/form-data; boundary=---------------------------27495853212621619451643434139</div></td></tr><tr><td style="font-weight:bold;vertical-align:top">HTTP_COOKIE</td><td valign="top">:</td><td><div>session_id_welcome=127.0.0.1-3f6effc8-ac9b-4dda-8467-0bad0cefb2eb; session_id_admin=127.0.0.1-fa13630b-03d7-4009-910c-a319aeba0c0f; session_id_todo=127.0.0.1-33ad01bd-2567-400b-a758-a676e79347ee</div></td></tr><tr><td style="font-weight:bold;vertical-align:top">HTTP_HOST</td><td valign="top">:</td><td><div>127.0.0.1:8000</div></td></tr><tr><td style="font-weight:bold;vertical-align:top">HTTP_REFERER</td><td valign="top">:</td><td><div>http://127.0.0.1:8000/todo/default/display_form</div></td></tr><tr><td style="font-weight:bold;vertical-align:top">HTTP_USER_AGENT</td><td valign="top">:</td><td><div>Mozilla/5.0 (X11; Ubuntu; Linux x86_64; rv:22.0) Gecko/20100101 Firefox/22.0</div></td></tr><tr><td style="font-weight:bold;vertical-align:top">PATH_INFO</td><td valign="top">:</td><td><div>/todo/default/display_form</div></td></tr><tr><td style="font-weight:bold;vertical-align:top">QUERY_STRING</td><td valign="top">:</td><td><div></div></td></tr><tr><td style="font-weight:bold;vertical-align:top">REMOTE_ADDR</td><td valign="top">:</td><td><div>127.0.0.1</div></td></tr><tr><td style="font-weight:bold;vertical-align:top">REMOTE_PORT</td><td valign="top">:</td><td><div>33014</div></td></tr><tr><td style="font-weight:bold;vertical-align:top">REQUEST_METHOD</td><td valign="top">:</td><td><div>POST</div></td></tr><tr><td style="font-weight:bold;vertical-align:top">REQUEST_URI</td><td valign="top">:</td><td><div>/todo/default/display_form</div></td></tr><tr><td style="font-weight:bold;vertical-align:top">SCRIPT_NAME</td><td valign="top">:</td><td><div></div></td></tr><tr><td style="font-weight:bold;vertical-align:top">SERVER_NAME</td><td valign="top">:</td><td><div>dell-OptiPlex-7010</div></td></tr><tr><td style="font-weight:bold;vertical-align:top">SERVER_PORT</td><td valign="top">:</td><td><div>8000</div></td></tr><tr><td style="font-weight:bold;vertical-align:top">SERVER_PROTOCOL</td><td valign="top">:</td><td><div>HTTP/1.1</div></td></tr><tr><td style="font-weight:bold;vertical-align:top">SERVER_SOFTWARE</td><td valign="top">:</td><td><div>Rocket 1.2.6</div></td></tr><tr><td style="font-weight:bold;vertical-align:top">wsgi.errors</td><td valign="top">:</td><td><div>&lt;open file &#x27;&lt;stderr&gt;&#x27;, mode &#x27;w&#x27; at 0x7f8dbdbae270&gt;</div></td></tr><tr><td style="font-weight:bold;vertical-align:top">wsgi.file_wrapper</td><td valign="top">:</td><td><div>&lt;class wsgiref.util.FileWrapper at 0x28071f0&gt;</div></td></tr><tr><td style="font-weight:bold;vertical-align:top">wsgi.input</td><td valign="top">:</td><td><div>&lt;open file &#x27;&lt;fdopen&gt;&#x27;, mode &#x27;w+b&#x27; at 0x7f8d942f8660&gt;</div></td></tr><tr><td style="font-weight:bold;vertical-align:top">wsgi.multiprocess</td><td valign="top">:</td><td><div>False</div></td></tr><tr><td style="font-weight:bold;vertical-align:top">wsgi.multithread</td><td valign="top">:</td><td><div>True</div></td></tr><tr><td style="font-weight:bold;vertical-align:top">wsgi.run_once</td><td valign="top">:</td><td><div>False</div></td></tr><tr><td style="font-weight:bold;vertical-align:top">wsgi.url_scheme</td><td valign="top">:</td><td><div>http</div></td></tr><tr><td style="font-weight:bold;vertical-align:top">wsgi.version</td><td valign="top">:</td><td><div>1</div></td></tr></table></div></td></tr></table></div></td></tr></table></div>'
tRp68
sS'frames'
p69
(lp70
(dp71
S'file'
p72
S'/home/monika/Desktop/web2py/gluon/restricted.py'
p73
sS'dump'
p74
(dp75
S'environment'
p76
S"{'A': <class 'gluon.html.A'>, 'ANY_OF': <class 'gluon.validators.ANY_OF'>, 'Auth': <class 'gluon.tools.Auth'>, 'B': <class 'gluon.html.B'>, 'BEAUTIFY': <class 'gluon.html.BEAUTIFY'>, 'BODY': <class 'gluon.html.BODY'>, 'BR': <class 'gluon.html.BR'>, 'BUTTON': <class 'gluon.html.BUTTON'>, 'CAT': <class 'gluon.html.CAT'>, 'CENTER': <class 'gluon.html.CENTER'>, ...}"
p77
sS'ccode'
p78
S'<code object <module> at 0x7f8d880f9330, file "/...plications/todo/controllers/default.py", line 16>'
p79
ssS'lnum'
p80
I212
sS'lines'
p81
(dp82
I207
S'    try:'
p83
sI208
S'        if isinstance(code, types.CodeType):'
p84
sI209
S'            ccode = code'
p85
sI210
S'        else:'
p86
sI211
S'            ccode = compile2(code, layer)'
p87
sI212
S'        exec ccode in environment'
p88
sI213
S'    except HTTP:'
p89
sI214
S'        raise'
p90
sI215
S'    except RestrictedError:'
p91
sI216
S'        # do not encapsulate (obfuscate) the original RestrictedError'
p92
ssS'call'
p93
S"(code='# -*- coding: utf-8 -*-\\n# this file is released ...)\\n\\nresponse._vars=response._caller(display_form)\\n', environment={'A': <class 'gluon.html.A'>, 'ANY_OF': <class 'gluon.validators.ANY_OF'>, 'Auth': <class 'gluon.tools.Auth'>, 'B': <class 'gluon.html.B'>, 'BEAUTIFY': <class 'gluon.html.BEAUTIFY'>, 'BODY': <class 'gluon.html.BODY'>, 'BR': <class 'gluon.html.BR'>, 'BUTTON': <class 'gluon.html.BUTTON'>, 'CAT': <class 'gluon.html.CAT'>, 'CENTER': <class 'gluon.html.CENTER'>, ...}, layer='/home/monika/Desktop/web2py/applications/todo/controllers/default.py')"
p94
sS'func'
p95
S'restricted'
p96
sa(dp97
g72
S'/home/monika/Desktop/web2py/applications/todo/controllers/default.py'
p98
sg74
(dp99
sg80
I126
sg81
(dp100
I115
S'    if form.process().accepted:'
p101
sI116
S'        for i in xrange(1,21):'
p102
sI117
S"            test_case_no=request.vars['testcase'+str(i)]"
p103
sI118
S'            if test_case_no!=None:'
p104
sI119
S'                test_script(test_case_no)'
p105
sI120
S'    elif form.errors:'
p106
sI121
S"        response.flash = 'form has errors'"
p107
sI122
S'    else:'
p108
sI123
S"        response.flash = 'please fill the form'"
p109
sI124
S'    return dict(form=form)'
p110
ssg93
S'()'
p111
sg95
S'<module>'
p112
sa(dp113
g72
S'/home/monika/Desktop/web2py/gluon/globals.py'
p114
sg74
(dp115
S'self'
p116
S'undefined'
p117
sS'f'
S'<function display_form>'
p118
ssg80
I194
sg81
(dp119
I192
S"        self.delimiters = ('{{', '}}')"
p120
sI193
S'        self._vars = None'
p121
sI194
S'        self._caller = lambda f: f()'
p122
sI195
S'        self._view_environment = None'
p123
sI196
S'        self._custom_commit = None'
p124
sI197
S'        self._custom_rollback = None'
p125
sI198
S''
sI189
S'        self.menu = []             # used by the default view layout'
p126
sI190
S'        self.files = []            # used by web2py_ajax.html'
p127
sI191
S'        self.generic_patterns = []  # patterns to allow generic views'
p128
ssg93
S'(f=<function display_form>)'
p129
sg95
S'<lambda>'
p130
sa(dp131
g72
S'/home/monika/Desktop/web2py/applications/todo/controllers/default.py'
p132
sg74
(dp133
S'test_case_no'
p134
S"'19'"
p135
sS'global test_script'
p136
S'<function test_script>'
p137
ssg80
I119
sg81
(dp138
I114
S''
sI115
S'    if form.process().accepted:'
p139
sI116
S'        for i in xrange(1,21):'
p140
sI117
S"            test_case_no=request.vars['testcase'+str(i)]"
p141
sI118
S'            if test_case_no!=None:'
p142
sI119
S'                test_script(test_case_no)'
p143
sI120
S'    elif form.errors:'
p144
sI121
S"        response.flash = 'form has errors'"
p145
sI122
S'    else:'
p146
sI123
S"        response.flash = 'please fill the form'"
p147
ssg93
S'()'
p148
sg95
S'display_form'
p149
sa(dp150
g72
S'/home/monika/Desktop/web2py/applications/todo/models/test.py'
p151
sg74
(dp152
S'global isImage'
p153
S'<function isImage>'
p154
sS'table_path'
p155
S'"//div[@class=\'TABLE\']/table/tbody/tr/td"'
p156
sS'xml_sub_child'
p157
S"<Element 'setting'>"
p158
sS'driver'
p159
S'<selenium.webdriver.firefox.webdriver.WebDriver object>'
p160
ssg80
I66
sg81
(dp161
I64
S'                elif field_type=="img":#checking for setting image'
p162
sI65
S'                    table_path=xml_sub_child.get("path")'
p163
sI66
S'                    isImage(driver,xml_sub_child,table_path)'
p164
sI67
S''
sI68
S'                elif field_type=="tagname":#cheking for host table'
p165
sI69
S'                    isCheckTable(driver,xml_parent,xml_child,xml_sub_child)'
p166
sI70
S''
sI61
S'                elif field_type=="table":'
p167
sI62
S'                    isTable(driver,xml_parent,xml_child,xml_sub_child)#checking for data in table'
p168
sI63
S''
ssg93
S"(test_case_no='19')"
p169
sg95
S'test_script'
p170
sa(dp171
g72
S'/home/monika/Desktop/web2py/applications/todo/models/test.py'
p172
sg74
(dp173
S'alert.accept'
p174
S'<bound method Alert.accept of <selenium.webdriver.common.alert.Alert object>>'
p175
sS'alert'
p176
S'<selenium.webdriver.common.alert.Alert object>'
p177
ssg80
I214
sg81
(dp178
I209
S'    if isElementPresent(driver,a):'
p179
sI210
S'        if xml_sub_child.get("name") in ["Pause","Gracefully","Forcefully","Migrate","Request","Lock","Edit","Setting","Resume"]:'
p180
sI211
S'            driver.find_element_by_xpath(xml_sub_child.text).click()'
p181
sI212
S'            time.sleep(2)'
p182
sI213
S'            alert = driver.switch_to_alert()'
p183
sI214
S'            alert.accept()'
p184
sI215
S'    return'
p185
sI216
S''
sI217
S'def isTable(driver,xml_parent,xml_child,xml_sub_child):'
p186
sI218
S'    list={0:"Error",1:"failed_tasks",2:"TRY AGAIN | IGNORE",3:"my_pending_vm",4:"Waiting for admin approval",5:"faculty_pending_tasks",6:"Add_host",7:"org_admin_pending_tasks",8:"org_admin_all_tasks"}'
p187
ssg93
S'(driver=<selenium.webdriver.firefox.webdriver.WebDriver object>, xml_sub_child=<Element \'setting\'>, a="//div[@class=\'TABLE\']/table/tbody/tr/td")'
p188
sg95
S'isImage'
p189
sa(dp190
g72
S'/usr/local/lib/python2.7/dist-packages/selenium-2.33.0-py2.7.egg/selenium/webdriver/common/alert.py'
p191
sg74
(dp192
S'global Command'
p193
S"<class 'selenium.webdriver.remote.command.Command'>"
p194
sS'self'
p195
S'<selenium.webdriver.common.alert.Alert object>'
p196
sS'Command.ACCEPT_ALERT'
p197
S"'acceptAlert'"
p198
sS'self.driver'
p199
S'<selenium.webdriver.firefox.webdriver.WebDriver object>'
p200
sS'self.driver.execute'
p201
S'<bound method WebDriver.execute of <selenium.webdriver.firefox.webdriver.WebDriver object>>'
p202
ssg80
I35
sg81
(dp203
I32
S''
sI33
S'    def accept(self):'
p204
sI34
S'        """ Accepts the alert available """'
p205
sI35
S'        self.driver.execute(Command.ACCEPT_ALERT)'
p206
sI36
S''
sI37
S'    def send_keys(self, keysToSend):'
p207
sI38
S'        """ Send Keys to the Alert """'
p208
sI39
S"        self.driver.execute(Command.SET_ALERT_VALUE, {'text': keysToSend})"
p209
sI30
S'        """ Dismisses the alert available """'
p210
sI31
S'        self.driver.execute(Command.DISMISS_ALERT)'
p211
ssg93
S'(self=<selenium.webdriver.common.alert.Alert object>)'
p212
sg95
S'accept'
p213
sa(dp214
g72
S'/usr/local/lib/python2.7/dist-packages/selenium-2.33.0-py2.7.egg/selenium/webdriver/remote/webdriver.py'
p215
sg74
(dp216
S'self.error_handler'
p217
S'<selenium.webdriver.remote.errorhandler.ErrorHandler object>'
p218
sS'self'
p219
S'<selenium.webdriver.firefox.webdriver.WebDriver object>'
p220
sS'self.error_handler.check_response'
p221
S'<bound method ErrorHandler.check_response of <se...bdriver.remote.errorhandler.ErrorHandler object>>'
p222
sS'response'
p223
S"{u'name': u'acceptAlert', u'sessionId': u'9e86c672-71fc-4356-85d1-14a68e1b1993', u'status': 13, u'value': {u'message': u'a is null', u'stackTrace': [{u'fileName': u'file:///tmp/tmp_x23CQ/extensions/fxdriver@googlecode.com/components/driver_component.js', u'lineNumber': 7981, u'methodName': u'fxdriver.modals.findButton_'}, {u'fileName': u'file:///tmp/tmp_x23CQ/extensions/fxdriver@googlecode.com/components/driver_component.js', u'lineNumber': 7952, u'methodName': u'fxdriver.modals.acceptAlert'}, {u'fileName': u'file:///tmp/tmp_x23CQ/extensions/fxdriver@googlecode.com/components/driver_component.js', u'lineNumber': 8660, u'methodName': u'FirefoxDriver.prototype.acceptAlert'}, {u'fileName': u'file:///tmp/tmp_x23CQ/extensions/fxdriver@googlecode.com/components/command_processor.js', u'lineNumber': 10456, u'methodName': u'DelayedCommand.prototype.executeInternal_/h'}, {u'fileName': u'file:///tmp/tmp_x23CQ/extensions/fxdriver@googlecode.com/components/command_processor.js', u'lineNumber': 386, u'methodName': u'fxdriver.Timer.prototype.setTimeout/<.notify'}]}}"
p224
ssg80
I165
sg81
(dp225
I160
S"            params['sessionId'] = self.session_id"
p226
sI161
S''
sI162
S'        params = self._wrap_value(params)'
p227
sI163
S'        response = self.command_executor.execute(driver_command, params)'
p228
sI164
S'        if response:'
p229
sI165
S'            self.error_handler.check_response(response)'
p230
sI166
S"            response['value'] = self._unwrap_value("
p231
sI167
S"                response.get('value', None))"
p232
sI168
S'            return response'
p233
sI169
S"        # If the server doesn't send a response, assume the command was"
p234
ssg93
S"(self=<selenium.webdriver.firefox.webdriver.WebDriver object>, driver_command='acceptAlert', params={'sessionId': u'9e86c672-71fc-4356-85d1-14a68e1b1993'})"
p235
sg95
S'execute'
p236
sa(dp237
g72
S'/usr/local/lib/python2.7/dist-packages/selenium-2.33.0-py2.7.egg/selenium/webdriver/remote/errorhandler.py'
p238
sg74
(dp239
S'exception_class'
p240
S"<class 'selenium.common.exceptions.WebDriverException'>"
p241
sS'message'
p242
S"u'a is null'"
p243
sS'screen'
p244
S'None'
p245
sS'stacktrace'
p246
S"[u'    at fxdriver.modals.findButton_ (file:///tm...glecode.com/components/driver_component.js:7981)', u'    at fxdriver.modals.acceptAlert (file:///tm...glecode.com/components/driver_component.js:7952)', u'    at FirefoxDriver.prototype.acceptAlert (fi...glecode.com/components/driver_component.js:8660)', u'    at DelayedCommand.prototype.executeInterna...ecode.com/components/command_processor.js:10456)', u'    at fxdriver.Timer.prototype.setTimeout/<.n...glecode.com/components/command_processor.js:386)']"
p247
ssg80
I158
sg81
(dp248
I160
S'    def _value_or_default(self, obj, key, default):'
p249
sI161
S'      return obj[key] if key in obj else default'
p250
sI152
S'                    msg = msg % (meth, file)'
p251
sI153
S'                    stacktrace.append(msg)'
p252
sI154
S'            except TypeError:'
p253
sI155
S'                pass'
p254
sI156
S'        if exception_class == ErrorInResponseException:'
p255
sI157
S'            raise exception_class(response, message)'
p256
sI158
S'        raise exception_class(message, screen, stacktrace)'
p257
sI159
S''
ssg93
S"(self=<selenium.webdriver.remote.errorhandler.ErrorHandler object>, response={u'name': u'acceptAlert', u'sessionId': u'9e86c672-71fc-4356-85d1-14a68e1b1993', u'status': 13, u'value': {u'message': u'a is null', u'stackTrace': [{u'fileName': u'file:///tmp/tmp_x23CQ/extensions/fxdriver@googlecode.com/components/driver_component.js', u'lineNumber': 7981, u'methodName': u'fxdriver.modals.findButton_'}, {u'fileName': u'file:///tmp/tmp_x23CQ/extensions/fxdriver@googlecode.com/components/driver_component.js', u'lineNumber': 7952, u'methodName': u'fxdriver.modals.acceptAlert'}, {u'fileName': u'file:///tmp/tmp_x23CQ/extensions/fxdriver@googlecode.com/components/driver_component.js', u'lineNumber': 8660, u'methodName': u'FirefoxDriver.prototype.acceptAlert'}, {u'fileName': u'file:///tmp/tmp_x23CQ/extensions/fxdriver@googlecode.com/components/command_processor.js', u'lineNumber': 10456, u'methodName': u'DelayedCommand.prototype.executeInternal_/h'}, {u'fileName': u'file:///tmp/tmp_x23CQ/extensions/fxdriver@googlecode.com/components/command_processor.js', u'lineNumber': 386, u'methodName': u'fxdriver.Timer.prototype.setTimeout/<.notify'}]}})"
p258
sg95
S'check_response'
p259
sasS'pyver'
p260
S'Python 2.7.3: /usr/bin/python (prefix: /usr)'
p261
sS'session'
p262
g67
(S's\x1a\x00\x00\x00<div><table></table></div>'
tRp263
sS'etype'
p264
S"<class 'selenium.common.exceptions.WebDriverException'>"
p265
sS'date'
p266
S'Wed Jul 31 16:03:23 2013'
p267
sS'response'
p268
g67
(S'su,\x00\x00<div><table><tr><td style="font-weight:bold;vertical-align:top">body</td><td valign="top">:</td><td><div>&lt;cStringIO.StringO object at 0x7f8d9c2c7068&gt;</div></td></tr><tr><td style="font-weight:bold;vertical-align:top">cookies</td><td valign="top">:</td><td><div><table><tr><td style="font-weight:bold;vertical-align:top">session_id_todo</td><td valign="top">:</td><td><div>127.0.0.1-33ad01bd-2567-400b-a758-a676e79347ee<table><tr><td style="font-weight:bold;vertical-align:top">comment</td><td valign="top">:</td><td><div></div></td></tr><tr><td style="font-weight:bold;vertical-align:top">domain</td><td valign="top">:</td><td><div></div></td></tr><tr><td style="font-weight:bold;vertical-align:top">expires</td><td valign="top">:</td><td><div></div></td></tr><tr><td style="font-weight:bold;vertical-align:top">httponly</td><td valign="top">:</td><td><div></div></td></tr><tr><td style="font-weight:bold;vertical-align:top">max-age</td><td valign="top">:</td><td><div></div></td></tr><tr><td style="font-weight:bold;vertical-align:top">path</td><td valign="top">:</td><td><div>/</div></td></tr><tr><td style="font-weight:bold;vertical-align:top">secure</td><td valign="top">:</td><td><div></div></td></tr><tr><td style="font-weight:bold;vertical-align:top">version</td><td valign="top">:</td><td><div></div></td></tr></table></div></td></tr></table></div></td></tr><tr><td style="font-weight:bold;vertical-align:top">delimiters</td><td valign="top">:</td><td><div><table><tr><td><div>{{</div></td></tr><tr><td><div>}}</div></td></tr></table></div></td></tr><tr><td style="font-weight:bold;vertical-align:top">files</td><td valign="top">:</td><td><div><table></table></div></td></tr><tr><td style="font-weight:bold;vertical-align:top">flash</td><td valign="top">:</td><td><div>Success!</div></td></tr><tr><td style="font-weight:bold;vertical-align:top">generic_patterns</td><td valign="top">:</td><td><div><table></table></div></td></tr><tr><td style="font-weight:bold;vertical-align:top">google_analytics_id</td><td valign="top">:</td><td><div>None</div></td></tr><tr><td style="font-weight:bold;vertical-align:top">headers</td><td valign="top">:</td><td><div><table><tr><td style="font-weight:bold;vertical-align:top">X-Powered-By</td><td valign="top">:</td><td><div>web2py</div></td></tr></table></div></td></tr><tr><td style="font-weight:bold;vertical-align:top">logo</td><td valign="top">:</td><td><div><a class="brand" href="http://www.web2py.com/"><b>web<span>2</span>py</b>&trade;&nbsp;</a></div></td></tr><tr><td style="font-weight:bold;vertical-align:top">menu</td><td valign="top">:</td><td><div><table><tr><td><div><table><tr><td><div>Home</div></td></tr><tr><td><div>False</div></td></tr><tr><td><div>/todo/default/index</div></td></tr><tr><td><div><table></table></div></td></tr></table></div></td></tr><tr><td><div><table><tr><td><div><span class="highlighted">web2py</span></div></td></tr><tr><td><div>False</div></td></tr><tr><td><div>http://web2py.com</div></td></tr><tr><td><div><table><tr><td><div><table><tr><td><div>My Sites</div></td></tr><tr><td><div>False</div></td></tr><tr><td><div>/admin/default/site</div></td></tr></table></div></td></tr><tr><td><div><table><tr><td><div>This App</div></td></tr><tr><td><div>False</div></td></tr><tr><td><div>/admin/default/design/todo</div></td></tr><tr><td><div>[(&lt;lazyT &#x27;Controller&#x27;&gt;, False, &#x27;/admin/default/edit/todo/controllers/default.py&#x27;), (&lt;lazyT &#x27;View&#x27;&gt;, False, &#x27;/admin/default/edit/todo/views/default/display_form.html&#x27;), (&lt;lazyT &#x27;Layout&#x27;&gt;, False, &#x27;/admin/default/edit/todo/views/layout.html&#x27;), (&lt;lazyT &#x27;Stylesheet&#x27;&gt;, False, &#x27;/admin/default/edit/todo/static/css/web2py.css&#x27;), (&lt;lazyT &#x27;DB Model&#x27;&gt;, False, &#x27;/admin/default/edit/todo/models/db.py&#x27;), (&lt;lazyT &#x27;Menu Model&#x27;&gt;, False, &#x27;/admin/default/edit/todo/models/menu.py&#x27;), (&lt;lazyT &#x27;Database&#x27;&gt;, False, &#x27;/todo/appadmin/index&#x27;), (&lt;lazyT &#x27;Errors&#x27;&gt;, False, &#x27;/admin/default/errors/todo&#x27;), (&lt;lazyT &#x27;About&#x27;&gt;, False, &#x27;/admin/default/about/todo&#x27;)]</div></td></tr></table></div></td></tr><tr><td><div><table><tr><td><div>web2py.com</div></td></tr><tr><td><div>False</div></td></tr><tr><td><div>http://www.web2py.com</div></td></tr><tr><td><div>[(&lt;lazyT &#x27;Download&#x27;&gt;, False, &#x27;http://www.web2py.com/examples/default/download&#x27;), (&lt;lazyT &#x27;Support&#x27;&gt;, False, &#x27;http://www.web2py.com/examples/default/support&#x27;), (&lt;lazyT &#x27;Demo&#x27;&gt;, False, &#x27;http://web2py.com/demo_admin&#x27;), (&lt;lazyT &#x27;Quick Examples&#x27;&gt;, False, &#x27;http://web2py.com/examples/default/examples&#x27;), (&lt;lazyT &#x27;FAQ&#x27;&gt;, False, &#x27;http://web2py.com/AlterEgo&#x27;), (&lt;lazyT &#x27;Videos&#x27;&gt;, False, &#x27;http://www.web2py.com/examples/default/videos/&#x27;), (&lt;lazyT &#x27;Free Applications&#x27;&gt;, False, &#x27;http://web2py.com/appliances&#x27;), (&lt;lazyT &#x27;Plugins&#x27;&gt;, False, &#x27;http://web2py.com/plugins&#x27;), (&lt;lazyT &#x27;Layouts&#x27;&gt;, False, &#x27;http://web2py.com/layouts&#x27;), (&lt;lazyT &#x27;Recipes&#x27;&gt;, False, &#x27;http://web2pyslices.com/&#x27;), (&lt;lazyT &#x27;Semantic&#x27;&gt;, False, &#x27;http://web2py.com/semantic&#x27;)]</div></td></tr></table></div></td></tr><tr><td><div><table><tr><td><div>Documentation</div></td></tr><tr><td><div>False</div></td></tr><tr><td><div>http://www.web2py.com/book</div></td></tr><tr><td><div>[(&lt;lazyT &#x27;Preface&#x27;&gt;, False, &#x27;http://www.web2py.com/book/default/chapter/00&#x27;), (&lt;lazyT &#x27;Introduction&#x27;&gt;, False, &#x27;http://www.web2py.com/book/default/chapter/01&#x27;), (&lt;lazyT &#x27;Python&#x27;&gt;, False, &#x27;http://www.web2py.com/book/default/chapter/02&#x27;), (&lt;lazyT &#x27;Overview&#x27;&gt;, False, &#x27;http://www.web2py.com/book/default/chapter/03&#x27;), (&lt;lazyT &#x27;The Core&#x27;&gt;, False, &#x27;http://www.web2py.com/book/default/chapter/04&#x27;), (&lt;lazyT &#x27;The Views&#x27;&gt;, False, &#x27;http://www.web2py.com/book/default/chapter/05&#x27;), (&lt;lazyT &#x27;Database&#x27;&gt;, False, &#x27;http://www.web2py.com/book/default/chapter/06&#x27;), (&lt;lazyT &#x27;Forms and Validators&#x27;&gt;, False, &#x27;http://www.web2py.com/book/default/chapter/07&#x27;), (&lt;lazyT &#x27;Email and SMS&#x27;&gt;, False, &#x27;http://www.web2py.com/book/default/chapter/08&#x27;), (&lt;lazyT &#x27;Access Control&#x27;&gt;, False, &#x27;http://www.web2py.com/book/default/chapter/09&#x27;), (&lt;lazyT &#x27;Services&#x27;&gt;, False, &#x27;http://www.web2py.com/book/default/chapter/10&#x27;), (&lt;lazyT &#x27;Ajax Recipes&#x27;&gt;, False, &#x27;http://www.web2py.com/book/default/chapter/11&#x27;), (&lt;lazyT &#x27;Components and Plugins&#x27;&gt;, False, &#x27;http://www.web2py.com/book/default/chapter/12&#x27;), (&lt;lazyT &#x27;Deployment Recipes&#x27;&gt;, False, &#x27;http://www.web2py.com/book/default/chapter/13&#x27;), (&lt;lazyT &#x27;Other Recipes&#x27;&gt;, False, &#x27;http://www.web2py.com/book/default/chapter/14&#x27;), (&lt;lazyT &#x27;Buy this book&#x27;&gt;, False, &#x27;http://stores.lulu.com/web2py&#x27;)]</div></td></tr></table></div></td></tr><tr><td><div><table><tr><td><div>Community</div></td></tr><tr><td><div>False</div></td></tr><tr><td><div>None</div></td></tr><tr><td><div>[(&lt;lazyT &#x27;Groups&#x27;&gt;, False, &#x27;http://www.web2py.com/examples/default/usergroups&#x27;), (&lt;lazyT &#x27;Twitter&#x27;&gt;, False, &#x27;http://twitter.com/web2py&#x27;), (&lt;lazyT &#x27;Live Chat&#x27;&gt;, False, &#x27;http://webchat.freenode.net/?channels=web2py&#x27;)]</div></td></tr></table></div></td></tr><tr><td><div><table><tr><td><div>Plugins</div></td></tr><tr><td><div>False</div></td></tr><tr><td><div>None</div></td></tr><tr><td><div>[(&#x27;plugin_wiki&#x27;, False, &#x27;http://web2py.com/examples/default/download&#x27;), (&lt;lazyT &#x27;Other Plugins&#x27;&gt;, False, &#x27;http://web2py.com/plugins&#x27;), (&lt;lazyT &#x27;Layout Plugins&#x27;&gt;, False, &#x27;http://web2py.com/layouts&#x27;)]</div></td></tr></table></div></td></tr></table></div></td></tr></table></div></td></tr></table></div></td></tr><tr><td style="font-weight:bold;vertical-align:top">meta</td><td valign="top">:</td><td><div><table><tr><td style="font-weight:bold;vertical-align:top">author</td><td valign="top">:</td><td><div>Your Name &lt;you@example.com&gt;</div></td></tr><tr><td style="font-weight:bold;vertical-align:top">description</td><td valign="top">:</td><td><div>a cool new app</div></td></tr><tr><td style="font-weight:bold;vertical-align:top">generator</td><td valign="top">:</td><td><div>Web2py Web Framework</div></td></tr><tr><td style="font-weight:bold;vertical-align:top">keywords</td><td valign="top">:</td><td><div>web2py, python, framework</div></td></tr></table></div></td></tr><tr><td style="font-weight:bold;vertical-align:top">models_to_run</td><td valign="top">:</td><td><div><table><tr><td><div>^\\w+\\.py$</div></td></tr><tr><td><div>^default/\\w+\\.py$</div></td></tr><tr><td><div>^default/display_form/\\w+\\.py$</div></td></tr></table></div></td></tr><tr><td style="font-weight:bold;vertical-align:top">postprocessing</td><td valign="top">:</td><td><div><table></table></div></td></tr><tr><td style="font-weight:bold;vertical-align:top">session_cookie_expires</td><td valign="top">:</td><td><div>None</div></td></tr><tr><td style="font-weight:bold;vertical-align:top">session_data_name</td><td valign="top">:</td><td><div>session_data_todo</div></td></tr><tr><td style="font-weight:bold;vertical-align:top">session_file</td><td valign="top">:</td><td><div>&lt;open file &#x27;/home/monika/Desktop/web2py/applications/todo/sessions/127.0.0.1-33ad01bd-2567-400b-a758-a676e79347ee&#x27;, mode &#x27;rb+&#x27; at 0x7f8d9c2de8a0&gt;</div></td></tr><tr><td style="font-weight:bold;vertical-align:top">session_filename</td><td valign="top">:</td><td><div>/home/monika/Desktop/web2py/applications/todo/sessions/127.0.0.1-33ad01bd-2567-400b-a758-a676e79347ee</div></td></tr><tr><td style="font-weight:bold;vertical-align:top">session_id</td><td valign="top">:</td><td><div>127.0.0.1-33ad01bd-2567-400b-a758-a676e79347ee</div></td></tr><tr><td style="font-weight:bold;vertical-align:top">session_id_name</td><td valign="top">:</td><td><div>session_id_todo</div></td></tr><tr><td style="font-weight:bold;vertical-align:top">session_locked</td><td valign="top">:</td><td><div>True</div></td></tr><tr><td style="font-weight:bold;vertical-align:top">session_new</td><td valign="top">:</td><td><div>False</div></td></tr><tr><td style="font-weight:bold;vertical-align:top">session_storage_type</td><td valign="top">:</td><td><div>file</div></td></tr><tr><td style="font-weight:bold;vertical-align:top">status</td><td valign="top">:</td><td><div>200</div></td></tr><tr><td style="font-weight:bold;vertical-align:top">subtitle</td><td valign="top">:</td><td><div>customize me!</div></td></tr><tr><td style="font-weight:bold;vertical-align:top">title</td><td valign="top">:</td><td><div>Todo</div></td></tr><tr><td style="font-weight:bold;vertical-align:top">view</td><td valign="top">:</td><td><div>default/display_form.html</div></td></tr></table></div>'
tRp269
sS'locals'
p270
(dp271
S'status'
p272
S'13'
p273
sg12
S"[u'    at fxdriver.modals.findButton_ (file:///tm...glecode.com/components/driver_component.js:7981)', u'    at fxdriver.modals.acceptAlert (file:///tm...glecode.com/components/driver_component.js:7952)', u'    at FirefoxDriver.prototype.acceptAlert (fi...glecode.com/components/driver_component.js:8660)', u'    at DelayedCommand.prototype.executeInterna...ecode.com/components/command_processor.js:10456)', u'    at fxdriver.Timer.prototype.setTimeout/<.n...glecode.com/components/command_processor.js:386)']"
p274
sS'frame'
p275
S"{u'fileName': u'file:///tmp/tmp_x23CQ/extensions/fxdriver@googlecode.com/components/command_processor.js', u'lineNumber': 386, u'methodName': u'fxdriver.Timer.prototype.setTimeout/<.notify'}"
p276
sS'line'
p277
S'386'
p278
sS'value'
p279
S"{u'message': u'a is null', u'stackTrace': [{u'fileName': u'file:///tmp/tmp_x23CQ/extensions/fxdriver@googlecode.com/components/driver_component.js', u'lineNumber': 7981, u'methodName': u'fxdriver.modals.findButton_'}, {u'fileName': u'file:///tmp/tmp_x23CQ/extensions/fxdriver@googlecode.com/components/driver_component.js', u'lineNumber': 7952, u'methodName': u'fxdriver.modals.acceptAlert'}, {u'fileName': u'file:///tmp/tmp_x23CQ/extensions/fxdriver@googlecode.com/components/driver_component.js', u'lineNumber': 8660, u'methodName': u'FirefoxDriver.prototype.acceptAlert'}, {u'fileName': u'file:///tmp/tmp_x23CQ/extensions/fxdriver@googlecode.com/components/command_processor.js', u'lineNumber': 10456, u'methodName': u'DelayedCommand.prototype.executeInternal_/h'}, {u'fileName': u'file:///tmp/tmp_x23CQ/extensions/fxdriver@googlecode.com/components/command_processor.js', u'lineNumber': 386, u'methodName': u'fxdriver.Timer.prototype.setTimeout/<.notify'}]}"
p280
sS'self'
p281
S'<selenium.webdriver.remote.errorhandler.ErrorHandler object>'
p282
sS'exception_class'
p283
S"<class 'selenium.common.exceptions.WebDriverException'>"
p284
sg72
S"u'file:///tmp/tmp_x23CQ/extensions/fxdriver@googlecode.com/components/command_processor.js:386'"
p285
sg268
S"{u'name': u'acceptAlert', u'sessionId': u'9e86c672-71fc-4356-85d1-14a68e1b1993', u'status': 13, u'value': {u'message': u'a is null', u'stackTrace': [{u'fileName': u'file:///tmp/tmp_x23CQ/extensions/fxdriver@googlecode.com/components/driver_component.js', u'lineNumber': 7981, u'methodName': u'fxdriver.modals.findButton_'}, {u'fileName': u'file:///tmp/tmp_x23CQ/extensions/fxdriver@googlecode.com/components/driver_component.js', u'lineNumber': 7952, u'methodName': u'fxdriver.modals.acceptAlert'}, {u'fileName': u'file:///tmp/tmp_x23CQ/extensions/fxdriver@googlecode.com/components/driver_component.js', u'lineNumber': 8660, u'methodName': u'FirefoxDriver.prototype.acceptAlert'}, {u'fileName': u'file:///tmp/tmp_x23CQ/extensions/fxdriver@googlecode.com/components/command_processor.js', u'lineNumber': 10456, u'methodName': u'DelayedCommand.prototype.executeInternal_/h'}, {u'fileName': u'file:///tmp/tmp_x23CQ/extensions/fxdriver@googlecode.com/components/command_processor.js', u'lineNumber': 386, u'methodName': u'fxdriver.Timer.prototype.setTimeout/<.notify'}]}}"
p286
sg40
S"u'    at fxdriver.Timer.prototype.setTimeout/<.n...glecode.com/components/command_processor.js:386)'"
p287
sS'meth'
p288
S"u'fxdriver.Timer.prototype.setTimeout/<.notify'"
p289
sg50
S'None'
p290
sS'message'
p291
S"u'a is null'"
p292
sssS'traceback'
p293
S'Traceback (most recent call last):\n  File "/home/monika/Desktop/web2py/gluon/restricted.py", line 212, in restricted\n    exec ccode in environment\n  File "/home/monika/Desktop/web2py/applications/todo/controllers/default.py", line 126, in <module>\n  File "/home/monika/Desktop/web2py/gluon/globals.py", line 194, in <lambda>\n    self._caller = lambda f: f()\n  File "/home/monika/Desktop/web2py/applications/todo/controllers/default.py", line 119, in display_form\n    test_script(test_case_no)\n  File "/home/monika/Desktop/web2py/applications/todo/models/test.py", line 66, in test_script\n    isImage(driver,xml_sub_child,table_path)\n  File "/home/monika/Desktop/web2py/applications/todo/models/test.py", line 214, in isImage\n    alert.accept()\n  File "/usr/local/lib/python2.7/dist-packages/selenium-2.33.0-py2.7.egg/selenium/webdriver/common/alert.py", line 35, in accept\n    self.driver.execute(Command.ACCEPT_ALERT)\n  File "/usr/local/lib/python2.7/dist-packages/selenium-2.33.0-py2.7.egg/selenium/webdriver/remote/webdriver.py", line 165, in execute\n    self.error_handler.check_response(response)\n  File "/usr/local/lib/python2.7/dist-packages/selenium-2.33.0-py2.7.egg/selenium/webdriver/remote/errorhandler.py", line 158, in check_response\n    raise exception_class(message, screen, stacktrace)\nWebDriverException: Message: u\'a is null\' ; Stacktrace: \n    at fxdriver.modals.findButton_ (file:///tmp/tmp_x23CQ/extensions/fxdriver@googlecode.com/components/driver_component.js:7981)\n    at fxdriver.modals.acceptAlert (file:///tmp/tmp_x23CQ/extensions/fxdriver@googlecode.com/components/driver_component.js:7952)\n    at FirefoxDriver.prototype.acceptAlert (file:///tmp/tmp_x23CQ/extensions/fxdriver@googlecode.com/components/driver_component.js:8660)\n    at DelayedCommand.prototype.executeInternal_/h (file:///tmp/tmp_x23CQ/extensions/fxdriver@googlecode.com/components/command_processor.js:10456)\n    at fxdriver.Timer.prototype.setTimeout/<.notify (file:///tmp/tmp_x23CQ/extensions/fxdriver@googlecode.com/components/command_processor.js:386) \n'
p294
s.