(dp1
S'output'
p2
S"<class 'urllib2.URLError'> <urlopen error [Errno 111] Connection refused>"
p3
sS'layer'
p4
S'/home/baadalvm/Desktop/web2py/applications/testapp/controllers/default.py'
p5
sS'code'
p6
S'# -*- coding: utf-8 -*-\n# this file is released under public domain and you can use without limitations\n\n#########################################################################\n## This is a sample controller\n## - index is the default action of any application\n## - user is required for authentication and authorization\n## - download is for downloading files uploaded in the db (does streaming)\n## - call exposes all registered services (none by default)\n#########################################################################\ndef user():\n    """\n    exposes:\n    http://..../[app]/default/user/login\n    http://..../[app]/default/user/logout\n    http://..../[app]/default/user/register\n    http://..../[app]/default/user/profile\n    http://..../[app]/default/user/retrieve_password\n    http://..../[app]/default/user/change_password\n    http://..../[app]/default/user/manage_users (requires membership in \n    use @auth.requires_login()\n        @auth.requires_membership(\'group name\')\n        @auth.requires_permission(\'read\',\'table name\',record_id)\n    to decorate functions that need access control\n    """\n    return dict(form=auth())\n\n#@cache.action()\ndef download():\n    """\n    allows downloading of uploaded files\n    http://..../[app]/default/download/[filename]\n    """\n    return response.download(request, db)\n\n\ndef call():\n    """\n    exposes services. for example:\n    http://..../[app]/default/call/jsonrpc\n    decorate with @services.jsonrpc the functions to expose\n    supports xml, json, xmlrpc, jsonrpc, amfrpc, rss, csv\n    """\n    return service()\n\n\n@auth.requires_signature()\ndef data():\n    """\n    http://..../[app]/default/data/tables\n    http://..../[app]/default/data/create/[table]\n    http://..../[app]/default/data/read/[table]/[id]\n    http://..../[app]/default/data/update/[table]/[id]\n    http://..../[app]/default/data/delete/[table]/[id]\n    http://..../[app]/default/data/select/[table]\n    http://..../[app]/default/data/search/[table]\n    but URLs must be signed, i.e. linked with\n      A(\'table\',_href=URL(\'data/tables\',user_signature=True))\n    or with the signed load operator\n      LOAD(\'default\',\'data.load\',args=\'tables\',ajax=True,user_signature=True)\n    """\n    return dict(form=crud())\n    \n    \n    \ndef unit_testing():\n    import commands\n    form = FORM(  TABLE\n         ( \n            TR(INPUT(_name=\'testcase1\', _type=\'checkbox\', _value="1"),\'Login\'),\n            TR(INPUT(_name=\'testcase2\', _type=\'checkbox\', _value="2"),\'Request VM\'),\n            TR(INPUT(_name=\'testcase3\', _type=\'checkbox\', _value="3"),\'My Pending VMs\'),\n            TR(INPUT(_name=\'testcase46\', _type=\'checkbox\', _value="46"),\'My VMs\'),\n            TR(INPUT(_name=\'testcase4\', _type=\'checkbox\', _value="4"),\'My Pending Tasks\'),\n            TR(INPUT(_name=\'testcase5\', _type=\'checkbox\', _value="5"),\'My Completed Tasks\'),\n            TR(INPUT(_name=\'testcase6\', _type=\'checkbox\', _value="6"),\'My Failed Taskss\'),\n            TR(INPUT(_name=\'testcase7\', _type=\'checkbox\', _value="7"),\'Pending Faculty-Level VM Approvals\'),\n            TR(INPUT(_name=\'testcase8\', _type=\'checkbox\', _value="8"),\'Pending Org-Level VM Approvals\'),\n           TR(INPUT(_name=\'testcase9\', _type=\'checkbox\', _value="9"),\'List All Org-Level VMs\',),\n           TR(INPUT(_name=\'testcase10\', _type=\'checkbox\', _value="10"),\'All VMs\'),\n            TR(INPUT(_name=\'testcase50\', _type=\'checkbox\', _value="50"),\'Pending VM Requests\'),\n           TR(INPUT(_name=\'testcase11\', _type=\'checkbox\', _value="11"),\'Host and VMs\',),\n           TR(INPUT(_name=\'testcase12\', _type=\'checkbox\', _value="12"),\'Pending Tasks\'),\n           TR(INPUT(_name=\'testcase13\', _type=\'checkbox\', _value="13"),\'Completed Tasks\'),\n           TR(INPUT(_name=\'testcase14\', _type=\'checkbox\', _value="14"),\'Failed Tasks\'),\n           TR(INPUT(_name=\'testcase15\', _type=\'checkbox\', _value="15"),\'Configure System: Add Host\'),\n           TR(INPUT(_name=\'testcase16\', _type=\'checkbox\', _value="16"),\'Configure System: Add Template\'),\n           TR(INPUT(_name=\'testcase17\', _type=\'checkbox\', _value="17"),\'Configure System: Add Datastore\'),\n           TR(INPUT(_name=\'testcase18\', _type=\'checkbox\', _value="18"),\'Take VM snapshot    (Running )\'),\n           \n           TR(INPUT(_name=\'testcase19\', _type=\'checkbox\', _value="19"),\'Check VM performance   (Running )\'),\n           TR(INPUT(_name=\'testcase20\', _type=\'checkbox\', _value="20"),\'Pause VM    (Running )\'),\n           \n           TR(INPUT(_name=\'testcase21\', _type=\'checkbox\', _value="21"),\'Add User to VM   (Running )\'),\n           \n           TR(INPUT(_name=\'testcase22\', _type=\'checkbox\', _value="22"),\'Delete VM    (Running)\'),\n           TR(INPUT(_name=\'testcase23\', _type=\'checkbox\', _value="23"),\'Gracefully shut down VM    (Running )\'),\n           TR(INPUT(_name=\'testcase24\', _type=\'checkbox\', _value="24"),\'Forcefully power off VM   (Running )\'),\n            TR(INPUT(_name=\'testcase25\', _type=\'checkbox\', _value="25"),\'Attach Extra Disk to VM   (Running )\'),\n          \n           TR(INPUT(_name=\'testcase26\', _type=\'checkbox\', _value="26"),\'Take VM snapshot   (Paused )\'),\n           TR(INPUT(_name=\'testcase27\', _type=\'checkbox\', _value="27"),\'Check VM performance   (Paused )\'),\n           TR(INPUT(_name=\'testcase28\', _type=\'checkbox\', _value="28"),\'Unpause VM   (Paused )\'),\n           TR(INPUT(_name=\'testcase29\', _type=\'checkbox\', _value="29"),\'Add User to VM  (Paused )\'),\n           TR(INPUT(_name=\'testcase30\', _type=\'checkbox\', _value="30"),\'Delete VM   (Paused )\'),\n           TR(INPUT(_name=\'testcase31\', _type=\'checkbox\', _value="31"),\'Adjust VM Resources Utilization   (Paused )\'),\n           TR(INPUT(_name=\'testcase32\', _type=\'checkbox\', _value="32"),\'Forcefully power off VM   (Paused)\'),\n           TR(INPUT(_name=\'testcase33\', _type=\'checkbox\', _value="33"),\'Delete Addtional User   (Paused )\'), \n           TR(INPUT(_name=\'testcase49\', _type=\'checkbox\', _value="49"),\'Revert Snapshot    (Paused )\'),\n           TR(INPUT(_name=\'testcase42\', _type=\'checkbox\', _value="42"),\'Delete Snapshot    (Paused )\'),\n           TR(INPUT(_name=\'testcase34\', _type=\'checkbox\', _value="34"),\'Check VM performance   (Shutdown )\'),\n           TR(INPUT(_name=\'testcase35\', _type=\'checkbox\', _value="35"),\'Turn on VM   (Shutdown )\'),\n           TR(INPUT(_name=\'testcase36\', _type=\'checkbox\', _value="36"),\'Add User to VM  (Shutdown)\'),\n           TR(INPUT(_name=\'testcase37\', _type=\'checkbox\', _value="37"),\'Delete VM   (Shutdown )\'),\n           TR(INPUT(_name=\'testcase38\', _type=\'checkbox\', _value="38"),\'Attach Extra Disk  (Shutdown )\'),\n           TR(INPUT(_name=\'testcase39\', _type=\'checkbox\', _value="39"),\'Request Clone VM   (Shutdown )\'),\n            TR(INPUT(_name=\'testcase40\', _type=\'checkbox\', _value="40"),\'Edit VM Config   (Shutdown )\'),\n           TR(INPUT(_name=\'testcase41\', _type=\'checkbox\', _value="41"),\'Assign VNC   (Shutdown )\'),\n           \n           TR(INPUT(_name=\'testcase43\', _type=\'checkbox\', _value="43"),\'Take VM snapshot   (Shutdown )\'),\n\n            TR(INPUT(_name=\'testcase44\', _type=\'checkbox\', _value="44"),\'Configure System: Host Setting\'),\n           TR(INPUT(_name=\'testcase45\', _type=\'checkbox\', _value="45"),\'Configure System: Host table\'),  \n           TR(INPUT(_name=\'testcase47\', _type=\'checkbox\', _value="47"),\'Approve VM\'),\n           TR(INPUT(_name=\'testcase48\', _type=\'checkbox\', _value="48"),\'Reject VM\'),\n           \n           BR(),\n           TR(INPUT(_type=\'submit\',_value=\'submit\'))\n          )\n      )\n    if form.process().accepted:\n        for i in range(1,52):\n            test_case_no=request.vars[\'testcase\'+str(i)]\n            if test_case_no!=None:\n                test_script(test_case_no)\n    elif form.errors:\n        response.flash = \'form has errors\'\n    else:\n        response.flash = \'please fill the form\'\n    return dict(form=form)\n    \n\ndef index():\n    try:\n        import commands\n        form = FORM( TABLE\n                  (  TR(INPUT(_name=\'testcase1\', _type=\'radio\', _value="1"),\'Unit Testing\'),\n                     TR(INPUT(_name=\'testcase2\', _type=\'radio\', _value="2"),\'Integration Testing\'),\n                     TR(INPUT(_name=\'testcase3\', _type=\'radio\', _value="3"),\'Stress Testing\'),\n                     BR(),\n                     TR(INPUT(_type=\'submit\',_value=\'submit\'))\n                  )\n                )        \n        if form.process().accepted:\n            if request.vars[\'testcase1\']!=None:\n                redirect(URL(\'unit_testing\'))\n            if request.vars[\'testcase2\']!=None:\n                redirect(URL(\'integration_testing\')) \n            if request.vars[\'testcase3\']!=None:\n                redirect(URL(\'stress_testing\'))          \n        elif form.errors:\n            response.flash = \'form has errors\'\n        else:\n            response.flash = \'please fill the form\'\n        return dict(form=form)\n    except Exception as e:\n        print e\n\n\ndef stress_testing(): \n\n    import commands\n    form = FORM(  TABLE\n        (   TR(INPUT(_name=\'testcase0\', _type=\'checkbox\', _value="0"),\'All\'), \n            BR(),\n            TR(INPUT(_type=\'submit\',_value=\'submit\'))\n        )\n        )\n              \n    if form.process().accepted:\n        test_case_no=request.vars[\'testcase0\']\n        if test_case_no!=None:\n            stress_test_script()\n    elif form.errors:\n        response.flash = \'form has errors\'\n    else:\n        response.flash = \'please fill the form\'\n    return dict(form=form)\n    \n   \ndef integration_testing(): \n    import commands\n    form = FORM(  TABLE\n                  (   \n                       TR(INPUT(_name=\'testcase52\', _type=\'checkbox\', _value="52"),\'Take VM snapshot    (Running )\'),\n           \n           TR(INPUT(_name=\'testcase53\', _type=\'checkbox\', _value="53"),\'Check VM performance   (Running )\'),\n           TR(INPUT(_name=\'testcase54\', _type=\'checkbox\', _value="54"),\'Pause VM    (Running )\'),\n           \n           TR(INPUT(_name=\'testcase55\', _type=\'checkbox\', _value="55"),\'Add User to VM   (Running )\'),\n           \n           TR(INPUT(_name=\'testcase56\', _type=\'checkbox\', _value="56"),\'Delete VM    (Running)\'),\n           TR(INPUT(_name=\'testcase57\', _type=\'checkbox\', _value="57"),\'Gracefully shut down VM    (Running )\'),\n           TR(INPUT(_name=\'testcase58\', _type=\'checkbox\', _value="58"),\'Forcefully power off VM   (Running )\'),\n            TR(INPUT(_name=\'testcase59\', _type=\'checkbox\', _value="59"),\'Attach Extra Disk to VM   (Running )\'),\n                      TR(INPUT(_name=\'testcase60\', _type=\'checkbox\', _value="60"),\'Faculty Request VM(Approved by org-admin)\'),\n                      TR(INPUT(_name=\'testcase61\', _type=\'checkbox\', _value="61"),\'Faculty Request VM(Rejected by org-admin)\'),\n                      TR(INPUT(_name=\'testcase62\', _type=\'checkbox\', _value="62"),\'Admin Request VM(Approved by org-admin)\'),\n                      TR(INPUT(_name=\'testcase63\', _type=\'checkbox\', _value="63"),\'Admin Request VM(Rejected by org-admin)\'),\n                      TR(INPUT(_name=\'testcase64\', _type=\'checkbox\', _value="64"),\'User Request VM(Approved by Faculty and org-admin)\'),\n                      TR(INPUT(_name=\'testcase65\', _type=\'checkbox\', _value="65"),\'User Request VM(Rejected by Faculty)\'),\n                      TR(INPUT(_name=\'testcase66\', _type=\'checkbox\', _value="66"),\'User Request VM(Approved by Faculty and Rejected by org-admin)\'),\n                      TR(INPUT(_name=\'testcase67\', _type=\'checkbox\', _value="67"),\'Configure Host\'),\n                      TR(INPUT(_name=\'testcase68\', _type=\'checkbox\', _value="68"),\'Configure Template\'),\n                      TR(INPUT(_name=\'testcase69\', _type=\'checkbox\', _value="69"),\'Configure Datastore\'),\n                      \n                      BR(),\n                      TR(INPUT(_type=\'submit\',_value=\'submit\'))\n                  )\n              )\n    if form.process().accepted:\n        for i in range(52,70):\n            test_case_no=request.vars[\'testcase\'+str(i)]\n            if test_case_no!=None:\n                test_script(test_case_no)\n    elif form.errors:\n        response.flash = \'form has errors\'\n    else:\n        response.flash = \'please fill the form\'\n    return dict(form=form)\n\nresponse._vars=response._caller(integration_testing)\n'
p7
sS'snapshot'
p8
(dp9
S'exception'
p10
(dp11
S'__module__'
p12
S"'urllib2'"
p13
sS'__getslice__'
p14
S"<method-wrapper '__getslice__' of URLError object>"
p15
sS'__str__'
p16
S"<bound method URLError.__str__ of URLError(error(111, 'Connection refused'),)>"
p17
sS'__reduce__'
p18
S'<built-in method __reduce__ of URLError object>'
p19
sS'__dict__'
p20
S"{'reason': error(111, 'Connection refused')}"
p21
sS'__sizeof__'
p22
S'<built-in method __sizeof__ of URLError object>'
p23
sS'__weakref__'
p24
S'None'
p25
sS'__init__'
p26
S"<bound method URLError.__init__ of URLError(error(111, 'Connection refused'),)>"
p27
sS'__setattr__'
p28
S"<method-wrapper '__setattr__' of URLError object>"
p29
sS'__reduce_ex__'
p30
S'<built-in method __reduce_ex__ of URLError object>'
p31
sS'__new__'
p32
S'<built-in method __new__ of type object>'
p33
sS'errno'
p34
S'None'
p35
sS'__format__'
p36
S'<built-in method __format__ of URLError object>'
p37
sS'__class__'
p38
S"<class 'urllib2.URLError'>"
p39
sS'filename'
p40
S'None'
p41
sS'__doc__'
p42
S'None'
p43
sS'__getitem__'
p44
S"<method-wrapper '__getitem__' of URLError object>"
p45
sS'__setstate__'
p46
S'<built-in method __setstate__ of URLError object>'
p47
sS'__getattribute__'
p48
S"<method-wrapper '__getattribute__' of URLError object>"
p49
sS'args'
p50
S"(error(111, 'Connection refused'),)"
p51
sS'reason'
p52
S"error(111, 'Connection refused')"
p53
sS'__subclasshook__'
p54
S'<built-in method __subclasshook__ of type object>'
p55
sS'__unicode__'
p56
S'<built-in method __unicode__ of URLError object>'
p57
sS'strerror'
p58
S'None'
p59
sS'__delattr__'
p60
S"<method-wrapper '__delattr__' of URLError object>"
p61
sS'__repr__'
p62
S"<method-wrapper '__repr__' of URLError object>"
p63
sS'__hash__'
p64
S"<method-wrapper '__hash__' of URLError object>"
p65
ssS'evalue'
p66
S'<urlopen error [Errno 111] Connection refused>'
p67
sS'request'
p68
cgluon.html
XML_unpickle
p69
(S's\xbcZ\x00\x00<div><table><tr><td style="font-weight:bold;vertical-align:top">ajax</td><td valign="top">:</td><td><div>False</div></td></tr><tr><td style="font-weight:bold;vertical-align:top">application</td><td valign="top">:</td><td><div>testapp</div></td></tr><tr><td style="font-weight:bold;vertical-align:top">args</td><td valign="top">:</td><td><div><table></table></div></td></tr><tr><td style="font-weight:bold;vertical-align:top">body</td><td valign="top">:</td><td><div>&lt;open file &#x27;&lt;fdopen&gt;&#x27;, mode &#x27;w+b&#x27; at 0x7f10186a45d0&gt;</div></td></tr><tr><td style="font-weight:bold;vertical-align:top">cid</td><td valign="top">:</td><td><div>None</div></td></tr><tr><td style="font-weight:bold;vertical-align:top">client</td><td valign="top">:</td><td><div>127.0.0.1</div></td></tr><tr><td style="font-weight:bold;vertical-align:top">controller</td><td valign="top">:</td><td><div>default</div></td></tr><tr><td style="font-weight:bold;vertical-align:top">cookies</td><td valign="top">:</td><td><div><table><tr><td style="font-weight:bold;vertical-align:top">session_id_admin</td><td valign="top">:</td><td><div>127.0.0.1-c03a1785-6c97-4bd5-9d61-1318aa2c4b2a<table><tr><td style="font-weight:bold;vertical-align:top">comment</td><td valign="top">:</td><td><div></div></td></tr><tr><td style="font-weight:bold;vertical-align:top">domain</td><td valign="top">:</td><td><div></div></td></tr><tr><td style="font-weight:bold;vertical-align:top">expires</td><td valign="top">:</td><td><div></div></td></tr><tr><td style="font-weight:bold;vertical-align:top">httponly</td><td valign="top">:</td><td><div></div></td></tr><tr><td style="font-weight:bold;vertical-align:top">max-age</td><td valign="top">:</td><td><div></div></td></tr><tr><td style="font-weight:bold;vertical-align:top">path</td><td valign="top">:</td><td><div></div></td></tr><tr><td style="font-weight:bold;vertical-align:top">secure</td><td valign="top">:</td><td><div></div></td></tr><tr><td style="font-weight:bold;vertical-align:top">version</td><td valign="top">:</td><td><div></div></td></tr></table></div></td></tr><tr><td style="font-weight:bold;vertical-align:top">session_id_testapp</td><td valign="top">:</td><td><div>127.0.0.1-dd47d52c-4b88-4676-a570-0fe9f1f73d2b<table><tr><td style="font-weight:bold;vertical-align:top">comment</td><td valign="top">:</td><td><div></div></td></tr><tr><td style="font-weight:bold;vertical-align:top">domain</td><td valign="top">:</td><td><div></div></td></tr><tr><td style="font-weight:bold;vertical-align:top">expires</td><td valign="top">:</td><td><div></div></td></tr><tr><td style="font-weight:bold;vertical-align:top">httponly</td><td valign="top">:</td><td><div></div></td></tr><tr><td style="font-weight:bold;vertical-align:top">max-age</td><td valign="top">:</td><td><div></div></td></tr><tr><td style="font-weight:bold;vertical-align:top">path</td><td valign="top">:</td><td><div></div></td></tr><tr><td style="font-weight:bold;vertical-align:top">secure</td><td valign="top">:</td><td><div></div></td></tr><tr><td style="font-weight:bold;vertical-align:top">version</td><td valign="top">:</td><td><div></div></td></tr></table></div></td></tr><tr><td style="font-weight:bold;vertical-align:top">session_id_welcome</td><td valign="top">:</td><td><div>127.0.0.1-d8f78e71-419e-4cea-ac0c-28ec966476e6<table><tr><td style="font-weight:bold;vertical-align:top">comment</td><td valign="top">:</td><td><div></div></td></tr><tr><td style="font-weight:bold;vertical-align:top">domain</td><td valign="top">:</td><td><div></div></td></tr><tr><td style="font-weight:bold;vertical-align:top">expires</td><td valign="top">:</td><td><div></div></td></tr><tr><td style="font-weight:bold;vertical-align:top">httponly</td><td valign="top">:</td><td><div></div></td></tr><tr><td style="font-weight:bold;vertical-align:top">max-age</td><td valign="top">:</td><td><div></div></td></tr><tr><td style="font-weight:bold;vertical-align:top">path</td><td valign="top">:</td><td><div></div></td></tr><tr><td style="font-weight:bold;vertical-align:top">secure</td><td valign="top">:</td><td><div></div></td></tr><tr><td style="font-weight:bold;vertical-align:top">version</td><td valign="top">:</td><td><div></div></td></tr></table></div></td></tr></table></div></td></tr><tr><td style="font-weight:bold;vertical-align:top">env</td><td valign="top">:</td><td><div><table><tr><td style="font-weight:bold;vertical-align:top">app_folders</td><td valign="top">:</td><td><div>set([&#x27;/home/baadalvm/Desktop/web2py/applications/testapp/&#x27;, &#x27;/home/baadalvm/Desktop/web2py/applications/admin/&#x27;, &#x27;/home/baadalvm/Desktop/web2py/applications/welcome/&#x27;])</div></td></tr><tr><td style="font-weight:bold;vertical-align:top">applications_parent</td><td valign="top">:</td><td><div>/home/baadalvm/Desktop/web2py</div></td></tr><tr><td style="font-weight:bold;vertical-align:top">cmd_args</td><td valign="top">:</td><td><div><table></table></div></td></tr><tr><td style="font-weight:bold;vertical-align:top">cmd_options</td><td valign="top">:</td><td><div>&lt;Values at 0x152e998: {&#x27;verbose&#x27;: False, &#x27;ip&#x27;: &#x27;127.0.0.1&#x27;, &#x27;with_scheduler&#x27;: False, &#x27;ips&#x27;: [&#x27;127.0.1.1&#x27;], &#x27;shutdown_timeout&#x27;: 5, &#x27;taskbar&#x27;: False, &#x27;with_coverage&#x27;: False, &#x27;port&#x27;: 8000, &#x27;maxthreads&#x27;: None, &#x27;softcron&#x27;: False, &#x27;server_name&#x27;: &#x27;baadalvm&#x27;, &#x27;bpython&#x27;: False, &#x27;nogui&#x27;: False, &#x27;pid_filename&#x27;: &#x27;httpserver.pid&#x27;, &#x27;extcron&#x27;: False, &#x27;runcron&#x27;: False, &#x27;run_system_tests&#x27;: False, &#x27;test&#x27;: None, &#x27;folder&#x27;: &#x27;/home/baadalvm/Desktop/web2py&#x27;, &#x27;config&#x27;: &#x27;&#x27;, &#x27;minthreads&#x27;: None, &#x27;winservice&#x27;: &#x27;&#x27;, &#x27;shell&#x27;: None, &#x27;run&#x27;: &#x27;&#x27;, &#x27;log_filename&#x27;: &#x27;httpserver.log&#x27;, &#x27;debuglevel&#x27;: 30, &#x27;args&#x27;: [&#x27;&#x27;], &#x27;socket_timeout&#x27;: 5, &#x27;ssl_ca_certificate&#x27;: None, &#x27;scheduler&#x27;: None, &#x27;profiler_filename&#x27;: None, &#x27;ssl_private_key&#x27;: &#x27;&#x27;, &#x27;scheduler_groups&#x27;: None, &#x27;password&#x27;: &#x27;&lt;ask&gt;&#x27;, &#x27;request_queue_size&#x27;: 5, &#x27;ssl_certificate&#x27;: &#x27;&#x27;, &#x27;cronjob&#x27;: False, &#x27;numthreads&#x27;: None, &#x27;quiet&#x27;: False, &#x27;interfaces&#x27;: None, &#x27;import_models&#x27;: False, &#x27;timeout&#x27;: 10, &#x27;plain&#x27;: False, &#x27;nobanner&#x27;: False}&gt;</div></td></tr><tr><td style="font-weight:bold;vertical-align:top">content_length</td><td valign="top">:</td><td><div>445</div></td></tr><tr><td style="font-weight:bold;vertical-align:top">content_type</td><td valign="top">:</td><td><div>multipart/form-data; boundary=---------------------------1471713629536935575189993443</div></td></tr><tr><td style="font-weight:bold;vertical-align:top">db_sessions</td><td valign="top">:</td><td><div>set([])</div></td></tr><tr><td style="font-weight:bold;vertical-align:top">debugging</td><td valign="top">:</td><td><div>True</div></td></tr><tr><td style="font-weight:bold;vertical-align:top">gluon_parent</td><td valign="top">:</td><td><div>/home/baadalvm/Desktop/web2py</div></td></tr><tr><td style="font-weight:bold;vertical-align:top">http_accept</td><td valign="top">:</td><td><div>text/html,application/xhtml+xml,application/xml;q=0.9,*/*;q=0.8</div></td></tr><tr><td style="font-weight:bold;vertical-align:top">http_accept_encoding</td><td valign="top">:</td><td><div>gzip, deflate</div></td></tr><tr><td style="font-weight:bold;vertical-align:top">http_accept_language</td><td valign="top">:</td><td><div>en-US,en;q=0.5</div></td></tr><tr><td style="font-weight:bold;vertical-align:top">http_connection</td><td valign="top">:</td><td><div>keep-alive</div></td></tr><tr><td style="font-weight:bold;vertical-align:top">http_content_length</td><td valign="top">:</td><td><div>445</div></td></tr><tr><td style="font-weight:bold;vertical-align:top">http_content_type</td><td valign="top">:</td><td><div>multipart/form-data; boundary=---------------------------1471713629536935575189993443</div></td></tr><tr><td style="font-weight:bold;vertical-align:top">http_cookie</td><td valign="top">:</td><td><div>session_id_welcome=127.0.0.1-d8f78e71-419e-4cea-ac0c-28ec966476e6; session_id_testapp=127.0.0.1-dd47d52c-4b88-4676-a570-0fe9f1f73d2b; session_id_admin=127.0.0.1-c03a1785-6c97-4bd5-9d61-1318aa2c4b2a</div></td></tr><tr><td style="font-weight:bold;vertical-align:top">http_host</td><td valign="top">:</td><td><div>127.0.0.1:8000</div></td></tr><tr><td style="font-weight:bold;vertical-align:top">http_referer</td><td valign="top">:</td><td><div>http://127.0.0.1:8000/testapp/default/integration_testing</div></td></tr><tr><td style="font-weight:bold;vertical-align:top">http_user_agent</td><td valign="top">:</td><td><div>Mozilla/5.0 (X11; Ubuntu; Linux x86_64; rv:20.0) Gecko/20100101 Firefox/20.0</div></td></tr><tr><td style="font-weight:bold;vertical-align:top">is_jython</td><td valign="top">:</td><td><div>False</div></td></tr><tr><td style="font-weight:bold;vertical-align:top">is_pypy</td><td valign="top">:</td><td><div>False</div></td></tr><tr><td style="font-weight:bold;vertical-align:top">local_hosts</td><td valign="top">:</td><td><div><table><tr><td><div>::1</div></td></tr><tr><td><div>127.0.1.1</div></td></tr><tr><td><div>baadalvm</div></td></tr><tr><td><div>::ffff:127.0.0.1</div></td></tr><tr><td><div>127.0.0.1</div></td></tr></table></div></td></tr><tr><td style="font-weight:bold;vertical-align:top">path_info</td><td valign="top">:</td><td><div>/testapp/default/integration_testing</div></td></tr><tr><td style="font-weight:bold;vertical-align:top">query_string</td><td valign="top">:</td><td><div></div></td></tr><tr><td style="font-weight:bold;vertical-align:top">remote_addr</td><td valign="top">:</td><td><div>127.0.0.1</div></td></tr><tr><td style="font-weight:bold;vertical-align:top">remote_port</td><td valign="top">:</td><td><div>33265</div></td></tr><tr><td style="font-weight:bold;vertical-align:top">request_method</td><td valign="top">:</td><td><div>POST</div></td></tr><tr><td style="font-weight:bold;vertical-align:top">request_uri</td><td valign="top">:</td><td><div>/testapp/default/integration_testing</div></td></tr><tr><td style="font-weight:bold;vertical-align:top">script_name</td><td valign="top">:</td><td><div></div></td></tr><tr><td style="font-weight:bold;vertical-align:top">server_name</td><td valign="top">:</td><td><div>baadalvm</div></td></tr><tr><td style="font-weight:bold;vertical-align:top">server_port</td><td valign="top">:</td><td><div>8000</div></td></tr><tr><td style="font-weight:bold;vertical-align:top">server_protocol</td><td valign="top">:</td><td><div>HTTP/1.1</div></td></tr><tr><td style="font-weight:bold;vertical-align:top">server_software</td><td valign="top">:</td><td><div>Rocket 1.2.6</div></td></tr><tr><td style="font-weight:bold;vertical-align:top">web2py_path</td><td valign="top">:</td><td><div>/home/baadalvm/Desktop/web2py</div></td></tr><tr><td style="font-weight:bold;vertical-align:top">web2py_version</td><td valign="top">:</td><td><div>2.5.1-stable+timestamp.2013.06.06.15.39.19</div></td></tr><tr><td style="font-weight:bold;vertical-align:top">wsgi_errors</td><td valign="top">:</td><td><div>&lt;open file &#x27;&lt;stderr&gt;&#x27;, mode &#x27;w&#x27; at 0x7f1058a07270&gt;</div></td></tr><tr><td style="font-weight:bold;vertical-align:top">wsgi_file_wrapper</td><td valign="top">:</td><td><div>&lt;class wsgiref.util.FileWrapper at 0x14b0668&gt;</div></td></tr><tr><td style="font-weight:bold;vertical-align:top">wsgi_input</td><td valign="top">:</td><td><div>&lt;socket._fileobject object at 0x7f103c235ed0&gt;</div></td></tr><tr><td style="font-weight:bold;vertical-align:top">wsgi_multiprocess</td><td valign="top">:</td><td><div>False</div></td></tr><tr><td style="font-weight:bold;vertical-align:top">wsgi_multithread</td><td valign="top">:</td><td><div>True</div></td></tr><tr><td style="font-weight:bold;vertical-align:top">wsgi_run_once</td><td valign="top">:</td><td><div>False</div></td></tr><tr><td style="font-weight:bold;vertical-align:top">wsgi_url_scheme</td><td valign="top">:</td><td><div>http</div></td></tr><tr><td style="font-weight:bold;vertical-align:top">wsgi_version</td><td valign="top">:</td><td><div><table><tr><td><div>1</div></td></tr><tr><td><div>0</div></td></tr></table></div></td></tr></table></div></td></tr><tr><td style="font-weight:bold;vertical-align:top">extension</td><td valign="top">:</td><td><div>html</div></td></tr><tr><td style="font-weight:bold;vertical-align:top">folder</td><td valign="top">:</td><td><div>/home/baadalvm/Desktop/web2py/applications/testapp/</div></td></tr><tr><td style="font-weight:bold;vertical-align:top">function</td><td valign="top">:</td><td><div>integration_testing</div></td></tr><tr><td style="font-weight:bold;vertical-align:top">get_vars</td><td valign="top">:</td><td><div><table></table></div></td></tr><tr><td style="font-weight:bold;vertical-align:top">global_settings</td><td valign="top">:</td><td><div><table><tr><td style="font-weight:bold;vertical-align:top">app_folders</td><td valign="top">:</td><td><div>set([&#x27;/home/baadalvm/Desktop/web2py/applications/testapp/&#x27;, &#x27;/home/baadalvm/Desktop/web2py/applications/admin/&#x27;, &#x27;/home/baadalvm/Desktop/web2py/applications/welcome/&#x27;])</div></td></tr><tr><td style="font-weight:bold;vertical-align:top">applications_parent</td><td valign="top">:</td><td><div>/home/baadalvm/Desktop/web2py</div></td></tr><tr><td style="font-weight:bold;vertical-align:top">cmd_args</td><td valign="top">:</td><td><div><table></table></div></td></tr><tr><td style="font-weight:bold;vertical-align:top">cmd_options</td><td valign="top">:</td><td><div>&lt;Values at 0x152e998: {&#x27;verbose&#x27;: False, &#x27;ip&#x27;: &#x27;127.0.0.1&#x27;, &#x27;with_scheduler&#x27;: False, &#x27;ips&#x27;: [&#x27;127.0.1.1&#x27;], &#x27;shutdown_timeout&#x27;: 5, &#x27;taskbar&#x27;: False, &#x27;with_coverage&#x27;: False, &#x27;port&#x27;: 8000, &#x27;maxthreads&#x27;: None, &#x27;softcron&#x27;: False, &#x27;server_name&#x27;: &#x27;baadalvm&#x27;, &#x27;bpython&#x27;: False, &#x27;nogui&#x27;: False, &#x27;pid_filename&#x27;: &#x27;httpserver.pid&#x27;, &#x27;extcron&#x27;: False, &#x27;runcron&#x27;: False, &#x27;run_system_tests&#x27;: False, &#x27;test&#x27;: None, &#x27;folder&#x27;: &#x27;/home/baadalvm/Desktop/web2py&#x27;, &#x27;config&#x27;: &#x27;&#x27;, &#x27;minthreads&#x27;: None, &#x27;winservice&#x27;: &#x27;&#x27;, &#x27;shell&#x27;: None, &#x27;run&#x27;: &#x27;&#x27;, &#x27;log_filename&#x27;: &#x27;httpserver.log&#x27;, &#x27;debuglevel&#x27;: 30, &#x27;args&#x27;: [&#x27;&#x27;], &#x27;socket_timeout&#x27;: 5, &#x27;ssl_ca_certificate&#x27;: None, &#x27;scheduler&#x27;: None, &#x27;profiler_filename&#x27;: None, &#x27;ssl_private_key&#x27;: &#x27;&#x27;, &#x27;scheduler_groups&#x27;: None, &#x27;password&#x27;: &#x27;&lt;ask&gt;&#x27;, &#x27;request_queue_size&#x27;: 5, &#x27;ssl_certificate&#x27;: &#x27;&#x27;, &#x27;cronjob&#x27;: False, &#x27;numthreads&#x27;: None, &#x27;quiet&#x27;: False, &#x27;interfaces&#x27;: None, &#x27;import_models&#x27;: False, &#x27;timeout&#x27;: 10, &#x27;plain&#x27;: False, &#x27;nobanner&#x27;: False}&gt;</div></td></tr><tr><td style="font-weight:bold;vertical-align:top">db_sessions</td><td valign="top">:</td><td><div>set([])</div></td></tr><tr><td style="font-weight:bold;vertical-align:top">debugging</td><td valign="top">:</td><td><div>True</div></td></tr><tr><td style="font-weight:bold;vertical-align:top">gluon_parent</td><td valign="top">:</td><td><div>/home/baadalvm/Desktop/web2py</div></td></tr><tr><td style="font-weight:bold;vertical-align:top">is_jython</td><td valign="top">:</td><td><div>False</div></td></tr><tr><td style="font-weight:bold;vertical-align:top">is_pypy</td><td valign="top">:</td><td><div>False</div></td></tr><tr><td style="font-weight:bold;vertical-align:top">local_hosts</td><td valign="top">:</td><td><div><table><tr><td><div>::1</div></td></tr><tr><td><div>127.0.1.1</div></td></tr><tr><td><div>baadalvm</div></td></tr><tr><td><div>::ffff:127.0.0.1</div></td></tr><tr><td><div>127.0.0.1</div></td></tr></table></div></td></tr><tr><td style="font-weight:bold;vertical-align:top">web2py_version</td><td valign="top">:</td><td><div>2.5.1-stable+timestamp.2013.06.06.15.39.19</div></td></tr></table></div></td></tr><tr><td style="font-weight:bold;vertical-align:top">is_https</td><td valign="top">:</td><td><div>False</div></td></tr><tr><td style="font-weight:bold;vertical-align:top">is_local</td><td valign="top">:</td><td><div>True</div></td></tr><tr><td style="font-weight:bold;vertical-align:top">is_restful</td><td valign="top">:</td><td><div>False</div></td></tr><tr><td style="font-weight:bold;vertical-align:top">now</td><td valign="top">:</td><td><div>datetime.datetime(2013, 10, 7, 13, 27, 21, 60019)</div></td></tr><tr><td style="font-weight:bold;vertical-align:top">post_vars</td><td valign="top">:</td><td><div><table><tr><td style="font-weight:bold;vertical-align:top">testcase52</td><td valign="top">:</td><td><div>52</div></td></tr></table></div></td></tr><tr><td style="font-weight:bold;vertical-align:top">raw_args</td><td valign="top">:</td><td><div></div></td></tr><tr><td style="font-weight:bold;vertical-align:top">raw_extension</td><td valign="top">:</td><td><div>None</div></td></tr><tr><td style="font-weight:bold;vertical-align:top">url</td><td valign="top">:</td><td><div>/testapp/default/integration_testing</div></td></tr><tr><td style="font-weight:bold;vertical-align:top">utcnow</td><td valign="top">:</td><td><div>datetime.datetime(2013, 10, 7, 7, 57, 21, 60058)</div></td></tr><tr><td style="font-weight:bold;vertical-align:top">uuid</td><td valign="top">:</td><td><div>testapp/127.0.0.1.2013-10-07.13-27-21.d7ac8dc3-a051-48b9-85cf-9ace9a7fbf0e</div></td></tr><tr><td style="font-weight:bold;vertical-align:top">vars</td><td valign="top">:</td><td><div><table><tr><td style="font-weight:bold;vertical-align:top">testcase52</td><td valign="top">:</td><td><div>52</div></td></tr></table></div></td></tr><tr><td style="font-weight:bold;vertical-align:top">wsgi</td><td valign="top">:</td><td><div><table><tr><td style="font-weight:bold;vertical-align:top">environ</td><td valign="top">:</td><td><div><table><tr><td style="font-weight:bold;vertical-align:top">CONTENT_LENGTH</td><td valign="top">:</td><td><div>445</div></td></tr><tr><td style="font-weight:bold;vertical-align:top">CONTENT_TYPE</td><td valign="top">:</td><td><div>multipart/form-data; boundary=---------------------------1471713629536935575189993443</div></td></tr><tr><td style="font-weight:bold;vertical-align:top">HTTP_ACCEPT</td><td valign="top">:</td><td><div>text/html,application/xhtml+xml,application/xml;q=0.9,*/*;q=0.8</div></td></tr><tr><td style="font-weight:bold;vertical-align:top">HTTP_ACCEPT_ENCODING</td><td valign="top">:</td><td><div>gzip, deflate</div></td></tr><tr><td style="font-weight:bold;vertical-align:top">HTTP_ACCEPT_LANGUAGE</td><td valign="top">:</td><td><div>en-US,en;q=0.5</div></td></tr><tr><td style="font-weight:bold;vertical-align:top">HTTP_CONNECTION</td><td valign="top">:</td><td><div>keep-alive</div></td></tr><tr><td style="font-weight:bold;vertical-align:top">HTTP_CONTENT_LENGTH</td><td valign="top">:</td><td><div>445</div></td></tr><tr><td style="font-weight:bold;vertical-align:top">HTTP_CONTENT_TYPE</td><td valign="top">:</td><td><div>multipart/form-data; boundary=---------------------------1471713629536935575189993443</div></td></tr><tr><td style="font-weight:bold;vertical-align:top">HTTP_COOKIE</td><td valign="top">:</td><td><div>session_id_welcome=127.0.0.1-d8f78e71-419e-4cea-ac0c-28ec966476e6; session_id_testapp=127.0.0.1-dd47d52c-4b88-4676-a570-0fe9f1f73d2b; session_id_admin=127.0.0.1-c03a1785-6c97-4bd5-9d61-1318aa2c4b2a</div></td></tr><tr><td style="font-weight:bold;vertical-align:top">HTTP_HOST</td><td valign="top">:</td><td><div>127.0.0.1:8000</div></td></tr><tr><td style="font-weight:bold;vertical-align:top">HTTP_REFERER</td><td valign="top">:</td><td><div>http://127.0.0.1:8000/testapp/default/integration_testing</div></td></tr><tr><td style="font-weight:bold;vertical-align:top">HTTP_USER_AGENT</td><td valign="top">:</td><td><div>Mozilla/5.0 (X11; Ubuntu; Linux x86_64; rv:20.0) Gecko/20100101 Firefox/20.0</div></td></tr><tr><td style="font-weight:bold;vertical-align:top">PATH_INFO</td><td valign="top">:</td><td><div>/testapp/default/integration_testing</div></td></tr><tr><td style="font-weight:bold;vertical-align:top">QUERY_STRING</td><td valign="top">:</td><td><div></div></td></tr><tr><td style="font-weight:bold;vertical-align:top">REMOTE_ADDR</td><td valign="top">:</td><td><div>127.0.0.1</div></td></tr><tr><td style="font-weight:bold;vertical-align:top">REMOTE_PORT</td><td valign="top">:</td><td><div>33265</div></td></tr><tr><td style="font-weight:bold;vertical-align:top">REQUEST_METHOD</td><td valign="top">:</td><td><div>POST</div></td></tr><tr><td style="font-weight:bold;vertical-align:top">REQUEST_URI</td><td valign="top">:</td><td><div>/testapp/default/integration_testing</div></td></tr><tr><td style="font-weight:bold;vertical-align:top">SCRIPT_NAME</td><td valign="top">:</td><td><div></div></td></tr><tr><td style="font-weight:bold;vertical-align:top">SERVER_NAME</td><td valign="top">:</td><td><div>baadalvm</div></td></tr><tr><td style="font-weight:bold;vertical-align:top">SERVER_PORT</td><td valign="top">:</td><td><div>8000</div></td></tr><tr><td style="font-weight:bold;vertical-align:top">SERVER_PROTOCOL</td><td valign="top">:</td><td><div>HTTP/1.1</div></td></tr><tr><td style="font-weight:bold;vertical-align:top">SERVER_SOFTWARE</td><td valign="top">:</td><td><div>Rocket 1.2.6</div></td></tr><tr><td style="font-weight:bold;vertical-align:top">wsgi.errors</td><td valign="top">:</td><td><div>&lt;open file &#x27;&lt;stderr&gt;&#x27;, mode &#x27;w&#x27; at 0x7f1058a07270&gt;</div></td></tr><tr><td style="font-weight:bold;vertical-align:top">wsgi.file_wrapper</td><td valign="top">:</td><td><div>&lt;class wsgiref.util.FileWrapper at 0x14b0668&gt;</div></td></tr><tr><td style="font-weight:bold;vertical-align:top">wsgi.input</td><td valign="top">:</td><td><div>&lt;open file &#x27;&lt;fdopen&gt;&#x27;, mode &#x27;w+b&#x27; at 0x7f10186a45d0&gt;</div></td></tr><tr><td style="font-weight:bold;vertical-align:top">wsgi.multiprocess</td><td valign="top">:</td><td><div>False</div></td></tr><tr><td style="font-weight:bold;vertical-align:top">wsgi.multithread</td><td valign="top">:</td><td><div>True</div></td></tr><tr><td style="font-weight:bold;vertical-align:top">wsgi.run_once</td><td valign="top">:</td><td><div>False</div></td></tr><tr><td style="font-weight:bold;vertical-align:top">wsgi.url_scheme</td><td valign="top">:</td><td><div>http</div></td></tr><tr><td style="font-weight:bold;vertical-align:top">wsgi.version</td><td valign="top">:</td><td><div>1</div></td></tr></table></div></td></tr></table></div></td></tr></table></div>'
tRp70
sS'frames'
p71
(lp72
(dp73
S'file'
p74
S'/home/baadalvm/Desktop/web2py/gluon/restricted.py'
p75
sS'dump'
p76
(dp77
S'environment'
p78
S"{'A': <class 'gluon.html.A'>, 'ANY_OF': <class 'gluon.validators.ANY_OF'>, 'Auth': <class 'gluon.tools.Auth'>, 'B': <class 'gluon.html.B'>, 'BEAUTIFY': <class 'gluon.html.BEAUTIFY'>, 'BODY': <class 'gluon.html.BODY'>, 'BR': <class 'gluon.html.BR'>, 'BUTTON': <class 'gluon.html.BUTTON'>, 'CAT': <class 'gluon.html.CAT'>, 'CENTER': <class 'gluon.html.CENTER'>, ...}"
p79
sS'ccode'
p80
S'<code object <module> at 0x7f102c55ecb0, file "/...cations/testapp/controllers/default.py", line 11>'
p81
ssS'lnum'
p82
I212
sS'lines'
p83
(dp84
I207
S'    try:'
p85
sI208
S'        if isinstance(code, types.CodeType):'
p86
sI209
S'            ccode = code'
p87
sI210
S'        else:'
p88
sI211
S'            ccode = compile2(code, layer)'
p89
sI212
S'        exec ccode in environment'
p90
sI213
S'    except HTTP:'
p91
sI214
S'        raise'
p92
sI215
S'    except RestrictedError:'
p93
sI216
S'        # do not encapsulate (obfuscate) the original RestrictedError'
p94
ssS'call'
p95
S"(code='# -*- coding: utf-8 -*-\\n# this file is released ...onse._vars=response._caller(integration_testing)\\n', environment={'A': <class 'gluon.html.A'>, 'ANY_OF': <class 'gluon.validators.ANY_OF'>, 'Auth': <class 'gluon.tools.Auth'>, 'B': <class 'gluon.html.B'>, 'BEAUTIFY': <class 'gluon.html.BEAUTIFY'>, 'BODY': <class 'gluon.html.BODY'>, 'BR': <class 'gluon.html.BR'>, 'BUTTON': <class 'gluon.html.BUTTON'>, 'CAT': <class 'gluon.html.CAT'>, 'CENTER': <class 'gluon.html.CENTER'>, ...}, layer='/home/baadalvm/Desktop/web2py/applications/testapp/controllers/default.py')"
p96
sS'func'
p97
S'restricted'
p98
sa(dp99
g74
S'/home/baadalvm/Desktop/web2py/applications/testapp/controllers/default.py'
p100
sg76
(dp101
sg82
I232
sg83
(dp102
I224
S'            if test_case_no!=None:'
p103
sI225
S'                test_script(test_case_no)'
p104
sI226
S'    elif form.errors:'
p105
sI227
S"        response.flash = 'form has errors'"
p106
sI228
S'    else:'
p107
sI229
S"        response.flash = 'please fill the form'"
p108
sI230
S'    return dict(form=form)'
p109
sI221
S'    if form.process().accepted:'
p110
sI222
S'        for i in range(52,70):'
p111
sI223
S"            test_case_no=request.vars['testcase'+str(i)]"
p112
ssg95
S'()'
p113
sg97
S'<module>'
p114
sa(dp115
g74
S'/home/baadalvm/Desktop/web2py/gluon/globals.py'
p116
sg76
(dp117
S'self'
p118
S'undefined'
p119
sS'f'
S'<function integration_testing>'
p120
ssg82
I194
sg83
(dp121
I192
S"        self.delimiters = ('{{', '}}')"
p122
sI193
S'        self._vars = None'
p123
sI194
S'        self._caller = lambda f: f()'
p124
sI195
S'        self._view_environment = None'
p125
sI196
S'        self._custom_commit = None'
p126
sI197
S'        self._custom_rollback = None'
p127
sI198
S''
sI189
S'        self.menu = []             # used by the default view layout'
p128
sI190
S'        self.files = []            # used by web2py_ajax.html'
p129
sI191
S'        self.generic_patterns = []  # patterns to allow generic views'
p130
ssg95
S'(f=<function integration_testing>)'
p131
sg97
S'<lambda>'
p132
sa(dp133
g74
S'/home/baadalvm/Desktop/web2py/applications/testapp/controllers/default.py'
p134
sg76
(dp135
S'test_case_no'
p136
S"'52'"
p137
sS'global test_script'
p138
S'<function test_script>'
p139
ssg82
I225
sg83
(dp140
I224
S'            if test_case_no!=None:'
p141
sI225
S'                test_script(test_case_no)'
p142
sI226
S'    elif form.errors:'
p143
sI227
S"        response.flash = 'form has errors'"
p144
sI228
S'    else:'
p145
sI229
S"        response.flash = 'please fill the form'"
p146
sI220
S'              )'
p147
sI221
S'    if form.process().accepted:'
p148
sI222
S'        for i in range(52,70):'
p149
sI223
S"            test_case_no=request.vars['testcase'+str(i)]"
p150
ssg95
S'()'
p151
sg97
S'integration_testing'
p152
sa(dp153
g74
S'/home/baadalvm/Desktop/web2py/applications/testapp/models/test.py'
p154
sg76
(dp155
S'global isImage'
p156
S'<function isImage>'
p157
sS'table_path'
p158
S'"//div[@class=\'TABLE\']/table/tbody/tr/td"'
p159
sS'xml_sub_child'
p160
S"<Element 'setting'>"
p161
sS'driver'
p162
S'<selenium.webdriver.firefox.webdriver.WebDriver object>'
p163
sS'vm_name2'
p164
g119
sS'xml_child'
p165
S"<Element 'test_case1'>"
p166
ssg82
I168
sg83
(dp167
I163
S'                elif field_type=="table":'
p168
sI164
S'                    isTable(driver,xml_parent,xml_child,xml_sub_child)#checking for data in table'
p169
sI165
S''
sI166
S'                elif field_type=="img":#checking for setting image'
p170
sI167
S'                    table_path=xml_sub_child.get("path")'
p171
sI168
S'                    vm_name2=isImage(driver,xml_child,xml_sub_child,table_path)'
p172
sI169
S''
sI170
S'                elif field_type=="check_tables":#cheking for host table'
p173
sI171
S'                    isCheckTable(driver,xml_parent,xml_child,xml_sub_child)'
p174
sI172
S''
ssg95
S"(test_case_no='52')"
p175
sg97
S'test_script'
p176
sa(dp177
g74
S'/home/baadalvm/Desktop/web2py/applications/testapp/models/test.py'
p178
sg76
(dp179
S'global vm_running'
p180
S'<function vm_running>'
p181
sS'xml_sub_child'
p182
S"<Element 'setting'>"
p183
sS'driver'
p184
S'<selenium.webdriver.firefox.webdriver.WebDriver object>'
p185
sS'xml_child'
p186
S"<Element 'test_case1'>"
p187
ssg82
I727
sg83
(dp188
I722
S'\treturn'
p189
sI723
S''
sI724
S'def isImage(driver,xml_child,xml_sub_child,a):'
p190
sI725
S'    if isElementPresent(driver,xml_child,a):'
p191
sI726
S'        if xml_sub_child.get("name") in {"vm_running_Setting","vm_running_Setting_intgrtn"}:'
p192
sI727
S'            vm_running(xml_child,xml_sub_child,driver)'
p193
sI728
S'        elif xml_sub_child.get("name")=="vm_paused_Setting":'
p194
sI729
S'            vm_paused(xml_child,xml_sub_child,driver)'
p195
sI730
S'        elif xml_sub_child.get("name")=="vm_shutdown_Setting":'
p196
sI731
S'            print "in"'
p197
ssg95
S'(driver=<selenium.webdriver.firefox.webdriver.WebDriver object>, xml_child=<Element \'test_case1\'>, xml_sub_child=<Element \'setting\'>, a="//div[@class=\'TABLE\']/table/tbody/tr/td")'
p198
sg97
S'isImage'
p199
sa(dp200
g74
S'/home/baadalvm/Desktop/web2py/applications/testapp/models/test.py'
p201
sg76
(dp202
S'vm_name'
p203
S"'ms_test12'"
p204
sS'xml_sub_child'
p205
S"<Element 'setting'>"
p206
sS'driver'
p207
S'<selenium.webdriver.firefox.webdriver.WebDriver object>'
p208
sS'xml_child'
p209
S"<Element 'test_case1'>"
p210
sS'vm_id'
p211
S'53L'
p212
sS'global check_operation'
p213
S'<function check_operation>'
p214
ssg82
I460
sg83
(dp215
I455
S'            print length'
p216
sI456
S'            click_on_setting(driver,xml_sub_child,xml_child,vm_name,vm_id)'
p217
sI457
S'            check_snapshot(vm_name,driver,xml_child,xml_sub_child)'
p218
sI458
S'            check_user(driver,xml_child,xml_sub_child,vm_name)'
p219
sI459
S'            check_vm_configuration(driver,xml_child,xml_sub_child,vm_name)'
p220
sI460
S'            check_operation(driver,xml_child,xml_sub_child,vm_name,vm_id)'
p221
sI461
S'            break'
p222
sI462
S'        if (status==7) | (status==6):'
p223
sI463
S'            if (row_count-1)==count:'
p224
sI464
S'                logger.debug("No VM exist which is in running state,So Please Run a VM before doing this testing")'
p225
ssg95
S"(xml_child=<Element 'test_case1'>, xml_sub_child=<Element 'setting'>, driver=<selenium.webdriver.firefox.webdriver.WebDriver object>)"
p226
sg97
S'vm_running'
p227
sa(dp228
g74
S'/home/baadalvm/Desktop/web2py/applications/testapp/models/test.py'
p229
sg76
(dp230
S'vm_name'
p231
S"'ms_test12'"
p232
sS'xml_sub_child'
p233
S"<Element 'setting'>"
p234
sS'driver'
p235
S'<selenium.webdriver.firefox.webdriver.WebDriver object>'
p236
sS'xml_child'
p237
S"<Element 'test_case1'>"
p238
sS'global click_on_operation'
p239
S'<function click_on_operation>'
p240
sS'vm_id'
p241
S'53L'
p242
ssg82
I326
sg83
(dp243
I321
S''
sI322
S''
sI323
S'def check_operation(driver,xml_child,xml_sub_child,vm_name,vm_id):'
p244
sI324
S'    if xml_sub_child.get("op")=="snapshot":'
p245
sI325
S'        max_snap(driver,xml_sub_child,xml_child,vm_name)'
p246
sI326
S'        click_on_operation(driver,xml_sub_child,xml_child,vm_name,vm_id)'
p247
sI327
S''
sI328
S'    else:'
p248
sI329
S'        click_on_operation(driver,xml_sub_child,xml_child,vm_name,vm_id)'
p249
sI330
S'    return'
p250
ssg95
S"(driver=<selenium.webdriver.firefox.webdriver.WebDriver object>, xml_child=<Element 'test_case1'>, xml_sub_child=<Element 'setting'>, vm_name='ms_test12', vm_id=53L)"
p251
sg97
S'check_operation'
p252
sa(dp253
g74
S'/home/baadalvm/Desktop/web2py/applications/testapp/models/test.py'
p254
sg76
(dp255
S'vm_name'
p256
S"'ms_test12'"
p257
sS'xml_sub_child'
p258
S"<Element 'setting'>"
p259
sS'driver'
p260
S'<selenium.webdriver.firefox.webdriver.WebDriver object>'
p261
sS'xml_child'
p262
S"<Element 'test_case1'>"
p263
sS'global check_vm_in_pending_task'
p264
S'<function check_vm_in_pending_task>'
p265
sS'operation_name'
p266
S"'Snapshot VM'"
p267
ssg82
I430
sg83
(dp268
I425
S'    elif op_name=="edit_vmconfig":'
p269
sI426
S'        driver.find_element_by_xpath("//*[@href=\'/baadal/admin/"+ str(op_name) +"/"+ str(vm_id) +"\']").click()'
p270
sI427
S'    else:'
p271
sI428
S'        driver.find_element_by_xpath("//*[@href=\'/baadal/user/"+ str(op_name) +"/"+ str(vm_id) +"\']").click()'
p272
sI429
S'        if xml_sub_child.get("name")=="vm_running_Setting_intgrtn":'
p273
sI430
S'            check_vm_in_pending_task(driver,xml_sub_child,xml_child,vm_name,operation_name)'
p274
sI431
S'    return'
p275
sI432
S''
sI433
S''
sI434
S'def max_snap(driver,xml_sub_child,xml_child,vm_name):'
p276
ssg95
S"(driver=<selenium.webdriver.firefox.webdriver.WebDriver object>, xml_sub_child=<Element 'setting'>, xml_child=<Element 'test_case1'>, vm_name='ms_test12', vm_id=53L)"
p277
sg97
S'click_on_operation'
p278
sa(dp279
g74
S'/home/baadalvm/Desktop/web2py/applications/testapp/models/test.py'
p280
sg76
(dp281
S'driver.find_element_by_partial_link_text'
p282
S'<bound method WebDriver.find_element_by_partial_...um.webdriver.firefox.webdriver.WebDriver object>>'
p283
sS').click'
p284
g119
sS'driver'
p285
S'<selenium.webdriver.firefox.webdriver.WebDriver object>'
p286
ssg82
I587
sg83
(dp287
I582
S''
sI583
S'def check_vm_in_pending_task(driver,xml_sub_child,xml_child,vm_name,operation_name):'
p288
sI584
S"    if operation_name not in {'user_details''attach_extra_disk','clone_vm'}:"
p289
sI585
S'        time.sleep(200)'
p290
sI586
S'        global count_row'
p291
sI587
S'        driver.find_element_by_partial_link_text("Tasks").click()'
p292
sI588
S'        path="//table[@id=\'pendingtasks\']/tbody/tr"'
p293
sI589
S'        if isElementPresent(driver,xml_child,path):'
p294
sI590
S'            print "in1"'
p295
sI591
S'            vm_nam=str(vm_name)'
p296
ssg95
S"(driver=<selenium.webdriver.firefox.webdriver.WebDriver object>, xml_sub_child=<Element 'setting'>, xml_child=<Element 'test_case1'>, vm_name='ms_test12', operation_name='Snapshot VM')"
p297
sg97
S'check_vm_in_pending_task'
p298
sa(dp299
g74
S'/usr/local/lib/python2.7/dist-packages/selenium/webdriver/remote/webdriver.py'
p300
sg76
(dp301
S'self.find_element'
p302
S'<bound method WebDriver.find_element of <selenium.webdriver.firefox.webdriver.WebDriver object>>'
p303
sS'self'
p304
S'<selenium.webdriver.firefox.webdriver.WebDriver object>'
p305
sS'link_text'
p306
S"'Tasks'"
p307
sS'value'
p308
g119
sS'global By'
p309
S"<class 'selenium.webdriver.common.by.By'>"
p310
sS'By.PARTIAL_LINK_TEXT'
p311
S"'partial link text'"
p312
sS'by'
p313
g119
ssg82
I270
sg83
(dp314
I265
S'         - link_text: The text of the element to partially match on.'
p315
sI266
S''
sI267
S'        :Usage:'
p316
sI268
S"            driver.find_element_by_partial_link_text('Sign')"
p317
sI269
S'        """'
p318
sI270
S'        return self.find_element(by=By.PARTIAL_LINK_TEXT, value=link_text)'
p319
sI271
S''
sI272
S'    def find_elements_by_partial_link_text(self, link_text):'
p320
sI273
S'        """'
p321
sI274
S'        Finds elements by a partial match of their link text.'
p322
ssg95
S"(self=<selenium.webdriver.firefox.webdriver.WebDriver object>, link_text='Tasks')"
p323
sg97
S'find_element_by_partial_link_text'
p324
sa(dp325
g74
S'/usr/local/lib/python2.7/dist-packages/selenium/webdriver/remote/webdriver.py'
p326
sg76
(dp327
S'by'
p328
S"'partial link text'"
p329
sS'value'
p330
S"'Tasks'"
p331
ssg82
I680
sg83
(dp332
I675
S'        """'
p333
sI676
S'        if isinstance(by, tuple) or isinstance(value, int) or value==None:'
p334
sI677
S'            raise InvalidSelectorException("Invalid locator values passed in")'
p335
sI678
S''
sI679
S'        return self.execute(Command.FIND_ELEMENT,'
p336
sI680
S"                             {'using': by, 'value': value})['value']"
p337
sI681
S''
sI682
S'    def find_elements(self, by=By.ID, value=None):'
p338
sI683
S'        """'
p339
sI684
S"        'Private' method used by the find_elements_by_* methods."
p340
ssg95
S"(self=<selenium.webdriver.firefox.webdriver.WebDriver object>, by='partial link text', value='Tasks')"
p341
sg97
S'find_element'
p342
sa(dp343
g74
S'/usr/local/lib/python2.7/dist-packages/selenium/webdriver/remote/webdriver.py'
p344
sg76
(dp345
S'self.command_executor'
p346
S'<selenium.webdriver.firefox.extension_connection.ExtensionConnection object>'
p347
sS'self'
p348
S'<selenium.webdriver.firefox.webdriver.WebDriver object>'
p349
sS'params'
p350
S"{'sessionId': u'd5841a80-9539-467a-a6fa-5badd70e037f', 'using': 'partial link text', 'value': 'Tasks'}"
p351
sS'self.command_executor.execute'
p352
S'<bound method ExtensionConnection.execute of <se...extension_connection.ExtensionConnection object>>'
p353
sS'response'
p354
g119
sS'driver_command'
p355
S"'findElement'"
p356
ssg82
I163
sg83
(dp357
I160
S"            params['sessionId'] = self.session_id"
p358
sI161
S''
sI162
S'        params = self._wrap_value(params)'
p359
sI163
S'        response = self.command_executor.execute(driver_command, params)'
p360
sI164
S'        if response:'
p361
sI165
S'            self.error_handler.check_response(response)'
p362
sI166
S"            response['value'] = self._unwrap_value("
p363
sI167
S"                response.get('value', None))"
p364
sI158
S"            params = {'sessionId': self.session_id}"
p365
sI159
S"        elif 'sessionId' not in params:"
p366
ssg95
S"(self=<selenium.webdriver.firefox.webdriver.WebDriver object>, driver_command='findElement', params={'sessionId': u'd5841a80-9539-467a-a6fa-5badd70e037f', 'using': 'partial link text', 'value': 'Tasks'})"
p367
sg97
S'execute'
p368
sa(dp369
g74
S'/usr/local/lib/python2.7/dist-packages/selenium/webdriver/remote/remote_connection.py'
p370
sg76
(dp371
S'url'
p372
S"u'http://127.0.0.1:46347/hub/session/d5841a80-9539-467a-a6fa-5badd70e037f/element'"
p373
sS'self'
p374
S'<selenium.webdriver.firefox.extension_connection.ExtensionConnection object>'
p375
sS'command_info'
p376
S"('POST', '/session/$sessionId/element')"
p377
sS'self._request'
p378
S'<bound method ExtensionConnection._request of <s...extension_connection.ExtensionConnection object>>'
p379
sS'data'
p380
S'\'{"using": "partial link text", "sessionId": "d58...0-9539-467a-a6fa-5badd70e037f", "value": "Tasks"}\''
p381
sS'method'
p382
g119
ssg82
I349
sg83
(dp383
I352
S'        """'
p384
sI353
S'        Send an HTTP request to the remote server.'
p385
sI344
S'        command_info = self._commands[command]'
p386
sI345
S"        assert command_info is not None, 'Unrecognised command %s' % command"
p387
sI346
S'        data = utils.dump_json(params)'
p388
sI347
S'        path = string.Template(command_info[1]).substitute(params)'
p389
sI348
S"        url = '%s%s' % (self._url, path)"
p390
sI349
S'        return self._request(url, method=command_info[0], data=data)'
p391
sI350
S''
sI351
S'    def _request(self, url, data=None, method=None):'
p392
ssg95
S"(self=<selenium.webdriver.firefox.extension_connection.ExtensionConnection object>, command='findElement', params={'sessionId': u'd5841a80-9539-467a-a6fa-5badd70e037f', 'using': 'partial link text', 'value': 'Tasks'})"
p393
sg97
g368
sa(dp394
g74
S'/usr/local/lib/python2.7/dist-packages/selenium/webdriver/remote/remote_connection.py'
p395
sg76
(dp396
S'opener'
p397
S'<urllib2.OpenerDirector instance>'
p398
sS'request'
p399
S'<selenium.webdriver.remote.remote_connection.Request instance>'
p400
sS'response'
p401
g119
sS'opener.open'
p402
S'<bound method OpenerDirector.open of <urllib2.OpenerDirector instance>>'
p403
ssg82
I396
sg83
(dp404
I391
S'                                          HttpErrorHandler(),'
p405
sI392
S'                                          url_request.HTTPBasicAuthHandler(password_manager))'
p406
sI393
S'        else:'
p407
sI394
S'            opener = url_request.build_opener(url_request.HTTPRedirectHandler(),'
p408
sI395
S'                                          HttpErrorHandler())'
p409
sI396
S'        response = opener.open(request)'
p410
sI397
S'        try:'
p411
sI398
S'            if response.code > 399 and response.code < 500:'
p412
sI399
S"                return {'status': response.code, 'value': response.read()}"
p413
sI400
S"            body = response.read().decode('utf-8').replace('\\x00', '').strip()"
p414
ssg95
S'(self=<selenium.webdriver.firefox.extension_connection.ExtensionConnection object>, url=u\'http://127.0.0.1:46347/hub/session/d5841a80-9539-467a-a6fa-5badd70e037f/element\', data=\'{"using": "partial link text", "sessionId": "d58...0-9539-467a-a6fa-5badd70e037f", "value": "Tasks"}\', method=\'POST\')'
p415
sg97
S'_request'
p416
sa(dp417
g74
S'/usr/lib/python2.7/urllib2.py'
p418
sg76
(dp419
S'self'
p420
S'<urllib2.OpenerDirector instance>'
p421
sS'req'
p422
S'<selenium.webdriver.remote.remote_connection.Request instance>'
p423
sS'data'
p424
S'None'
p425
sS'response'
p426
g119
sS'self._open'
p427
S'<bound method OpenerDirector._open of <urllib2.OpenerDirector instance>>'
p428
ssg82
I400
sg83
(dp429
I395
S'        meth_name = protocol+"_request"'
p430
sI396
S'        for processor in self.process_request.get(protocol, []):'
p431
sI397
S'            meth = getattr(processor, meth_name)'
p432
sI398
S'            req = meth(req)'
p433
sI399
S''
sI400
S'        response = self._open(req, data)'
p434
sI401
S''
sI402
S'        # post-process response'
p435
sI403
S'        meth_name = protocol+"_response"'
p436
sI404
S'        for processor in self.process_response.get(protocol, []):'
p437
ssg95
S'(self=<urllib2.OpenerDirector instance>, fullurl=<selenium.webdriver.remote.remote_connection.Request instance>, data=None, timeout=<object object>)'
p438
sg97
S'open'
p439
sa(dp440
g74
S'/usr/lib/python2.7/urllib2.py'
p441
sg76
(dp442
S'req'
p443
S'<selenium.webdriver.remote.remote_connection.Request instance>'
p444
ssg82
I418
sg83
(dp445
I416
S'        protocol = req.get_type()'
p446
sI417
S'        result = self._call_chain(self.handle_open, protocol, protocol +'
p447
sI418
S"                                  '_open', req)"
p448
sI419
S'        if result:'
p449
sI420
S'            return result'
p450
sI421
S''
sI422
S"        return self._call_chain(self.handle_open, 'unknown',"
p451
sI413
S'        if result:'
p452
sI414
S'            return result'
p453
sI415
S''
ssg95
S'(self=<urllib2.OpenerDirector instance>, req=<selenium.webdriver.remote.remote_connection.Request instance>, data=None)'
p454
sg97
S'_open'
p455
sa(dp456
g74
S'/usr/lib/python2.7/urllib2.py'
p457
sg76
(dp458
S'args'
p459
S'(<selenium.webdriver.remote.remote_connection.Request instance>,)'
p460
sS'result'
p461
g119
sS'func'
p462
S'<bound method HTTPHandler.http_open of <urllib2.HTTPHandler instance>>'
p463
ssg82
I378
sg83
(dp464
I373
S'        # could.  Otherwise, they return the response.'
p465
sI374
S'        handlers = chain.get(kind, ())'
p466
sI375
S'        for handler in handlers:'
p467
sI376
S'            func = getattr(handler, meth_name)'
p468
sI377
S''
sI378
S'            result = func(*args)'
p469
sI379
S'            if result is not None:'
p470
sI380
S'                return result'
p471
sI381
S''
sI382
S'    def open(self, fullurl, data=None, timeout=socket._GLOBAL_DEFAULT_TIMEOUT):'
p472
ssg95
S"(self=<urllib2.OpenerDirector instance>, chain={'file': [<urllib2.FileHandler instance>], 'ftp': [<urllib2.FTPHandler instance>], 'http': [<urllib2.HTTPHandler instance>], 'https': [<urllib2.HTTPSHandler instance>], 'unknown': [<urllib2.UnknownHandler instance>]}, kind=u'http', meth_name=u'http_open', *args=(<selenium.webdriver.remote.remote_connection.Request instance>,))"
p473
sg97
S'_call_chain'
p474
sa(dp475
g74
S'/usr/lib/python2.7/urllib2.py'
p476
sg76
(dp477
S'self'
p478
S'<urllib2.HTTPHandler instance>'
p479
sS'req'
p480
S'<selenium.webdriver.remote.remote_connection.Request instance>'
p481
sS'global httplib'
p482
S"<module 'httplib' from '/usr/lib/python2.7/httplib.pyc'>"
p483
sS'self.do_open'
p484
S'<bound method HTTPHandler.do_open of <urllib2.HTTPHandler instance>>'
p485
sS'httplib.HTTPConnection'
p486
S'<class httplib.HTTPConnection>'
p487
ssg82
I1207
sg83
(dp488
I1202
S''
sI1203
S''
sI1204
S'class HTTPHandler(AbstractHTTPHandler):'
p489
sI1205
S''
sI1206
S'    def http_open(self, req):'
p490
sI1207
S'        return self.do_open(httplib.HTTPConnection, req)'
p491
sI1208
S''
sI1209
S'    http_request = AbstractHTTPHandler.do_request_'
p492
sI1210
S''
sI1211
S"if hasattr(httplib, 'HTTPS'):"
p493
ssg95
S'(self=<urllib2.HTTPHandler instance>, req=<selenium.webdriver.remote.remote_connection.Request instance>)'
p494
sg97
S'http_open'
p495
sa(dp496
g74
S'/usr/lib/python2.7/urllib2.py'
p497
sg76
(dp498
S'err'
p499
S"error(111, 'Connection refused')"
p500
sS'global URLError'
p501
S"<class 'urllib2.URLError'>"
p502
ssg82
I1177
sg83
(dp503
I1172
S''
sI1173
S'        try:'
p504
sI1174
S'            h.request(req.get_method(), req.get_selector(), req.data, headers)'
p505
sI1175
S'        except socket.error, err: # XXX what error?'
p506
sI1176
S'            h.close()'
p507
sI1177
S'            raise URLError(err)'
p508
sI1178
S'        else:'
p509
sI1179
S'            try:'
p510
sI1180
S'                r = h.getresponse(buffering=True)'
p511
sI1181
S'            except TypeError: # buffering kw not supported'
p512
ssg95
S'(self=<urllib2.HTTPHandler instance>, http_class=<class httplib.HTTPConnection>, req=<selenium.webdriver.remote.remote_connection.Request instance>)'
p513
sg97
S'do_open'
p514
sasS'pyver'
p515
S'Python 2.7.3: /usr/bin/python (prefix: /usr)'
p516
sS'session'
p517
g69
(S's\x1a\x00\x00\x00<div><table></table></div>'
tRp518
sS'etype'
p519
S"<class 'urllib2.URLError'>"
p520
sS'date'
p521
S'Mon Oct  7 13:31:10 2013'
p522
sS'response'
p523
g69
(S's\xc1,\x00\x00<div><table><tr><td style="font-weight:bold;vertical-align:top">body</td><td valign="top">:</td><td><div>&lt;cStringIO.StringO object at 0x7f102c56e9d0&gt;</div></td></tr><tr><td style="font-weight:bold;vertical-align:top">cookies</td><td valign="top">:</td><td><div><table><tr><td style="font-weight:bold;vertical-align:top">session_id_testapp</td><td valign="top">:</td><td><div>127.0.0.1-dd47d52c-4b88-4676-a570-0fe9f1f73d2b<table><tr><td style="font-weight:bold;vertical-align:top">comment</td><td valign="top">:</td><td><div></div></td></tr><tr><td style="font-weight:bold;vertical-align:top">domain</td><td valign="top">:</td><td><div></div></td></tr><tr><td style="font-weight:bold;vertical-align:top">expires</td><td valign="top">:</td><td><div></div></td></tr><tr><td style="font-weight:bold;vertical-align:top">httponly</td><td valign="top">:</td><td><div></div></td></tr><tr><td style="font-weight:bold;vertical-align:top">max-age</td><td valign="top">:</td><td><div></div></td></tr><tr><td style="font-weight:bold;vertical-align:top">path</td><td valign="top">:</td><td><div>/</div></td></tr><tr><td style="font-weight:bold;vertical-align:top">secure</td><td valign="top">:</td><td><div></div></td></tr><tr><td style="font-weight:bold;vertical-align:top">version</td><td valign="top">:</td><td><div></div></td></tr></table></div></td></tr></table></div></td></tr><tr><td style="font-weight:bold;vertical-align:top">delimiters</td><td valign="top">:</td><td><div><table><tr><td><div>{{</div></td></tr><tr><td><div>}}</div></td></tr></table></div></td></tr><tr><td style="font-weight:bold;vertical-align:top">files</td><td valign="top">:</td><td><div><table></table></div></td></tr><tr><td style="font-weight:bold;vertical-align:top">flash</td><td valign="top">:</td><td><div>Success!</div></td></tr><tr><td style="font-weight:bold;vertical-align:top">generic_patterns</td><td valign="top">:</td><td><div><table></table></div></td></tr><tr><td style="font-weight:bold;vertical-align:top">google_analytics_id</td><td valign="top">:</td><td><div>None</div></td></tr><tr><td style="font-weight:bold;vertical-align:top">headers</td><td valign="top">:</td><td><div><table><tr><td style="font-weight:bold;vertical-align:top">X-Powered-By</td><td valign="top">:</td><td><div>web2py</div></td></tr></table></div></td></tr><tr><td style="font-weight:bold;vertical-align:top">logo</td><td valign="top">:</td><td><div><a class="brand" href="http://www.web2py.com/"><b>web<span>2</span>py</b>&trade;&nbsp;</a></div></td></tr><tr><td style="font-weight:bold;vertical-align:top">menu</td><td valign="top">:</td><td><div><table><tr><td><div><table><tr><td><div>Home</div></td></tr><tr><td><div>False</div></td></tr><tr><td><div>/testapp/default/index</div></td></tr><tr><td><div><table></table></div></td></tr></table></div></td></tr><tr><td><div><table><tr><td><div><span class="highlighted">web2py</span></div></td></tr><tr><td><div>False</div></td></tr><tr><td><div>http://web2py.com</div></td></tr><tr><td><div><table><tr><td><div><table><tr><td><div>My Sites</div></td></tr><tr><td><div>False</div></td></tr><tr><td><div>/admin/default/site</div></td></tr></table></div></td></tr><tr><td><div><table><tr><td><div>This App</div></td></tr><tr><td><div>False</div></td></tr><tr><td><div>/admin/default/design/testapp</div></td></tr><tr><td><div>[(&lt;lazyT &#x27;Controller&#x27;&gt;, False, &#x27;/admin/default/edit/testapp/controllers/default.py&#x27;), (&lt;lazyT &#x27;View&#x27;&gt;, False, &#x27;/admin/default/edit/testapp/views/default/integration_testing.html&#x27;), (&lt;lazyT &#x27;Layout&#x27;&gt;, False, &#x27;/admin/default/edit/testapp/views/layout.html&#x27;), (&lt;lazyT &#x27;Stylesheet&#x27;&gt;, False, &#x27;/admin/default/edit/testapp/static/css/web2py.css&#x27;), (&lt;lazyT &#x27;DB Model&#x27;&gt;, False, &#x27;/admin/default/edit/testapp/models/db.py&#x27;), (&lt;lazyT &#x27;Menu Model&#x27;&gt;, False, &#x27;/admin/default/edit/testapp/models/menu.py&#x27;), (&lt;lazyT &#x27;Database&#x27;&gt;, False, &#x27;/testapp/appadmin/index&#x27;), (&lt;lazyT &#x27;Errors&#x27;&gt;, False, &#x27;/admin/default/errors/testapp&#x27;), (&lt;lazyT &#x27;About&#x27;&gt;, False, &#x27;/admin/default/about/testapp&#x27;)]</div></td></tr></table></div></td></tr><tr><td><div><table><tr><td><div>web2py.com</div></td></tr><tr><td><div>False</div></td></tr><tr><td><div>http://www.web2py.com</div></td></tr><tr><td><div>[(&lt;lazyT &#x27;Download&#x27;&gt;, False, &#x27;http://www.web2py.com/examples/default/download&#x27;), (&lt;lazyT &#x27;Support&#x27;&gt;, False, &#x27;http://www.web2py.com/examples/default/support&#x27;), (&lt;lazyT &#x27;Demo&#x27;&gt;, False, &#x27;http://web2py.com/demo_admin&#x27;), (&lt;lazyT &#x27;Quick Examples&#x27;&gt;, False, &#x27;http://web2py.com/examples/default/examples&#x27;), (&lt;lazyT &#x27;FAQ&#x27;&gt;, False, &#x27;http://web2py.com/AlterEgo&#x27;), (&lt;lazyT &#x27;Videos&#x27;&gt;, False, &#x27;http://www.web2py.com/examples/default/videos/&#x27;), (&lt;lazyT &#x27;Free Applications&#x27;&gt;, False, &#x27;http://web2py.com/appliances&#x27;), (&lt;lazyT &#x27;Plugins&#x27;&gt;, False, &#x27;http://web2py.com/plugins&#x27;), (&lt;lazyT &#x27;Layouts&#x27;&gt;, False, &#x27;http://web2py.com/layouts&#x27;), (&lt;lazyT &#x27;Recipes&#x27;&gt;, False, &#x27;http://web2pyslices.com/&#x27;), (&lt;lazyT &#x27;Semantic&#x27;&gt;, False, &#x27;http://web2py.com/semantic&#x27;)]</div></td></tr></table></div></td></tr><tr><td><div><table><tr><td><div>Documentation</div></td></tr><tr><td><div>False</div></td></tr><tr><td><div>http://www.web2py.com/book</div></td></tr><tr><td><div>[(&lt;lazyT &#x27;Preface&#x27;&gt;, False, &#x27;http://www.web2py.com/book/default/chapter/00&#x27;), (&lt;lazyT &#x27;Introduction&#x27;&gt;, False, &#x27;http://www.web2py.com/book/default/chapter/01&#x27;), (&lt;lazyT &#x27;Python&#x27;&gt;, False, &#x27;http://www.web2py.com/book/default/chapter/02&#x27;), (&lt;lazyT &#x27;Overview&#x27;&gt;, False, &#x27;http://www.web2py.com/book/default/chapter/03&#x27;), (&lt;lazyT &#x27;The Core&#x27;&gt;, False, &#x27;http://www.web2py.com/book/default/chapter/04&#x27;), (&lt;lazyT &#x27;The Views&#x27;&gt;, False, &#x27;http://www.web2py.com/book/default/chapter/05&#x27;), (&lt;lazyT &#x27;Database&#x27;&gt;, False, &#x27;http://www.web2py.com/book/default/chapter/06&#x27;), (&lt;lazyT &#x27;Forms and Validators&#x27;&gt;, False, &#x27;http://www.web2py.com/book/default/chapter/07&#x27;), (&lt;lazyT &#x27;Email and SMS&#x27;&gt;, False, &#x27;http://www.web2py.com/book/default/chapter/08&#x27;), (&lt;lazyT &#x27;Access Control&#x27;&gt;, False, &#x27;http://www.web2py.com/book/default/chapter/09&#x27;), (&lt;lazyT &#x27;Services&#x27;&gt;, False, &#x27;http://www.web2py.com/book/default/chapter/10&#x27;), (&lt;lazyT &#x27;Ajax Recipes&#x27;&gt;, False, &#x27;http://www.web2py.com/book/default/chapter/11&#x27;), (&lt;lazyT &#x27;Components and Plugins&#x27;&gt;, False, &#x27;http://www.web2py.com/book/default/chapter/12&#x27;), (&lt;lazyT &#x27;Deployment Recipes&#x27;&gt;, False, &#x27;http://www.web2py.com/book/default/chapter/13&#x27;), (&lt;lazyT &#x27;Other Recipes&#x27;&gt;, False, &#x27;http://www.web2py.com/book/default/chapter/14&#x27;), (&lt;lazyT &#x27;Buy this book&#x27;&gt;, False, &#x27;http://stores.lulu.com/web2py&#x27;)]</div></td></tr></table></div></td></tr><tr><td><div><table><tr><td><div>Community</div></td></tr><tr><td><div>False</div></td></tr><tr><td><div>None</div></td></tr><tr><td><div>[(&lt;lazyT &#x27;Groups&#x27;&gt;, False, &#x27;http://www.web2py.com/examples/default/usergroups&#x27;), (&lt;lazyT &#x27;Twitter&#x27;&gt;, False, &#x27;http://twitter.com/web2py&#x27;), (&lt;lazyT &#x27;Live Chat&#x27;&gt;, False, &#x27;http://webchat.freenode.net/?channels=web2py&#x27;)]</div></td></tr></table></div></td></tr><tr><td><div><table><tr><td><div>Plugins</div></td></tr><tr><td><div>False</div></td></tr><tr><td><div>None</div></td></tr><tr><td><div>[(&#x27;plugin_wiki&#x27;, False, &#x27;http://web2py.com/examples/default/download&#x27;), (&lt;lazyT &#x27;Other Plugins&#x27;&gt;, False, &#x27;http://web2py.com/plugins&#x27;), (&lt;lazyT &#x27;Layout Plugins&#x27;&gt;, False, &#x27;http://web2py.com/layouts&#x27;)]</div></td></tr></table></div></td></tr></table></div></td></tr></table></div></td></tr></table></div></td></tr><tr><td style="font-weight:bold;vertical-align:top">meta</td><td valign="top">:</td><td><div><table><tr><td style="font-weight:bold;vertical-align:top">author</td><td valign="top">:</td><td><div>Your Name &lt;you@example.com&gt;</div></td></tr><tr><td style="font-weight:bold;vertical-align:top">description</td><td valign="top">:</td><td><div>a cool new app</div></td></tr><tr><td style="font-weight:bold;vertical-align:top">generator</td><td valign="top">:</td><td><div>Web2py Web Framework</div></td></tr><tr><td style="font-weight:bold;vertical-align:top">keywords</td><td valign="top">:</td><td><div>web2py, python, framework</div></td></tr></table></div></td></tr><tr><td style="font-weight:bold;vertical-align:top">models_to_run</td><td valign="top">:</td><td><div><table><tr><td><div>^\\w+\\.py$</div></td></tr><tr><td><div>^default/\\w+\\.py$</div></td></tr><tr><td><div>^default/integration_testing/\\w+\\.py$</div></td></tr></table></div></td></tr><tr><td style="font-weight:bold;vertical-align:top">postprocessing</td><td valign="top">:</td><td><div><table></table></div></td></tr><tr><td style="font-weight:bold;vertical-align:top">session_cookie_expires</td><td valign="top">:</td><td><div>None</div></td></tr><tr><td style="font-weight:bold;vertical-align:top">session_data_name</td><td valign="top">:</td><td><div>session_data_testapp</div></td></tr><tr><td style="font-weight:bold;vertical-align:top">session_file</td><td valign="top">:</td><td><div>&lt;open file &#x27;/home/baadalvm/Desktop/web2py/applications/testapp/sessions/127.0.0.1-dd47d52c-4b88-4676-a570-0fe9f1f73d2b&#x27;, mode &#x27;rb+&#x27; at 0x7f103c4b6420&gt;</div></td></tr><tr><td style="font-weight:bold;vertical-align:top">session_filename</td><td valign="top">:</td><td><div>/home/baadalvm/Desktop/web2py/applications/testapp/sessions/127.0.0.1-dd47d52c-4b88-4676-a570-0fe9f1f73d2b</div></td></tr><tr><td style="font-weight:bold;vertical-align:top">session_id</td><td valign="top">:</td><td><div>127.0.0.1-dd47d52c-4b88-4676-a570-0fe9f1f73d2b</div></td></tr><tr><td style="font-weight:bold;vertical-align:top">session_id_name</td><td valign="top">:</td><td><div>session_id_testapp</div></td></tr><tr><td style="font-weight:bold;vertical-align:top">session_locked</td><td valign="top">:</td><td><div>True</div></td></tr><tr><td style="font-weight:bold;vertical-align:top">session_new</td><td valign="top">:</td><td><div>False</div></td></tr><tr><td style="font-weight:bold;vertical-align:top">session_storage_type</td><td valign="top">:</td><td><div>file</div></td></tr><tr><td style="font-weight:bold;vertical-align:top">status</td><td valign="top">:</td><td><div>200</div></td></tr><tr><td style="font-weight:bold;vertical-align:top">subtitle</td><td valign="top">:</td><td><div>customize me!</div></td></tr><tr><td style="font-weight:bold;vertical-align:top">title</td><td valign="top">:</td><td><div>Testapp</div></td></tr><tr><td style="font-weight:bold;vertical-align:top">view</td><td valign="top">:</td><td><div>default/integration_testing.html</div></td></tr></table></div>'
tRp524
sS'locals'
p525
(dp526
S'err'
p527
S"error(111, 'Connection refused')"
p528
sS'h'
S'<httplib.HTTPConnection instance>'
p529
sS'self'
p530
S'<urllib2.HTTPHandler instance>'
p531
sS'req'
p532
S'<selenium.webdriver.remote.remote_connection.Request instance>'
p533
sS'headers'
p534
S"{'Accept': 'application/json', 'Connection': 'close', 'Content-Length': '101', 'Content-Type': 'application/json;charset=UTF-8', 'Host': u'127.0.0.1:46347', 'User-Agent': 'Python-urllib/2.7'}"
p535
sS'host'
p536
S"u'127.0.0.1:46347'"
p537
sS'http_class'
p538
S'<class httplib.HTTPConnection>'
p539
sssS'traceback'
p540
S'Traceback (most recent call last):\n  File "/home/baadalvm/Desktop/web2py/gluon/restricted.py", line 212, in restricted\n    exec ccode in environment\n  File "/home/baadalvm/Desktop/web2py/applications/testapp/controllers/default.py", line 232, in <module>\n  File "/home/baadalvm/Desktop/web2py/gluon/globals.py", line 194, in <lambda>\n    self._caller = lambda f: f()\n  File "/home/baadalvm/Desktop/web2py/applications/testapp/controllers/default.py", line 225, in integration_testing\n    test_script(test_case_no)\n  File "/home/baadalvm/Desktop/web2py/applications/testapp/models/test.py", line 168, in test_script\n    vm_name2=isImage(driver,xml_child,xml_sub_child,table_path)\n  File "/home/baadalvm/Desktop/web2py/applications/testapp/models/test.py", line 727, in isImage\n    vm_running(xml_child,xml_sub_child,driver)\n  File "/home/baadalvm/Desktop/web2py/applications/testapp/models/test.py", line 460, in vm_running\n    check_operation(driver,xml_child,xml_sub_child,vm_name,vm_id)\n  File "/home/baadalvm/Desktop/web2py/applications/testapp/models/test.py", line 326, in check_operation\n    click_on_operation(driver,xml_sub_child,xml_child,vm_name,vm_id)\n  File "/home/baadalvm/Desktop/web2py/applications/testapp/models/test.py", line 430, in click_on_operation\n    check_vm_in_pending_task(driver,xml_sub_child,xml_child,vm_name,operation_name)\n  File "/home/baadalvm/Desktop/web2py/applications/testapp/models/test.py", line 587, in check_vm_in_pending_task\n    driver.find_element_by_partial_link_text("Tasks").click()\n  File "/usr/local/lib/python2.7/dist-packages/selenium/webdriver/remote/webdriver.py", line 270, in find_element_by_partial_link_text\n    return self.find_element(by=By.PARTIAL_LINK_TEXT, value=link_text)\n  File "/usr/local/lib/python2.7/dist-packages/selenium/webdriver/remote/webdriver.py", line 680, in find_element\n    {\'using\': by, \'value\': value})[\'value\']\n  File "/usr/local/lib/python2.7/dist-packages/selenium/webdriver/remote/webdriver.py", line 163, in execute\n    response = self.command_executor.execute(driver_command, params)\n  File "/usr/local/lib/python2.7/dist-packages/selenium/webdriver/remote/remote_connection.py", line 349, in execute\n    return self._request(url, method=command_info[0], data=data)\n  File "/usr/local/lib/python2.7/dist-packages/selenium/webdriver/remote/remote_connection.py", line 396, in _request\n    response = opener.open(request)\n  File "/usr/lib/python2.7/urllib2.py", line 400, in open\n    response = self._open(req, data)\n  File "/usr/lib/python2.7/urllib2.py", line 418, in _open\n    \'_open\', req)\n  File "/usr/lib/python2.7/urllib2.py", line 378, in _call_chain\n    result = func(*args)\n  File "/usr/lib/python2.7/urllib2.py", line 1207, in http_open\n    return self.do_open(httplib.HTTPConnection, req)\n  File "/usr/lib/python2.7/urllib2.py", line 1177, in do_open\n    raise URLError(err)\nURLError: <urlopen error [Errno 111] Connection refused>\n'
p541
s.