(dp1
S'output'
p2
S"<class 'urllib2.URLError'> <urlopen error [Errno 111] Connection refused>"
p3
sS'layer'
p4
S'/home/monika/Desktop/web2py/applications/todo/controllers/default.py'
p5
sS'code'
p6
S'# -*- coding: utf-8 -*-\n# this file is released under public domain and you can use without limitations\n\n#########################################################################\n## This is a sample controller\n## - index is the default action of any application\n## - user is required for authentication and authorization\n## - download is for downloading files uploaded in the db (does streaming)\n## - call exposes all registered services (none by default)\n#########################################################################\n\n\n\n\n\ndef index():\n    """\n    example action using the internationalization operator T and flash\n    rendered by views/default/index.html or views/generic.html\n\n    if you need a simple wiki simple replace the two lines below with:\n    return auth.wiki()\n    """\n    response.flash = T("Welcome to web2py!")\n    return dict(message=T(\'Hello World\'))\n\n\ndef user():\n    """\n    exposes:\n    http://..../[app]/default/user/login\n    http://..../[app]/default/user/logout\n    http://..../[app]/default/user/register\n    http://..../[app]/default/user/profile\n    http://..../[app]/default/user/retrieve_password\n    http://..../[app]/default/user/change_password\n    http://..../[app]/default/user/manage_users (requires membership in \n    use @auth.requires_login()\n        @auth.requires_membership(\'group name\')\n        @auth.requires_permission(\'read\',\'table name\',record_id)\n    to decorate functions that need access control\n    """\n    return dict(form=auth())\n\n@cache.action()\ndef download():\n    """\n    allows downloading of uploaded files\n    http://..../[app]/default/download/[filename]\n    """\n    return response.download(request, db)\n\n\ndef call():\n    """\n    exposes services. for example:\n    http://..../[app]/default/call/jsonrpc\n    decorate with @services.jsonrpc the functions to expose\n    supports xml, json, xmlrpc, jsonrpc, amfrpc, rss, csv\n    """\n    return service()\n\n\n@auth.requires_signature()\ndef data():\n    """\n    http://..../[app]/default/data/tables\n    http://..../[app]/default/data/create/[table]\n    http://..../[app]/default/data/read/[table]/[id]\n    http://..../[app]/default/data/update/[table]/[id]\n    http://..../[app]/default/data/delete/[table]/[id]\n    http://..../[app]/default/data/select/[table]\n    http://..../[app]/default/data/search/[table]\n    but URLs must be signed, i.e. linked with\n      A(\'table\',_href=URL(\'data/tables\',user_signature=True))\n    or with the signed load operator\n      LOAD(\'default\',\'data.load\',args=\'tables\',ajax=True,user_signature=True)\n    """\n    return dict(form=crud())\n    \n    \n    \ndef display_form():\n    import commands\n    form = FORM(\n                  TABLE\n                  (   TR(A(B(H3(\'Choose the test cases to be executed:\')))),\n                      TR(\'Login\',INPUT(_name=\'testcase1\', _type=\'checkbox\', _value="1")),\n                      TR(\'Request VM\',INPUT(_name=\'testcase2\', _type=\'checkbox\', _value="2")),\n                      TR(\'My Pending VMs\',INPUT(_name=\'testcase3\', _type=\'checkbox\', _value="3")),\n                      TR(\'My VMs\',INPUT(_name=\'testcase21\', _type=\'checkbox\', _value="21")),\n                      TR(\'My Pending Tasks\',INPUT(_name=\'testcase4\', _type=\'checkbox\', _value="4")),\n                      TR(\'My Completed Tasks\',INPUT(_name=\'testcase5\', _type=\'checkbox\', _value="5")),\n                      TR(\'My Failed Taskss\',INPUT(_name=\'testcase6\', _type=\'checkbox\', _value="6")),\n                      TR(\'Pending Faculty-Level VM Approvals\',INPUT(_name=\'testcase7\', _type=\'checkbox\', _value="7")),\n                      TR(\'Pending Org-Level VM Approvals\',INPUT(_name=\'testcase8\', _type=\'checkbox\', _value="8")),\n                      TR(\'List All Org-Level VMs\',INPUT(_name=\'testcase9\', _type=\'checkbox\', _value="9")),\n                      TR(\'All VMs\',INPUT(_name=\'testcase10\', _type=\'checkbox\', _value="10")),\n                      TR(\'Host and VMs\',INPUT(_name=\'testcase11\', _type=\'checkbox\', _value="11")),\n                      TR(\'Pending Tasks\',INPUT(_name=\'testcase12\', _type=\'checkbox\', _value="12")),\n                      TR(\'Completed Tasks\',INPUT(_name=\'testcase13\', _type=\'checkbox\', _value="13")),\n                      TR(\'Failed Tasks\',INPUT(_name=\'testcase14\', _type=\'checkbox\', _value="14")),\n                      TR(\'Configure System: Add Host\',INPUT(_name=\'testcase15\', _type=\'checkbox\', _value="15")),\n                      TR(\'Configure System: Add Template\',INPUT(_name=\'testcase16\', _type=\'checkbox\', _value="16")),\n                      TR(\'Configure System: Add Datastore\',INPUT(_name=\'testcase17\', _type=\'checkbox\', _value="17")),\n                      TR(\'Checking Setting\',INPUT(_name=\'testcase18\', _type=\'checkbox\', _value="18")),\n                      TR(\'Configure System: Host Setting\',INPUT(_name=\'testcase19\', _type=\'checkbox\', _value="19")),\n                      TR(\'Configure System: Host table\',INPUT(_name=\'testcase20\', _type=\'checkbox\', _value="20")),\n                      \n                      BR(),\n                      TR(INPUT(_type=\'submit\',_value=\'submit\'))\n                  )\n              )\n              \n    if form.process().accepted:\n        for i in xrange(1,21):\n            test_case_no=request.vars[\'testcase\'+str(i)]\n            if test_case_no!=None:\n                test_script(test_case_no)\n    elif form.errors:\n        response.flash = \'form has errors\'\n    else:\n        response.flash = \'please fill the form\'\n    return dict(form=form)\n\nresponse._vars=response._caller(display_form)\n'
p7
sS'snapshot'
p8
(dp9
S'exception'
p10
(dp11
S'__module__'
p12
S"'urllib2'"
p13
sS'__getslice__'
p14
S"<method-wrapper '__getslice__' of URLError object>"
p15
sS'__str__'
p16
S"<bound method URLError.__str__ of URLError(error(111, 'Connection refused'),)>"
p17
sS'__reduce__'
p18
S'<built-in method __reduce__ of URLError object>'
p19
sS'__dict__'
p20
S"{'reason': error(111, 'Connection refused')}"
p21
sS'__sizeof__'
p22
S'<built-in method __sizeof__ of URLError object>'
p23
sS'__weakref__'
p24
S'None'
p25
sS'__init__'
p26
S"<bound method URLError.__init__ of URLError(error(111, 'Connection refused'),)>"
p27
sS'__setattr__'
p28
S"<method-wrapper '__setattr__' of URLError object>"
p29
sS'__reduce_ex__'
p30
S'<built-in method __reduce_ex__ of URLError object>'
p31
sS'__new__'
p32
S'<built-in method __new__ of type object>'
p33
sS'errno'
p34
S'None'
p35
sS'__format__'
p36
S'<built-in method __format__ of URLError object>'
p37
sS'__class__'
p38
S"<class 'urllib2.URLError'>"
p39
sS'filename'
p40
S'None'
p41
sS'__doc__'
p42
S'None'
p43
sS'__getitem__'
p44
S"<method-wrapper '__getitem__' of URLError object>"
p45
sS'__setstate__'
p46
S'<built-in method __setstate__ of URLError object>'
p47
sS'__getattribute__'
p48
S"<method-wrapper '__getattribute__' of URLError object>"
p49
sS'args'
p50
S"(error(111, 'Connection refused'),)"
p51
sS'reason'
p52
S"error(111, 'Connection refused')"
p53
sS'__subclasshook__'
p54
S'<built-in method __subclasshook__ of type object>'
p55
sS'__unicode__'
p56
S'<built-in method __unicode__ of URLError object>'
p57
sS'strerror'
p58
S'None'
p59
sS'__delattr__'
p60
S"<method-wrapper '__delattr__' of URLError object>"
p61
sS'__repr__'
p62
S"<method-wrapper '__repr__' of URLError object>"
p63
sS'__hash__'
p64
S"<method-wrapper '__hash__' of URLError object>"
p65
ssS'evalue'
p66
S'<urlopen error [Errno 111] Connection refused>'
p67
sS'request'
p68
cgluon.html
XML_unpickle
p69
(S'smZ\x00\x00<div><table><tr><td style="font-weight:bold;vertical-align:top">ajax</td><td valign="top">:</td><td><div>False</div></td></tr><tr><td style="font-weight:bold;vertical-align:top">application</td><td valign="top">:</td><td><div>todo</div></td></tr><tr><td style="font-weight:bold;vertical-align:top">args</td><td valign="top">:</td><td><div><table></table></div></td></tr><tr><td style="font-weight:bold;vertical-align:top">body</td><td valign="top">:</td><td><div>&lt;open file &#x27;&lt;fdopen&gt;&#x27;, mode &#x27;w+b&#x27; at 0x7f8d8c4f7e40&gt;</div></td></tr><tr><td style="font-weight:bold;vertical-align:top">cid</td><td valign="top">:</td><td><div>None</div></td></tr><tr><td style="font-weight:bold;vertical-align:top">client</td><td valign="top">:</td><td><div>127.0.0.1</div></td></tr><tr><td style="font-weight:bold;vertical-align:top">controller</td><td valign="top">:</td><td><div>default</div></td></tr><tr><td style="font-weight:bold;vertical-align:top">cookies</td><td valign="top">:</td><td><div><table><tr><td style="font-weight:bold;vertical-align:top">session_id_admin</td><td valign="top">:</td><td><div>127.0.0.1-fa13630b-03d7-4009-910c-a319aeba0c0f<table><tr><td style="font-weight:bold;vertical-align:top">comment</td><td valign="top">:</td><td><div></div></td></tr><tr><td style="font-weight:bold;vertical-align:top">domain</td><td valign="top">:</td><td><div></div></td></tr><tr><td style="font-weight:bold;vertical-align:top">expires</td><td valign="top">:</td><td><div></div></td></tr><tr><td style="font-weight:bold;vertical-align:top">httponly</td><td valign="top">:</td><td><div></div></td></tr><tr><td style="font-weight:bold;vertical-align:top">max-age</td><td valign="top">:</td><td><div></div></td></tr><tr><td style="font-weight:bold;vertical-align:top">path</td><td valign="top">:</td><td><div></div></td></tr><tr><td style="font-weight:bold;vertical-align:top">secure</td><td valign="top">:</td><td><div></div></td></tr><tr><td style="font-weight:bold;vertical-align:top">version</td><td valign="top">:</td><td><div></div></td></tr></table></div></td></tr><tr><td style="font-weight:bold;vertical-align:top">session_id_todo</td><td valign="top">:</td><td><div>127.0.0.1-33ad01bd-2567-400b-a758-a676e79347ee<table><tr><td style="font-weight:bold;vertical-align:top">comment</td><td valign="top">:</td><td><div></div></td></tr><tr><td style="font-weight:bold;vertical-align:top">domain</td><td valign="top">:</td><td><div></div></td></tr><tr><td style="font-weight:bold;vertical-align:top">expires</td><td valign="top">:</td><td><div></div></td></tr><tr><td style="font-weight:bold;vertical-align:top">httponly</td><td valign="top">:</td><td><div></div></td></tr><tr><td style="font-weight:bold;vertical-align:top">max-age</td><td valign="top">:</td><td><div></div></td></tr><tr><td style="font-weight:bold;vertical-align:top">path</td><td valign="top">:</td><td><div></div></td></tr><tr><td style="font-weight:bold;vertical-align:top">secure</td><td valign="top">:</td><td><div></div></td></tr><tr><td style="font-weight:bold;vertical-align:top">version</td><td valign="top">:</td><td><div></div></td></tr></table></div></td></tr><tr><td style="font-weight:bold;vertical-align:top">session_id_welcome</td><td valign="top">:</td><td><div>127.0.0.1-3f6effc8-ac9b-4dda-8467-0bad0cefb2eb<table><tr><td style="font-weight:bold;vertical-align:top">comment</td><td valign="top">:</td><td><div></div></td></tr><tr><td style="font-weight:bold;vertical-align:top">domain</td><td valign="top">:</td><td><div></div></td></tr><tr><td style="font-weight:bold;vertical-align:top">expires</td><td valign="top">:</td><td><div></div></td></tr><tr><td style="font-weight:bold;vertical-align:top">httponly</td><td valign="top">:</td><td><div></div></td></tr><tr><td style="font-weight:bold;vertical-align:top">max-age</td><td valign="top">:</td><td><div></div></td></tr><tr><td style="font-weight:bold;vertical-align:top">path</td><td valign="top">:</td><td><div></div></td></tr><tr><td style="font-weight:bold;vertical-align:top">secure</td><td valign="top">:</td><td><div></div></td></tr><tr><td style="font-weight:bold;vertical-align:top">version</td><td valign="top">:</td><td><div></div></td></tr></table></div></td></tr></table></div></td></tr><tr><td style="font-weight:bold;vertical-align:top">env</td><td valign="top">:</td><td><div><table><tr><td style="font-weight:bold;vertical-align:top">app_folders</td><td valign="top">:</td><td><div>set([&#x27;/home/monika/Desktop/web2py/applications/welcome/&#x27;, &#x27;/home/monika/Desktop/web2py/applications/admin/&#x27;, &#x27;/home/monika/Desktop/web2py/applications/todo/&#x27;])</div></td></tr><tr><td style="font-weight:bold;vertical-align:top">applications_parent</td><td valign="top">:</td><td><div>/home/monika/Desktop/web2py</div></td></tr><tr><td style="font-weight:bold;vertical-align:top">cmd_args</td><td valign="top">:</td><td><div><table></table></div></td></tr><tr><td style="font-weight:bold;vertical-align:top">cmd_options</td><td valign="top">:</td><td><div>&lt;Values at 0x28a9320: {&#x27;verbose&#x27;: False, &#x27;ip&#x27;: &#x27;127.0.0.1&#x27;, &#x27;with_scheduler&#x27;: False, &#x27;ips&#x27;: [&#x27;127.0.1.1&#x27;], &#x27;shutdown_timeout&#x27;: 5, &#x27;taskbar&#x27;: False, &#x27;with_coverage&#x27;: False, &#x27;port&#x27;: 8000, &#x27;maxthreads&#x27;: None, &#x27;softcron&#x27;: False, &#x27;server_name&#x27;: &#x27;dell-OptiPlex-7010&#x27;, &#x27;bpython&#x27;: False, &#x27;nogui&#x27;: False, &#x27;pid_filename&#x27;: &#x27;httpserver.pid&#x27;, &#x27;extcron&#x27;: False, &#x27;runcron&#x27;: False, &#x27;run_system_tests&#x27;: False, &#x27;test&#x27;: None, &#x27;folder&#x27;: &#x27;/home/monika/Desktop/web2py&#x27;, &#x27;config&#x27;: &#x27;&#x27;, &#x27;minthreads&#x27;: None, &#x27;winservice&#x27;: &#x27;&#x27;, &#x27;shell&#x27;: None, &#x27;run&#x27;: &#x27;&#x27;, &#x27;log_filename&#x27;: &#x27;httpserver.log&#x27;, &#x27;debuglevel&#x27;: 30, &#x27;args&#x27;: [&#x27;&#x27;], &#x27;socket_timeout&#x27;: 5, &#x27;ssl_ca_certificate&#x27;: None, &#x27;scheduler&#x27;: None, &#x27;profiler_filename&#x27;: None, &#x27;ssl_private_key&#x27;: &#x27;&#x27;, &#x27;scheduler_groups&#x27;: None, &#x27;password&#x27;: &#x27;&lt;ask&gt;&#x27;, &#x27;request_queue_size&#x27;: 5, &#x27;ssl_certificate&#x27;: &#x27;&#x27;, &#x27;cronjob&#x27;: False, &#x27;numthreads&#x27;: None, &#x27;quiet&#x27;: False, &#x27;interfaces&#x27;: None, &#x27;import_models&#x27;: False, &#x27;timeout&#x27;: 10, &#x27;plain&#x27;: False, &#x27;nobanner&#x27;: False}&gt;</div></td></tr><tr><td style="font-weight:bold;vertical-align:top">content_length</td><td valign="top">:</td><td><div>435</div></td></tr><tr><td style="font-weight:bold;vertical-align:top">content_type</td><td valign="top">:</td><td><div>multipart/form-data; boundary=---------------------------68054502416889596545981562</div></td></tr><tr><td style="font-weight:bold;vertical-align:top">db_sessions</td><td valign="top">:</td><td><div>set([])</div></td></tr><tr><td style="font-weight:bold;vertical-align:top">debugging</td><td valign="top">:</td><td><div>True</div></td></tr><tr><td style="font-weight:bold;vertical-align:top">gluon_parent</td><td valign="top">:</td><td><div>/home/monika/Desktop/web2py</div></td></tr><tr><td style="font-weight:bold;vertical-align:top">http_accept</td><td valign="top">:</td><td><div>text/html,application/xhtml+xml,application/xml;q=0.9,*/*;q=0.8</div></td></tr><tr><td style="font-weight:bold;vertical-align:top">http_accept_encoding</td><td valign="top">:</td><td><div>gzip, deflate</div></td></tr><tr><td style="font-weight:bold;vertical-align:top">http_accept_language</td><td valign="top">:</td><td><div>en-US,en;q=0.5</div></td></tr><tr><td style="font-weight:bold;vertical-align:top">http_connection</td><td valign="top">:</td><td><div>keep-alive</div></td></tr><tr><td style="font-weight:bold;vertical-align:top">http_content_length</td><td valign="top">:</td><td><div>435</div></td></tr><tr><td style="font-weight:bold;vertical-align:top">http_content_type</td><td valign="top">:</td><td><div>multipart/form-data; boundary=---------------------------68054502416889596545981562</div></td></tr><tr><td style="font-weight:bold;vertical-align:top">http_cookie</td><td valign="top">:</td><td><div>session_id_welcome=127.0.0.1-3f6effc8-ac9b-4dda-8467-0bad0cefb2eb; session_id_admin=127.0.0.1-fa13630b-03d7-4009-910c-a319aeba0c0f; session_id_todo=127.0.0.1-33ad01bd-2567-400b-a758-a676e79347ee</div></td></tr><tr><td style="font-weight:bold;vertical-align:top">http_host</td><td valign="top">:</td><td><div>127.0.0.1:8000</div></td></tr><tr><td style="font-weight:bold;vertical-align:top">http_referer</td><td valign="top">:</td><td><div>http://127.0.0.1:8000/todo/default/display_form</div></td></tr><tr><td style="font-weight:bold;vertical-align:top">http_user_agent</td><td valign="top">:</td><td><div>Mozilla/5.0 (X11; Ubuntu; Linux x86_64; rv:22.0) Gecko/20100101 Firefox/22.0</div></td></tr><tr><td style="font-weight:bold;vertical-align:top">is_jython</td><td valign="top">:</td><td><div>False</div></td></tr><tr><td style="font-weight:bold;vertical-align:top">is_pypy</td><td valign="top">:</td><td><div>False</div></td></tr><tr><td style="font-weight:bold;vertical-align:top">local_hosts</td><td valign="top">:</td><td><div><table><tr><td><div>127.0.1.1</div></td></tr><tr><td><div>::1</div></td></tr><tr><td><div>dell-OptiPlex-7010</div></td></tr><tr><td><div>::ffff:127.0.0.1</div></td></tr><tr><td><div>127.0.0.1</div></td></tr></table></div></td></tr><tr><td style="font-weight:bold;vertical-align:top">path_info</td><td valign="top">:</td><td><div>/todo/default/display_form</div></td></tr><tr><td style="font-weight:bold;vertical-align:top">query_string</td><td valign="top">:</td><td><div></div></td></tr><tr><td style="font-weight:bold;vertical-align:top">remote_addr</td><td valign="top">:</td><td><div>127.0.0.1</div></td></tr><tr><td style="font-weight:bold;vertical-align:top">remote_port</td><td valign="top">:</td><td><div>41330</div></td></tr><tr><td style="font-weight:bold;vertical-align:top">request_method</td><td valign="top">:</td><td><div>POST</div></td></tr><tr><td style="font-weight:bold;vertical-align:top">request_uri</td><td valign="top">:</td><td><div>/todo/default/display_form</div></td></tr><tr><td style="font-weight:bold;vertical-align:top">script_name</td><td valign="top">:</td><td><div></div></td></tr><tr><td style="font-weight:bold;vertical-align:top">server_name</td><td valign="top">:</td><td><div>dell-OptiPlex-7010</div></td></tr><tr><td style="font-weight:bold;vertical-align:top">server_port</td><td valign="top">:</td><td><div>8000</div></td></tr><tr><td style="font-weight:bold;vertical-align:top">server_protocol</td><td valign="top">:</td><td><div>HTTP/1.1</div></td></tr><tr><td style="font-weight:bold;vertical-align:top">server_software</td><td valign="top">:</td><td><div>Rocket 1.2.6</div></td></tr><tr><td style="font-weight:bold;vertical-align:top">web2py_path</td><td valign="top">:</td><td><div>/home/monika/Desktop/web2py</div></td></tr><tr><td style="font-weight:bold;vertical-align:top">web2py_version</td><td valign="top">:</td><td><div>2.5.1-stable+timestamp.2013.06.06.15.39.19</div></td></tr><tr><td style="font-weight:bold;vertical-align:top">wsgi_errors</td><td valign="top">:</td><td><div>&lt;open file &#x27;&lt;stderr&gt;&#x27;, mode &#x27;w&#x27; at 0x7f8dbdbae270&gt;</div></td></tr><tr><td style="font-weight:bold;vertical-align:top">wsgi_file_wrapper</td><td valign="top">:</td><td><div>&lt;class wsgiref.util.FileWrapper at 0x28071f0&gt;</div></td></tr><tr><td style="font-weight:bold;vertical-align:top">wsgi_input</td><td valign="top">:</td><td><div>&lt;socket._fileobject object at 0x7f8d8c4f1d50&gt;</div></td></tr><tr><td style="font-weight:bold;vertical-align:top">wsgi_multiprocess</td><td valign="top">:</td><td><div>False</div></td></tr><tr><td style="font-weight:bold;vertical-align:top">wsgi_multithread</td><td valign="top">:</td><td><div>True</div></td></tr><tr><td style="font-weight:bold;vertical-align:top">wsgi_run_once</td><td valign="top">:</td><td><div>False</div></td></tr><tr><td style="font-weight:bold;vertical-align:top">wsgi_url_scheme</td><td valign="top">:</td><td><div>http</div></td></tr><tr><td style="font-weight:bold;vertical-align:top">wsgi_version</td><td valign="top">:</td><td><div><table><tr><td><div>1</div></td></tr><tr><td><div>0</div></td></tr></table></div></td></tr></table></div></td></tr><tr><td style="font-weight:bold;vertical-align:top">extension</td><td valign="top">:</td><td><div>html</div></td></tr><tr><td style="font-weight:bold;vertical-align:top">folder</td><td valign="top">:</td><td><div>/home/monika/Desktop/web2py/applications/todo/</div></td></tr><tr><td style="font-weight:bold;vertical-align:top">function</td><td valign="top">:</td><td><div>display_form</div></td></tr><tr><td style="font-weight:bold;vertical-align:top">get_vars</td><td valign="top">:</td><td><div><table></table></div></td></tr><tr><td style="font-weight:bold;vertical-align:top">global_settings</td><td valign="top">:</td><td><div><table><tr><td style="font-weight:bold;vertical-align:top">app_folders</td><td valign="top">:</td><td><div>set([&#x27;/home/monika/Desktop/web2py/applications/welcome/&#x27;, &#x27;/home/monika/Desktop/web2py/applications/admin/&#x27;, &#x27;/home/monika/Desktop/web2py/applications/todo/&#x27;])</div></td></tr><tr><td style="font-weight:bold;vertical-align:top">applications_parent</td><td valign="top">:</td><td><div>/home/monika/Desktop/web2py</div></td></tr><tr><td style="font-weight:bold;vertical-align:top">cmd_args</td><td valign="top">:</td><td><div><table></table></div></td></tr><tr><td style="font-weight:bold;vertical-align:top">cmd_options</td><td valign="top">:</td><td><div>&lt;Values at 0x28a9320: {&#x27;verbose&#x27;: False, &#x27;ip&#x27;: &#x27;127.0.0.1&#x27;, &#x27;with_scheduler&#x27;: False, &#x27;ips&#x27;: [&#x27;127.0.1.1&#x27;], &#x27;shutdown_timeout&#x27;: 5, &#x27;taskbar&#x27;: False, &#x27;with_coverage&#x27;: False, &#x27;port&#x27;: 8000, &#x27;maxthreads&#x27;: None, &#x27;softcron&#x27;: False, &#x27;server_name&#x27;: &#x27;dell-OptiPlex-7010&#x27;, &#x27;bpython&#x27;: False, &#x27;nogui&#x27;: False, &#x27;pid_filename&#x27;: &#x27;httpserver.pid&#x27;, &#x27;extcron&#x27;: False, &#x27;runcron&#x27;: False, &#x27;run_system_tests&#x27;: False, &#x27;test&#x27;: None, &#x27;folder&#x27;: &#x27;/home/monika/Desktop/web2py&#x27;, &#x27;config&#x27;: &#x27;&#x27;, &#x27;minthreads&#x27;: None, &#x27;winservice&#x27;: &#x27;&#x27;, &#x27;shell&#x27;: None, &#x27;run&#x27;: &#x27;&#x27;, &#x27;log_filename&#x27;: &#x27;httpserver.log&#x27;, &#x27;debuglevel&#x27;: 30, &#x27;args&#x27;: [&#x27;&#x27;], &#x27;socket_timeout&#x27;: 5, &#x27;ssl_ca_certificate&#x27;: None, &#x27;scheduler&#x27;: None, &#x27;profiler_filename&#x27;: None, &#x27;ssl_private_key&#x27;: &#x27;&#x27;, &#x27;scheduler_groups&#x27;: None, &#x27;password&#x27;: &#x27;&lt;ask&gt;&#x27;, &#x27;request_queue_size&#x27;: 5, &#x27;ssl_certificate&#x27;: &#x27;&#x27;, &#x27;cronjob&#x27;: False, &#x27;numthreads&#x27;: None, &#x27;quiet&#x27;: False, &#x27;interfaces&#x27;: None, &#x27;import_models&#x27;: False, &#x27;timeout&#x27;: 10, &#x27;plain&#x27;: False, &#x27;nobanner&#x27;: False}&gt;</div></td></tr><tr><td style="font-weight:bold;vertical-align:top">db_sessions</td><td valign="top">:</td><td><div>set([])</div></td></tr><tr><td style="font-weight:bold;vertical-align:top">debugging</td><td valign="top">:</td><td><div>True</div></td></tr><tr><td style="font-weight:bold;vertical-align:top">gluon_parent</td><td valign="top">:</td><td><div>/home/monika/Desktop/web2py</div></td></tr><tr><td style="font-weight:bold;vertical-align:top">is_jython</td><td valign="top">:</td><td><div>False</div></td></tr><tr><td style="font-weight:bold;vertical-align:top">is_pypy</td><td valign="top">:</td><td><div>False</div></td></tr><tr><td style="font-weight:bold;vertical-align:top">local_hosts</td><td valign="top">:</td><td><div><table><tr><td><div>127.0.1.1</div></td></tr><tr><td><div>::1</div></td></tr><tr><td><div>dell-OptiPlex-7010</div></td></tr><tr><td><div>::ffff:127.0.0.1</div></td></tr><tr><td><div>127.0.0.1</div></td></tr></table></div></td></tr><tr><td style="font-weight:bold;vertical-align:top">web2py_version</td><td valign="top">:</td><td><div>2.5.1-stable+timestamp.2013.06.06.15.39.19</div></td></tr></table></div></td></tr><tr><td style="font-weight:bold;vertical-align:top">is_https</td><td valign="top">:</td><td><div>False</div></td></tr><tr><td style="font-weight:bold;vertical-align:top">is_local</td><td valign="top">:</td><td><div>True</div></td></tr><tr><td style="font-weight:bold;vertical-align:top">is_restful</td><td valign="top">:</td><td><div>False</div></td></tr><tr><td style="font-weight:bold;vertical-align:top">now</td><td valign="top">:</td><td><div>datetime.datetime(2013, 7, 31, 19, 4, 52, 565591)</div></td></tr><tr><td style="font-weight:bold;vertical-align:top">post_vars</td><td valign="top">:</td><td><div><table><tr><td style="font-weight:bold;vertical-align:top">testcase1</td><td valign="top">:</td><td><div>1</div></td></tr></table></div></td></tr><tr><td style="font-weight:bold;vertical-align:top">raw_args</td><td valign="top">:</td><td><div></div></td></tr><tr><td style="font-weight:bold;vertical-align:top">raw_extension</td><td valign="top">:</td><td><div>None</div></td></tr><tr><td style="font-weight:bold;vertical-align:top">url</td><td valign="top">:</td><td><div>/todo/default/display_form</div></td></tr><tr><td style="font-weight:bold;vertical-align:top">utcnow</td><td valign="top">:</td><td><div>datetime.datetime(2013, 7, 31, 13, 34, 52, 565614)</div></td></tr><tr><td style="font-weight:bold;vertical-align:top">uuid</td><td valign="top">:</td><td><div>todo/127.0.0.1.2013-07-31.19-04-52.aa2a9665-69d5-4231-b980-868cb3ffb01c</div></td></tr><tr><td style="font-weight:bold;vertical-align:top">vars</td><td valign="top">:</td><td><div><table><tr><td style="font-weight:bold;vertical-align:top">testcase1</td><td valign="top">:</td><td><div>1</div></td></tr></table></div></td></tr><tr><td style="font-weight:bold;vertical-align:top">wsgi</td><td valign="top">:</td><td><div><table><tr><td style="font-weight:bold;vertical-align:top">environ</td><td valign="top">:</td><td><div><table><tr><td style="font-weight:bold;vertical-align:top">CONTENT_LENGTH</td><td valign="top">:</td><td><div>435</div></td></tr><tr><td style="font-weight:bold;vertical-align:top">CONTENT_TYPE</td><td valign="top">:</td><td><div>multipart/form-data; boundary=---------------------------68054502416889596545981562</div></td></tr><tr><td style="font-weight:bold;vertical-align:top">HTTP_ACCEPT</td><td valign="top">:</td><td><div>text/html,application/xhtml+xml,application/xml;q=0.9,*/*;q=0.8</div></td></tr><tr><td style="font-weight:bold;vertical-align:top">HTTP_ACCEPT_ENCODING</td><td valign="top">:</td><td><div>gzip, deflate</div></td></tr><tr><td style="font-weight:bold;vertical-align:top">HTTP_ACCEPT_LANGUAGE</td><td valign="top">:</td><td><div>en-US,en;q=0.5</div></td></tr><tr><td style="font-weight:bold;vertical-align:top">HTTP_CONNECTION</td><td valign="top">:</td><td><div>keep-alive</div></td></tr><tr><td style="font-weight:bold;vertical-align:top">HTTP_CONTENT_LENGTH</td><td valign="top">:</td><td><div>435</div></td></tr><tr><td style="font-weight:bold;vertical-align:top">HTTP_CONTENT_TYPE</td><td valign="top">:</td><td><div>multipart/form-data; boundary=---------------------------68054502416889596545981562</div></td></tr><tr><td style="font-weight:bold;vertical-align:top">HTTP_COOKIE</td><td valign="top">:</td><td><div>session_id_welcome=127.0.0.1-3f6effc8-ac9b-4dda-8467-0bad0cefb2eb; session_id_admin=127.0.0.1-fa13630b-03d7-4009-910c-a319aeba0c0f; session_id_todo=127.0.0.1-33ad01bd-2567-400b-a758-a676e79347ee</div></td></tr><tr><td style="font-weight:bold;vertical-align:top">HTTP_HOST</td><td valign="top">:</td><td><div>127.0.0.1:8000</div></td></tr><tr><td style="font-weight:bold;vertical-align:top">HTTP_REFERER</td><td valign="top">:</td><td><div>http://127.0.0.1:8000/todo/default/display_form</div></td></tr><tr><td style="font-weight:bold;vertical-align:top">HTTP_USER_AGENT</td><td valign="top">:</td><td><div>Mozilla/5.0 (X11; Ubuntu; Linux x86_64; rv:22.0) Gecko/20100101 Firefox/22.0</div></td></tr><tr><td style="font-weight:bold;vertical-align:top">PATH_INFO</td><td valign="top">:</td><td><div>/todo/default/display_form</div></td></tr><tr><td style="font-weight:bold;vertical-align:top">QUERY_STRING</td><td valign="top">:</td><td><div></div></td></tr><tr><td style="font-weight:bold;vertical-align:top">REMOTE_ADDR</td><td valign="top">:</td><td><div>127.0.0.1</div></td></tr><tr><td style="font-weight:bold;vertical-align:top">REMOTE_PORT</td><td valign="top">:</td><td><div>41330</div></td></tr><tr><td style="font-weight:bold;vertical-align:top">REQUEST_METHOD</td><td valign="top">:</td><td><div>POST</div></td></tr><tr><td style="font-weight:bold;vertical-align:top">REQUEST_URI</td><td valign="top">:</td><td><div>/todo/default/display_form</div></td></tr><tr><td style="font-weight:bold;vertical-align:top">SCRIPT_NAME</td><td valign="top">:</td><td><div></div></td></tr><tr><td style="font-weight:bold;vertical-align:top">SERVER_NAME</td><td valign="top">:</td><td><div>dell-OptiPlex-7010</div></td></tr><tr><td style="font-weight:bold;vertical-align:top">SERVER_PORT</td><td valign="top">:</td><td><div>8000</div></td></tr><tr><td style="font-weight:bold;vertical-align:top">SERVER_PROTOCOL</td><td valign="top">:</td><td><div>HTTP/1.1</div></td></tr><tr><td style="font-weight:bold;vertical-align:top">SERVER_SOFTWARE</td><td valign="top">:</td><td><div>Rocket 1.2.6</div></td></tr><tr><td style="font-weight:bold;vertical-align:top">wsgi.errors</td><td valign="top">:</td><td><div>&lt;open file &#x27;&lt;stderr&gt;&#x27;, mode &#x27;w&#x27; at 0x7f8dbdbae270&gt;</div></td></tr><tr><td style="font-weight:bold;vertical-align:top">wsgi.file_wrapper</td><td valign="top">:</td><td><div>&lt;class wsgiref.util.FileWrapper at 0x28071f0&gt;</div></td></tr><tr><td style="font-weight:bold;vertical-align:top">wsgi.input</td><td valign="top">:</td><td><div>&lt;open file &#x27;&lt;fdopen&gt;&#x27;, mode &#x27;w+b&#x27; at 0x7f8d8c4f7e40&gt;</div></td></tr><tr><td style="font-weight:bold;vertical-align:top">wsgi.multiprocess</td><td valign="top">:</td><td><div>False</div></td></tr><tr><td style="font-weight:bold;vertical-align:top">wsgi.multithread</td><td valign="top">:</td><td><div>True</div></td></tr><tr><td style="font-weight:bold;vertical-align:top">wsgi.run_once</td><td valign="top">:</td><td><div>False</div></td></tr><tr><td style="font-weight:bold;vertical-align:top">wsgi.url_scheme</td><td valign="top">:</td><td><div>http</div></td></tr><tr><td style="font-weight:bold;vertical-align:top">wsgi.version</td><td valign="top">:</td><td><div>1</div></td></tr></table></div></td></tr></table></div></td></tr></table></div>'
tRp70
sS'frames'
p71
(lp72
(dp73
S'file'
p74
S'/home/monika/Desktop/web2py/gluon/restricted.py'
p75
sS'dump'
p76
(dp77
S'environment'
p78
S"{'A': <class 'gluon.html.A'>, 'ANY_OF': <class 'gluon.validators.ANY_OF'>, 'Auth': <class 'gluon.tools.Auth'>, 'B': <class 'gluon.html.B'>, 'BEAUTIFY': <class 'gluon.html.BEAUTIFY'>, 'BODY': <class 'gluon.html.BODY'>, 'BR': <class 'gluon.html.BR'>, 'BUTTON': <class 'gluon.html.BUTTON'>, 'CAT': <class 'gluon.html.CAT'>, 'CENTER': <class 'gluon.html.CENTER'>, ...}"
p79
sS'ccode'
p80
S'<code object <module> at 0x7f8d8c357130, file "/...plications/todo/controllers/default.py", line 16>'
p81
ssS'lnum'
p82
I212
sS'lines'
p83
(dp84
I207
S'    try:'
p85
sI208
S'        if isinstance(code, types.CodeType):'
p86
sI209
S'            ccode = code'
p87
sI210
S'        else:'
p88
sI211
S'            ccode = compile2(code, layer)'
p89
sI212
S'        exec ccode in environment'
p90
sI213
S'    except HTTP:'
p91
sI214
S'        raise'
p92
sI215
S'    except RestrictedError:'
p93
sI216
S'        # do not encapsulate (obfuscate) the original RestrictedError'
p94
ssS'call'
p95
S"(code='# -*- coding: utf-8 -*-\\n# this file is released ...)\\n\\nresponse._vars=response._caller(display_form)\\n', environment={'A': <class 'gluon.html.A'>, 'ANY_OF': <class 'gluon.validators.ANY_OF'>, 'Auth': <class 'gluon.tools.Auth'>, 'B': <class 'gluon.html.B'>, 'BEAUTIFY': <class 'gluon.html.BEAUTIFY'>, 'BODY': <class 'gluon.html.BODY'>, 'BR': <class 'gluon.html.BR'>, 'BUTTON': <class 'gluon.html.BUTTON'>, 'CAT': <class 'gluon.html.CAT'>, 'CENTER': <class 'gluon.html.CENTER'>, ...}, layer='/home/monika/Desktop/web2py/applications/todo/controllers/default.py')"
p96
sS'func'
p97
S'restricted'
p98
sa(dp99
g74
S'/home/monika/Desktop/web2py/applications/todo/controllers/default.py'
p100
sg76
(dp101
sg82
I126
sg83
(dp102
I115
S'    if form.process().accepted:'
p103
sI116
S'        for i in xrange(1,21):'
p104
sI117
S"            test_case_no=request.vars['testcase'+str(i)]"
p105
sI118
S'            if test_case_no!=None:'
p106
sI119
S'                test_script(test_case_no)'
p107
sI120
S'    elif form.errors:'
p108
sI121
S"        response.flash = 'form has errors'"
p109
sI122
S'    else:'
p110
sI123
S"        response.flash = 'please fill the form'"
p111
sI124
S'    return dict(form=form)'
p112
ssg95
S'()'
p113
sg97
S'<module>'
p114
sa(dp115
g74
S'/home/monika/Desktop/web2py/gluon/globals.py'
p116
sg76
(dp117
S'self'
p118
S'undefined'
p119
sS'f'
S'<function display_form>'
p120
ssg82
I194
sg83
(dp121
I192
S"        self.delimiters = ('{{', '}}')"
p122
sI193
S'        self._vars = None'
p123
sI194
S'        self._caller = lambda f: f()'
p124
sI195
S'        self._view_environment = None'
p125
sI196
S'        self._custom_commit = None'
p126
sI197
S'        self._custom_rollback = None'
p127
sI198
S''
sI189
S'        self.menu = []             # used by the default view layout'
p128
sI190
S'        self.files = []            # used by web2py_ajax.html'
p129
sI191
S'        self.generic_patterns = []  # patterns to allow generic views'
p130
ssg95
S'(f=<function display_form>)'
p131
sg97
S'<lambda>'
p132
sa(dp133
g74
S'/home/monika/Desktop/web2py/applications/todo/controllers/default.py'
p134
sg76
(dp135
S'test_case_no'
p136
S"'1'"
p137
sS'global test_script'
p138
S'<function test_script>'
p139
ssg82
I119
sg83
(dp140
I114
S''
sI115
S'    if form.process().accepted:'
p141
sI116
S'        for i in xrange(1,21):'
p142
sI117
S"            test_case_no=request.vars['testcase'+str(i)]"
p143
sI118
S'            if test_case_no!=None:'
p144
sI119
S'                test_script(test_case_no)'
p145
sI120
S'    elif form.errors:'
p146
sI121
S"        response.flash = 'form has errors'"
p147
sI122
S'    else:'
p148
sI123
S"        response.flash = 'please fill the form'"
p149
ssg95
S'()'
p150
sg97
S'display_form'
p151
sa(dp152
g74
S'/home/monika/Desktop/web2py/applications/todo/models/test.py'
p153
sg76
(dp154
S'global isSubmit'
p155
S'<function isSubmit>'
p156
sS'xml_parent'
p157
S"<Element 'test_script1'>"
p158
sS'xml_sub_child'
p159
S"<Element 'submit'>"
p160
sS'driver'
p161
S'<selenium.webdriver.firefox.webdriver.WebDriver object>'
p162
sS'xml_child'
p163
S"<Element 'test_case3'>"
p164
ssg82
I47
sg83
(dp165
I42
S''
sI43
S'                elif field_type=="read_only": #checking for submit button'
p166
sI44
S'                    isReadOnly(driver, xml_parent,xml_child,xml_sub_child)'
p167
sI45
S''
sI46
S'                elif field_type=="submit": #checking for submit button'
p168
sI47
S'                    isSubmit(driver, xml_parent,xml_child,xml_sub_child)'
p169
sI48
S''
sI49
S'                elif field_type=="button":#checking for button'
p170
sI50
S'                    isButton(driver,xml_sub_child)'
p171
sI51
S''
ssg95
S"(test_case_no='1')"
p172
sg97
S'test_script'
p173
sa(dp174
g74
S'/home/monika/Desktop/web2py/applications/todo/models/test.py'
p175
sg76
(dp176
S'xpath'
p177
S'"//span[@class=\'auth_navbar\']"'
p178
sS'field'
p179
g119
sS'driver'
p180
S'<selenium.webdriver.firefox.webdriver.WebDriver object>'
p181
sS'driver.find_element_by_xpath'
p182
S'<bound method WebDriver.find_element_by_xpath of...um.webdriver.firefox.webdriver.WebDriver object>>'
p183
ssg82
I172
sg83
(dp184
I167
S'    current_time=datetime.datetime.now()'
p185
sI168
S"    user_name=xml_child.find('user_name').text"
p186
sI169
S'    driver.find_element_by_xpath(xml_sub_child.text).click()'
p187
sI170
S'    xpath=xml_parent.get("xpath")'
p188
sI171
S'    status=isElementPresent(driver,xml_child, xpath)'
p189
sI172
S'    field=driver.find_element_by_xpath(xpath)'
p190
sI173
S'    if status==1:'
p191
sI174
S'        if ("Logout" in field.get_attribute("innerHTML")):'
p192
sI175
S'             logger.debug(xml_child.get("value")  +\': Result:Valid Login\') #logging the report'
p193
sI176
S'        else:'
p194
ssg95
S"(driver=<selenium.webdriver.firefox.webdriver.WebDriver object>, xml_parent=<Element 'test_script1'>, xml_child=<Element 'test_case3'>, xml_sub_child=<Element 'submit'>)"
p195
sg97
S'isSubmit'
p196
sa(dp197
g74
S'/usr/local/lib/python2.7/dist-packages/selenium-2.33.0-py2.7.egg/selenium/webdriver/remote/webdriver.py'
p198
sg76
(dp199
S'xpath'
p200
S'"//span[@class=\'auth_navbar\']"'
p201
sS'self.find_element'
p202
S'<bound method WebDriver.find_element of <selenium.webdriver.firefox.webdriver.WebDriver object>>'
p203
sS'self'
p204
S'<selenium.webdriver.firefox.webdriver.WebDriver object>'
p205
sS'value'
p206
g119
sS'By.XPATH'
p207
S"'xpath'"
p208
sS'global By'
p209
S"<class 'selenium.webdriver.common.by.By'>"
p210
sS'by'
p211
g119
ssg82
I222
sg83
(dp212
I224
S'    def find_elements_by_xpath(self, xpath):'
p213
sI225
S'        """'
p214
sI226
S'        Finds multiple elements by xpath.'
p215
sI217
S'         - xpath - The xpath locator of the element to find.'
p216
sI218
S''
sI219
S'        :Usage:'
p217
sI220
S"            driver.find_element_by_xpath('//div/td[1]')"
p218
sI221
S'        """'
p219
sI222
S'        return self.find_element(by=By.XPATH, value=xpath)'
p220
sI223
S''
ssg95
S'(self=<selenium.webdriver.firefox.webdriver.WebDriver object>, xpath="//span[@class=\'auth_navbar\']")'
p221
sg97
S'find_element_by_xpath'
p222
sa(dp223
g74
S'/usr/local/lib/python2.7/dist-packages/selenium-2.33.0-py2.7.egg/selenium/webdriver/remote/webdriver.py'
p224
sg76
(dp225
S'by'
p226
S"'xpath'"
p227
sS'value'
p228
S'"//span[@class=\'auth_navbar\']"'
p229
ssg82
I680
sg83
(dp230
I675
S'        """'
p231
sI676
S'        if isinstance(by, tuple) or isinstance(value, int) or value==None:'
p232
sI677
S'            raise InvalidSelectorException("Invalid locator values passed in")'
p233
sI678
S''
sI679
S'        return self.execute(Command.FIND_ELEMENT,'
p234
sI680
S"                             {'using': by, 'value': value})['value']"
p235
sI681
S''
sI682
S'    def find_elements(self, by=By.ID, value=None):'
p236
sI683
S'        """'
p237
sI684
S"        'Private' method used by the find_elements_by_* methods."
p238
ssg95
S'(self=<selenium.webdriver.firefox.webdriver.WebDriver object>, by=\'xpath\', value="//span[@class=\'auth_navbar\']")'
p239
sg97
S'find_element'
p240
sa(dp241
g74
S'/usr/local/lib/python2.7/dist-packages/selenium-2.33.0-py2.7.egg/selenium/webdriver/remote/webdriver.py'
p242
sg76
(dp243
S'self.command_executor'
p244
S'<selenium.webdriver.firefox.extension_connection.ExtensionConnection object>'
p245
sS'self'
p246
S'<selenium.webdriver.firefox.webdriver.WebDriver object>'
p247
sS'params'
p248
S'{\'sessionId\': u\'923a9883-e085-4562-9cae-55e26982f428\', \'using\': \'xpath\', \'value\': "//span[@class=\'auth_navbar\']"}'
p249
sS'self.command_executor.execute'
p250
S'<bound method ExtensionConnection.execute of <se...extension_connection.ExtensionConnection object>>'
p251
sS'response'
p252
g119
sS'driver_command'
p253
S"'findElement'"
p254
ssg82
I163
sg83
(dp255
I160
S"            params['sessionId'] = self.session_id"
p256
sI161
S''
sI162
S'        params = self._wrap_value(params)'
p257
sI163
S'        response = self.command_executor.execute(driver_command, params)'
p258
sI164
S'        if response:'
p259
sI165
S'            self.error_handler.check_response(response)'
p260
sI166
S"            response['value'] = self._unwrap_value("
p261
sI167
S"                response.get('value', None))"
p262
sI158
S"            params = {'sessionId': self.session_id}"
p263
sI159
S"        elif 'sessionId' not in params:"
p264
ssg95
S'(self=<selenium.webdriver.firefox.webdriver.WebDriver object>, driver_command=\'findElement\', params={\'sessionId\': u\'923a9883-e085-4562-9cae-55e26982f428\', \'using\': \'xpath\', \'value\': "//span[@class=\'auth_navbar\']"})'
p265
sg97
S'execute'
p266
sa(dp267
g74
S'/usr/local/lib/python2.7/dist-packages/selenium-2.33.0-py2.7.egg/selenium/webdriver/remote/remote_connection.py'
p268
sg76
(dp269
S'url'
p270
S"u'http://127.0.0.1:34478/hub/session/923a9883-e085-4562-9cae-55e26982f428/element'"
p271
sS'self'
p272
S'<selenium.webdriver.firefox.extension_connection.ExtensionConnection object>'
p273
sS'command_info'
p274
S"('POST', '/session/$sessionId/element')"
p275
sS'self._request'
p276
S'<bound method ExtensionConnection._request of <s...extension_connection.ExtensionConnection object>>'
p277
sS'data'
p278
S'\'{"using": "xpath", "sessionId": "923a9883-e085-4...82f428", "value": "//span[@class=\\\'auth_navbar\\\']"}\''
p279
sS'method'
p280
g119
ssg82
I349
sg83
(dp281
I352
S'        """'
p282
sI353
S'        Send an HTTP request to the remote server.'
p283
sI344
S'        command_info = self._commands[command]'
p284
sI345
S"        assert command_info is not None, 'Unrecognised command %s' % command"
p285
sI346
S'        data = utils.dump_json(params)'
p286
sI347
S'        path = string.Template(command_info[1]).substitute(params)'
p287
sI348
S"        url = '%s%s' % (self._url, path)"
p288
sI349
S'        return self._request(url, method=command_info[0], data=data)'
p289
sI350
S''
sI351
S'    def _request(self, url, data=None, method=None):'
p290
ssg95
S'(self=<selenium.webdriver.firefox.extension_connection.ExtensionConnection object>, command=\'findElement\', params={\'sessionId\': u\'923a9883-e085-4562-9cae-55e26982f428\', \'using\': \'xpath\', \'value\': "//span[@class=\'auth_navbar\']"})'
p291
sg97
g266
sa(dp292
g74
S'/usr/local/lib/python2.7/dist-packages/selenium-2.33.0-py2.7.egg/selenium/webdriver/remote/remote_connection.py'
p293
sg76
(dp294
S'opener'
p295
S'<urllib2.OpenerDirector instance>'
p296
sS'request'
p297
S'<selenium.webdriver.remote.remote_connection.Request instance>'
p298
sS'response'
p299
g119
sS'opener.open'
p300
S'<bound method OpenerDirector.open of <urllib2.OpenerDirector instance>>'
p301
ssg82
I396
sg83
(dp302
I391
S'                                          HttpErrorHandler(),'
p303
sI392
S'                                          url_request.HTTPBasicAuthHandler(password_manager))'
p304
sI393
S'        else:'
p305
sI394
S'            opener = url_request.build_opener(url_request.HTTPRedirectHandler(),'
p306
sI395
S'                                          HttpErrorHandler())'
p307
sI396
S'        response = opener.open(request)'
p308
sI397
S'        try:'
p309
sI398
S'            if response.code > 399 and response.code < 500:'
p310
sI399
S"                return {'status': response.code, 'value': response.read()}"
p311
sI400
S"            body = response.read().decode('utf-8').replace('\\x00', '').strip()"
p312
ssg95
S'(self=<selenium.webdriver.firefox.extension_connection.ExtensionConnection object>, url=u\'http://127.0.0.1:34478/hub/session/923a9883-e085-4562-9cae-55e26982f428/element\', data=\'{"using": "xpath", "sessionId": "923a9883-e085-4...82f428", "value": "//span[@class=\\\'auth_navbar\\\']"}\', method=\'POST\')'
p313
sg97
S'_request'
p314
sa(dp315
g74
S'/usr/lib/python2.7/urllib2.py'
p316
sg76
(dp317
S'self'
p318
S'<urllib2.OpenerDirector instance>'
p319
sS'req'
p320
S'<selenium.webdriver.remote.remote_connection.Request instance>'
p321
sS'data'
p322
S'None'
p323
sS'response'
p324
g119
sS'self._open'
p325
S'<bound method OpenerDirector._open of <urllib2.OpenerDirector instance>>'
p326
ssg82
I400
sg83
(dp327
I395
S'        meth_name = protocol+"_request"'
p328
sI396
S'        for processor in self.process_request.get(protocol, []):'
p329
sI397
S'            meth = getattr(processor, meth_name)'
p330
sI398
S'            req = meth(req)'
p331
sI399
S''
sI400
S'        response = self._open(req, data)'
p332
sI401
S''
sI402
S'        # post-process response'
p333
sI403
S'        meth_name = protocol+"_response"'
p334
sI404
S'        for processor in self.process_response.get(protocol, []):'
p335
ssg95
S'(self=<urllib2.OpenerDirector instance>, fullurl=<selenium.webdriver.remote.remote_connection.Request instance>, data=None, timeout=<object object>)'
p336
sg97
S'open'
p337
sa(dp338
g74
S'/usr/lib/python2.7/urllib2.py'
p339
sg76
(dp340
S'req'
p341
S'<selenium.webdriver.remote.remote_connection.Request instance>'
p342
ssg82
I418
sg83
(dp343
I416
S'        protocol = req.get_type()'
p344
sI417
S'        result = self._call_chain(self.handle_open, protocol, protocol +'
p345
sI418
S"                                  '_open', req)"
p346
sI419
S'        if result:'
p347
sI420
S'            return result'
p348
sI421
S''
sI422
S"        return self._call_chain(self.handle_open, 'unknown',"
p349
sI413
S'        if result:'
p350
sI414
S'            return result'
p351
sI415
S''
ssg95
S'(self=<urllib2.OpenerDirector instance>, req=<selenium.webdriver.remote.remote_connection.Request instance>, data=None)'
p352
sg97
S'_open'
p353
sa(dp354
g74
S'/usr/lib/python2.7/urllib2.py'
p355
sg76
(dp356
S'args'
p357
S'(<selenium.webdriver.remote.remote_connection.Request instance>,)'
p358
sS'result'
p359
g119
sS'func'
p360
S'<bound method HTTPHandler.http_open of <urllib2.HTTPHandler instance>>'
p361
ssg82
I378
sg83
(dp362
I373
S'        # could.  Otherwise, they return the response.'
p363
sI374
S'        handlers = chain.get(kind, ())'
p364
sI375
S'        for handler in handlers:'
p365
sI376
S'            func = getattr(handler, meth_name)'
p366
sI377
S''
sI378
S'            result = func(*args)'
p367
sI379
S'            if result is not None:'
p368
sI380
S'                return result'
p369
sI381
S''
sI382
S'    def open(self, fullurl, data=None, timeout=socket._GLOBAL_DEFAULT_TIMEOUT):'
p370
ssg95
S"(self=<urllib2.OpenerDirector instance>, chain={'file': [<urllib2.FileHandler instance>], 'ftp': [<urllib2.FTPHandler instance>], 'http': [<urllib2.HTTPHandler instance>], 'https': [<urllib2.HTTPSHandler instance>], 'unknown': [<urllib2.UnknownHandler instance>]}, kind=u'http', meth_name=u'http_open', *args=(<selenium.webdriver.remote.remote_connection.Request instance>,))"
p371
sg97
S'_call_chain'
p372
sa(dp373
g74
S'/usr/lib/python2.7/urllib2.py'
p374
sg76
(dp375
S'self'
p376
S'<urllib2.HTTPHandler instance>'
p377
sS'req'
p378
S'<selenium.webdriver.remote.remote_connection.Request instance>'
p379
sS'global httplib'
p380
S"<module 'httplib' from '/usr/lib/python2.7/httplib.pyc'>"
p381
sS'self.do_open'
p382
S'<bound method HTTPHandler.do_open of <urllib2.HTTPHandler instance>>'
p383
sS'httplib.HTTPConnection'
p384
S'<class httplib.HTTPConnection>'
p385
ssg82
I1207
sg83
(dp386
I1202
S''
sI1203
S''
sI1204
S'class HTTPHandler(AbstractHTTPHandler):'
p387
sI1205
S''
sI1206
S'    def http_open(self, req):'
p388
sI1207
S'        return self.do_open(httplib.HTTPConnection, req)'
p389
sI1208
S''
sI1209
S'    http_request = AbstractHTTPHandler.do_request_'
p390
sI1210
S''
sI1211
S"if hasattr(httplib, 'HTTPS'):"
p391
ssg95
S'(self=<urllib2.HTTPHandler instance>, req=<selenium.webdriver.remote.remote_connection.Request instance>)'
p392
sg97
S'http_open'
p393
sa(dp394
g74
S'/usr/lib/python2.7/urllib2.py'
p395
sg76
(dp396
S'err'
p397
S"error(111, 'Connection refused')"
p398
sS'global URLError'
p399
S"<class 'urllib2.URLError'>"
p400
ssg82
I1177
sg83
(dp401
I1172
S''
sI1173
S'        try:'
p402
sI1174
S'            h.request(req.get_method(), req.get_selector(), req.data, headers)'
p403
sI1175
S'        except socket.error, err: # XXX what error?'
p404
sI1176
S'            h.close()'
p405
sI1177
S'            raise URLError(err)'
p406
sI1178
S'        else:'
p407
sI1179
S'            try:'
p408
sI1180
S'                r = h.getresponse(buffering=True)'
p409
sI1181
S'            except TypeError: # buffering kw not supported'
p410
ssg95
S'(self=<urllib2.HTTPHandler instance>, http_class=<class httplib.HTTPConnection>, req=<selenium.webdriver.remote.remote_connection.Request instance>)'
p411
sg97
S'do_open'
p412
sasS'pyver'
p413
S'Python 2.7.3: /usr/bin/python (prefix: /usr)'
p414
sS'session'
p415
g69
(S's\x1a\x00\x00\x00<div><table></table></div>'
tRp416
sS'etype'
p417
S"<class 'urllib2.URLError'>"
p418
sS'date'
p419
S'Wed Jul 31 19:05:22 2013'
p420
sS'response'
p421
g69
(S'su,\x00\x00<div><table><tr><td style="font-weight:bold;vertical-align:top">body</td><td valign="top">:</td><td><div>&lt;cStringIO.StringO object at 0x7f8d94413a78&gt;</div></td></tr><tr><td style="font-weight:bold;vertical-align:top">cookies</td><td valign="top">:</td><td><div><table><tr><td style="font-weight:bold;vertical-align:top">session_id_todo</td><td valign="top">:</td><td><div>127.0.0.1-33ad01bd-2567-400b-a758-a676e79347ee<table><tr><td style="font-weight:bold;vertical-align:top">comment</td><td valign="top">:</td><td><div></div></td></tr><tr><td style="font-weight:bold;vertical-align:top">domain</td><td valign="top">:</td><td><div></div></td></tr><tr><td style="font-weight:bold;vertical-align:top">expires</td><td valign="top">:</td><td><div></div></td></tr><tr><td style="font-weight:bold;vertical-align:top">httponly</td><td valign="top">:</td><td><div></div></td></tr><tr><td style="font-weight:bold;vertical-align:top">max-age</td><td valign="top">:</td><td><div></div></td></tr><tr><td style="font-weight:bold;vertical-align:top">path</td><td valign="top">:</td><td><div>/</div></td></tr><tr><td style="font-weight:bold;vertical-align:top">secure</td><td valign="top">:</td><td><div></div></td></tr><tr><td style="font-weight:bold;vertical-align:top">version</td><td valign="top">:</td><td><div></div></td></tr></table></div></td></tr></table></div></td></tr><tr><td style="font-weight:bold;vertical-align:top">delimiters</td><td valign="top">:</td><td><div><table><tr><td><div>{{</div></td></tr><tr><td><div>}}</div></td></tr></table></div></td></tr><tr><td style="font-weight:bold;vertical-align:top">files</td><td valign="top">:</td><td><div><table></table></div></td></tr><tr><td style="font-weight:bold;vertical-align:top">flash</td><td valign="top">:</td><td><div>Success!</div></td></tr><tr><td style="font-weight:bold;vertical-align:top">generic_patterns</td><td valign="top">:</td><td><div><table></table></div></td></tr><tr><td style="font-weight:bold;vertical-align:top">google_analytics_id</td><td valign="top">:</td><td><div>None</div></td></tr><tr><td style="font-weight:bold;vertical-align:top">headers</td><td valign="top">:</td><td><div><table><tr><td style="font-weight:bold;vertical-align:top">X-Powered-By</td><td valign="top">:</td><td><div>web2py</div></td></tr></table></div></td></tr><tr><td style="font-weight:bold;vertical-align:top">logo</td><td valign="top">:</td><td><div><a class="brand" href="http://www.web2py.com/"><b>web<span>2</span>py</b>&trade;&nbsp;</a></div></td></tr><tr><td style="font-weight:bold;vertical-align:top">menu</td><td valign="top">:</td><td><div><table><tr><td><div><table><tr><td><div>Home</div></td></tr><tr><td><div>False</div></td></tr><tr><td><div>/todo/default/index</div></td></tr><tr><td><div><table></table></div></td></tr></table></div></td></tr><tr><td><div><table><tr><td><div><span class="highlighted">web2py</span></div></td></tr><tr><td><div>False</div></td></tr><tr><td><div>http://web2py.com</div></td></tr><tr><td><div><table><tr><td><div><table><tr><td><div>My Sites</div></td></tr><tr><td><div>False</div></td></tr><tr><td><div>/admin/default/site</div></td></tr></table></div></td></tr><tr><td><div><table><tr><td><div>This App</div></td></tr><tr><td><div>False</div></td></tr><tr><td><div>/admin/default/design/todo</div></td></tr><tr><td><div>[(&lt;lazyT &#x27;Controller&#x27;&gt;, False, &#x27;/admin/default/edit/todo/controllers/default.py&#x27;), (&lt;lazyT &#x27;View&#x27;&gt;, False, &#x27;/admin/default/edit/todo/views/default/display_form.html&#x27;), (&lt;lazyT &#x27;Layout&#x27;&gt;, False, &#x27;/admin/default/edit/todo/views/layout.html&#x27;), (&lt;lazyT &#x27;Stylesheet&#x27;&gt;, False, &#x27;/admin/default/edit/todo/static/css/web2py.css&#x27;), (&lt;lazyT &#x27;DB Model&#x27;&gt;, False, &#x27;/admin/default/edit/todo/models/db.py&#x27;), (&lt;lazyT &#x27;Menu Model&#x27;&gt;, False, &#x27;/admin/default/edit/todo/models/menu.py&#x27;), (&lt;lazyT &#x27;Database&#x27;&gt;, False, &#x27;/todo/appadmin/index&#x27;), (&lt;lazyT &#x27;Errors&#x27;&gt;, False, &#x27;/admin/default/errors/todo&#x27;), (&lt;lazyT &#x27;About&#x27;&gt;, False, &#x27;/admin/default/about/todo&#x27;)]</div></td></tr></table></div></td></tr><tr><td><div><table><tr><td><div>web2py.com</div></td></tr><tr><td><div>False</div></td></tr><tr><td><div>http://www.web2py.com</div></td></tr><tr><td><div>[(&lt;lazyT &#x27;Download&#x27;&gt;, False, &#x27;http://www.web2py.com/examples/default/download&#x27;), (&lt;lazyT &#x27;Support&#x27;&gt;, False, &#x27;http://www.web2py.com/examples/default/support&#x27;), (&lt;lazyT &#x27;Demo&#x27;&gt;, False, &#x27;http://web2py.com/demo_admin&#x27;), (&lt;lazyT &#x27;Quick Examples&#x27;&gt;, False, &#x27;http://web2py.com/examples/default/examples&#x27;), (&lt;lazyT &#x27;FAQ&#x27;&gt;, False, &#x27;http://web2py.com/AlterEgo&#x27;), (&lt;lazyT &#x27;Videos&#x27;&gt;, False, &#x27;http://www.web2py.com/examples/default/videos/&#x27;), (&lt;lazyT &#x27;Free Applications&#x27;&gt;, False, &#x27;http://web2py.com/appliances&#x27;), (&lt;lazyT &#x27;Plugins&#x27;&gt;, False, &#x27;http://web2py.com/plugins&#x27;), (&lt;lazyT &#x27;Layouts&#x27;&gt;, False, &#x27;http://web2py.com/layouts&#x27;), (&lt;lazyT &#x27;Recipes&#x27;&gt;, False, &#x27;http://web2pyslices.com/&#x27;), (&lt;lazyT &#x27;Semantic&#x27;&gt;, False, &#x27;http://web2py.com/semantic&#x27;)]</div></td></tr></table></div></td></tr><tr><td><div><table><tr><td><div>Documentation</div></td></tr><tr><td><div>False</div></td></tr><tr><td><div>http://www.web2py.com/book</div></td></tr><tr><td><div>[(&lt;lazyT &#x27;Preface&#x27;&gt;, False, &#x27;http://www.web2py.com/book/default/chapter/00&#x27;), (&lt;lazyT &#x27;Introduction&#x27;&gt;, False, &#x27;http://www.web2py.com/book/default/chapter/01&#x27;), (&lt;lazyT &#x27;Python&#x27;&gt;, False, &#x27;http://www.web2py.com/book/default/chapter/02&#x27;), (&lt;lazyT &#x27;Overview&#x27;&gt;, False, &#x27;http://www.web2py.com/book/default/chapter/03&#x27;), (&lt;lazyT &#x27;The Core&#x27;&gt;, False, &#x27;http://www.web2py.com/book/default/chapter/04&#x27;), (&lt;lazyT &#x27;The Views&#x27;&gt;, False, &#x27;http://www.web2py.com/book/default/chapter/05&#x27;), (&lt;lazyT &#x27;Database&#x27;&gt;, False, &#x27;http://www.web2py.com/book/default/chapter/06&#x27;), (&lt;lazyT &#x27;Forms and Validators&#x27;&gt;, False, &#x27;http://www.web2py.com/book/default/chapter/07&#x27;), (&lt;lazyT &#x27;Email and SMS&#x27;&gt;, False, &#x27;http://www.web2py.com/book/default/chapter/08&#x27;), (&lt;lazyT &#x27;Access Control&#x27;&gt;, False, &#x27;http://www.web2py.com/book/default/chapter/09&#x27;), (&lt;lazyT &#x27;Services&#x27;&gt;, False, &#x27;http://www.web2py.com/book/default/chapter/10&#x27;), (&lt;lazyT &#x27;Ajax Recipes&#x27;&gt;, False, &#x27;http://www.web2py.com/book/default/chapter/11&#x27;), (&lt;lazyT &#x27;Components and Plugins&#x27;&gt;, False, &#x27;http://www.web2py.com/book/default/chapter/12&#x27;), (&lt;lazyT &#x27;Deployment Recipes&#x27;&gt;, False, &#x27;http://www.web2py.com/book/default/chapter/13&#x27;), (&lt;lazyT &#x27;Other Recipes&#x27;&gt;, False, &#x27;http://www.web2py.com/book/default/chapter/14&#x27;), (&lt;lazyT &#x27;Buy this book&#x27;&gt;, False, &#x27;http://stores.lulu.com/web2py&#x27;)]</div></td></tr></table></div></td></tr><tr><td><div><table><tr><td><div>Community</div></td></tr><tr><td><div>False</div></td></tr><tr><td><div>None</div></td></tr><tr><td><div>[(&lt;lazyT &#x27;Groups&#x27;&gt;, False, &#x27;http://www.web2py.com/examples/default/usergroups&#x27;), (&lt;lazyT &#x27;Twitter&#x27;&gt;, False, &#x27;http://twitter.com/web2py&#x27;), (&lt;lazyT &#x27;Live Chat&#x27;&gt;, False, &#x27;http://webchat.freenode.net/?channels=web2py&#x27;)]</div></td></tr></table></div></td></tr><tr><td><div><table><tr><td><div>Plugins</div></td></tr><tr><td><div>False</div></td></tr><tr><td><div>None</div></td></tr><tr><td><div>[(&#x27;plugin_wiki&#x27;, False, &#x27;http://web2py.com/examples/default/download&#x27;), (&lt;lazyT &#x27;Other Plugins&#x27;&gt;, False, &#x27;http://web2py.com/plugins&#x27;), (&lt;lazyT &#x27;Layout Plugins&#x27;&gt;, False, &#x27;http://web2py.com/layouts&#x27;)]</div></td></tr></table></div></td></tr></table></div></td></tr></table></div></td></tr></table></div></td></tr><tr><td style="font-weight:bold;vertical-align:top">meta</td><td valign="top">:</td><td><div><table><tr><td style="font-weight:bold;vertical-align:top">author</td><td valign="top">:</td><td><div>Your Name &lt;you@example.com&gt;</div></td></tr><tr><td style="font-weight:bold;vertical-align:top">description</td><td valign="top">:</td><td><div>a cool new app</div></td></tr><tr><td style="font-weight:bold;vertical-align:top">generator</td><td valign="top">:</td><td><div>Web2py Web Framework</div></td></tr><tr><td style="font-weight:bold;vertical-align:top">keywords</td><td valign="top">:</td><td><div>web2py, python, framework</div></td></tr></table></div></td></tr><tr><td style="font-weight:bold;vertical-align:top">models_to_run</td><td valign="top">:</td><td><div><table><tr><td><div>^\\w+\\.py$</div></td></tr><tr><td><div>^default/\\w+\\.py$</div></td></tr><tr><td><div>^default/display_form/\\w+\\.py$</div></td></tr></table></div></td></tr><tr><td style="font-weight:bold;vertical-align:top">postprocessing</td><td valign="top">:</td><td><div><table></table></div></td></tr><tr><td style="font-weight:bold;vertical-align:top">session_cookie_expires</td><td valign="top">:</td><td><div>None</div></td></tr><tr><td style="font-weight:bold;vertical-align:top">session_data_name</td><td valign="top">:</td><td><div>session_data_todo</div></td></tr><tr><td style="font-weight:bold;vertical-align:top">session_file</td><td valign="top">:</td><td><div>&lt;open file &#x27;/home/monika/Desktop/web2py/applications/todo/sessions/127.0.0.1-33ad01bd-2567-400b-a758-a676e79347ee&#x27;, mode &#x27;rb+&#x27; at 0x7f8dac314c00&gt;</div></td></tr><tr><td style="font-weight:bold;vertical-align:top">session_filename</td><td valign="top">:</td><td><div>/home/monika/Desktop/web2py/applications/todo/sessions/127.0.0.1-33ad01bd-2567-400b-a758-a676e79347ee</div></td></tr><tr><td style="font-weight:bold;vertical-align:top">session_id</td><td valign="top">:</td><td><div>127.0.0.1-33ad01bd-2567-400b-a758-a676e79347ee</div></td></tr><tr><td style="font-weight:bold;vertical-align:top">session_id_name</td><td valign="top">:</td><td><div>session_id_todo</div></td></tr><tr><td style="font-weight:bold;vertical-align:top">session_locked</td><td valign="top">:</td><td><div>True</div></td></tr><tr><td style="font-weight:bold;vertical-align:top">session_new</td><td valign="top">:</td><td><div>False</div></td></tr><tr><td style="font-weight:bold;vertical-align:top">session_storage_type</td><td valign="top">:</td><td><div>file</div></td></tr><tr><td style="font-weight:bold;vertical-align:top">status</td><td valign="top">:</td><td><div>200</div></td></tr><tr><td style="font-weight:bold;vertical-align:top">subtitle</td><td valign="top">:</td><td><div>customize me!</div></td></tr><tr><td style="font-weight:bold;vertical-align:top">title</td><td valign="top">:</td><td><div>Todo</div></td></tr><tr><td style="font-weight:bold;vertical-align:top">view</td><td valign="top">:</td><td><div>default/display_form.html</div></td></tr></table></div>'
tRp422
sS'locals'
p423
(dp424
S'err'
p425
S"error(111, 'Connection refused')"
p426
sS'h'
S'<httplib.HTTPConnection instance>'
p427
sS'self'
p428
S'<urllib2.HTTPHandler instance>'
p429
sS'req'
p430
S'<selenium.webdriver.remote.remote_connection.Request instance>'
p431
sS'headers'
p432
S"{'Accept': 'application/json', 'Connection': 'close', 'Content-Length': '112', 'Content-Type': 'application/json;charset=UTF-8', 'Host': u'127.0.0.1:34478', 'User-Agent': 'Python-urllib/2.7'}"
p433
sS'host'
p434
S"u'127.0.0.1:34478'"
p435
sS'http_class'
p436
S'<class httplib.HTTPConnection>'
p437
sssS'traceback'
p438
S'Traceback (most recent call last):\n  File "/home/monika/Desktop/web2py/gluon/restricted.py", line 212, in restricted\n    exec ccode in environment\n  File "/home/monika/Desktop/web2py/applications/todo/controllers/default.py", line 126, in <module>\n  File "/home/monika/Desktop/web2py/gluon/globals.py", line 194, in <lambda>\n    self._caller = lambda f: f()\n  File "/home/monika/Desktop/web2py/applications/todo/controllers/default.py", line 119, in display_form\n    test_script(test_case_no)\n  File "/home/monika/Desktop/web2py/applications/todo/models/test.py", line 47, in test_script\n    isSubmit(driver, xml_parent,xml_child,xml_sub_child)\n  File "/home/monika/Desktop/web2py/applications/todo/models/test.py", line 172, in isSubmit\n    field=driver.find_element_by_xpath(xpath)\n  File "/usr/local/lib/python2.7/dist-packages/selenium-2.33.0-py2.7.egg/selenium/webdriver/remote/webdriver.py", line 222, in find_element_by_xpath\n    return self.find_element(by=By.XPATH, value=xpath)\n  File "/usr/local/lib/python2.7/dist-packages/selenium-2.33.0-py2.7.egg/selenium/webdriver/remote/webdriver.py", line 680, in find_element\n    {\'using\': by, \'value\': value})[\'value\']\n  File "/usr/local/lib/python2.7/dist-packages/selenium-2.33.0-py2.7.egg/selenium/webdriver/remote/webdriver.py", line 163, in execute\n    response = self.command_executor.execute(driver_command, params)\n  File "/usr/local/lib/python2.7/dist-packages/selenium-2.33.0-py2.7.egg/selenium/webdriver/remote/remote_connection.py", line 349, in execute\n    return self._request(url, method=command_info[0], data=data)\n  File "/usr/local/lib/python2.7/dist-packages/selenium-2.33.0-py2.7.egg/selenium/webdriver/remote/remote_connection.py", line 396, in _request\n    response = opener.open(request)\n  File "/usr/lib/python2.7/urllib2.py", line 400, in open\n    response = self._open(req, data)\n  File "/usr/lib/python2.7/urllib2.py", line 418, in _open\n    \'_open\', req)\n  File "/usr/lib/python2.7/urllib2.py", line 378, in _call_chain\n    result = func(*args)\n  File "/usr/lib/python2.7/urllib2.py", line 1207, in http_open\n    return self.do_open(httplib.HTTPConnection, req)\n  File "/usr/lib/python2.7/urllib2.py", line 1177, in do_open\n    raise URLError(err)\nURLError: <urlopen error [Errno 111] Connection refused>\n'
p439
s.