(dp1
S'output'
p2
S"<class 'selenium.common.exceptions.NoSuchWindowException'> Message: u'Window not found. The browser window may have been closed.' ; Stacktrace: \n    at nsCommandProcessor.prototype.execute (file:///tmp/tmpMK8xPW/extensions/fxdriver@googlecode.com/components/command_processor.js:10526)\n    at Dispatcher.executeAs/< (file:///tmp/tmpMK8xPW/extensions/fxdriver@googlecode.com/components/driver_component.js:7510)\n    at Resource.prototype.handle (file:///tmp/tmpMK8xPW/extensions/fxdriver@googlecode.com/components/driver_component.js:7668)\n    at Dispatcher.prototype.dispatch (file:///tmp/tmpMK8xPW/extensions/fxdriver@googlecode.com/components/driver_component.js:7615)\n    at WebDriverServer/<.handle (file:///tmp/tmpMK8xPW/extensions/fxdriver@googlecode.com/components/driver_component.js:10336)\n    at <anonymous> (file:///tmp/tmpMK8xPW/extensions/fxdriver@googlecode.com/components/httpd.js:1935)\n    at ServerHandler.prototype.handleResponse (file:///tmp/tmpMK8xPW/extensions/fxdriver@googlecode.com/components/httpd.js:2261)\n    at Connection.prototype.process (file:///tmp/tmpMK8xPW/extensions/fxdriver@googlecode.com/components/httpd.js:1168)\n    at RequestReader.prototype._handleResponse (file:///tmp/tmpMK8xPW/extensions/fxdriver@googlecode.com/components/httpd.js:1616)\n    at RequestReader.prototype._processBody (file:///tmp/tmpMK8xPW/extensions/fxdriver@googlecode.com/components/httpd.js:1464)\n    at RequestReader.prototype.onInputStreamReady (file:///tmp/tmpMK8xPW/extensions/fxdriver@googlecode.com/components/httpd.js:1333) "
p3
sS'layer'
p4
S'/home/monika/Desktop/web2py/applications/testapp/controllers/default.py'
p5
sS'code'
p6
S'54# -*- coding: utf-8 -*-\n# this file is released under public domain and you can use without limitations\n\n#########################################################################\n## This is a sample controller\n## - index is the default action of any application\n## - user is required for authentication and authorization\n## - download is for downloading files uploaded in the db (does streaming)\n## - call exposes all registered services (none by default)\n#########################################################################\ndef user():\n    """\n    exposes:\n    http://..../[app]/default/user/login\n    http://..../[app]/default/user/logout\n    http://..../[app]/default/user/register\n    http://..../[app]/default/user/profile\n    http://..../[app]/default/user/retrieve_password\n    http://..../[app]/default/user/change_password\n    http://..../[app]/default/user/manage_users (requires membership in \n    use @auth.requires_login()\n        @auth.requires_membership(\'group name\')\n        @auth.requires_permission(\'read\',\'table name\',record_id)\n    to decorate functions that need access control\n    """\n    return dict(form=auth())\n\n#@cache.action()\ndef download():\n    """\n    allows downloading of uploaded files\n    http://..../[app]/default/download/[filename]\n    """\n    return response.download(request, db)\n\n\ndef call():\n    """\n    exposes services. for example:\n    http://..../[app]/default/call/jsonrpc\n    decorate with @services.jsonrpc the functions to expose\n    supports xml, json, xmlrpc, jsonrpc, amfrpc, rss, csv\n    """\n    return service()\n\n\n@auth.requires_signature()\ndef data():\n    """\n    http://..../[app]/default/data/tables\n    http://..../[app]/default/data/create/[table]\n    http://..../[app]/default/data/read/[table]/[id]\n    http://..../[app]/default/data/update/[table]/[id]\n    http://..../[app]/default/data/delete/[table]/[id]\n    http://..../[app]/default/data/select/[table]\n    http://..../[app]/default/data/search/[table]\n    but URLs must be signed, i.e. linked with\n      A(\'table\',_href=URL(\'data/tables\',user_signature=True))\n    or with the signed load operator\n      LOAD(\'default\',\'data.load\',args=\'tables\',ajax=True,user_signature=True)\n    """\n    return dict(form=crud())\n    \n    \n    \ndef unit_testing():\n    import commands\n    form = FORM(  TABLE\n         ( \n            TR(INPUT(_name=\'testcase1\', _type=\'checkbox\', _value="1"),\'Login\'),\n            TR(INPUT(_name=\'testcase2\', _type=\'checkbox\', _value="2"),\'Request VM\'),\n            TR(INPUT(_name=\'testcase3\', _type=\'checkbox\', _value="3"),\'My VMs\'),\n            TR(INPUT(_name=\'testcase4\', _type=\'checkbox\', _value="4"),\'My Pending Tasks\'),\n            TR(INPUT(_name=\'testcase5\', _type=\'checkbox\', _value="5"),\'My Completed Tasks\'),\n            TR(INPUT(_name=\'testcase6\', _type=\'checkbox\', _value="6"),\'My Failed Taskss\'),\n            TR(INPUT(_name=\'testcase7\', _type=\'checkbox\', _value="7"),\'Pending Faculty-Level VM Approvals(Install VM)\'),\n            TR(INPUT(_name=\'testcase46\', _type=\'checkbox\', _value="46"),\'Pending Faculty-Level VM Approvals(Clone VM)\'),\n            TR(INPUT(_name=\'testcase49\', _type=\'checkbox\', _value="49"),\'Pending Faculty-Level VM Approvals(Attach Disk)\'),\n            TR(INPUT(_name=\'testcase50\', _type=\'checkbox\', _value="50"),\'Pending Faculty-Level VM Approvals(Edit Configuration)\'),\n            TR(INPUT(_name=\'testcase8\', _type=\'checkbox\', _value="8"),\'Pending Org-Level VM Approvals(Install VM)\'),\n            TR(INPUT(_name=\'testcase51\', _type=\'checkbox\', _value="51"),\'Pending Org-Level VM Approvals(Clone VM)\'),\n            TR(INPUT(_name=\'testcase52\', _type=\'checkbox\', _value="52"),\'Pending Org-Level VM Approvals(Attach Disk)\'),\n            TR(INPUT(_name=\'testcase53\', _type=\'checkbox\', _value="53"),\'Pending Org-Level VM Approvals(Edit Configuration)\'),\n           TR(INPUT(_name=\'testcase9\', _type=\'checkbox\', _value="9"),\'List All Org-Level VMs\',),\n           TR(INPUT(_name=\'testcase10\', _type=\'checkbox\', _value="10"),\'All VMs\'),\n           TR(INPUT(_name=\'testcase19\', _type=\'checkbox\', _value="19"),\'Pending VM Requests(Install VM)\'),\n           TR(INPUT(_name=\'testcase54\', _type=\'checkbox\', _value="54"),\'Pending VM Requests(Clone VM)\'),\n           TR(INPUT(_name=\'testcase55\', _type=\'checkbox\', _value="55"),\'Pending VM Requests(Attach Disk)\'),\n           TR(INPUT(_name=\'testcase56\', _type=\'checkbox\', _value="56"),\'Pending VM Requests(Edit Configuration)\'),\n           TR(INPUT(_name=\'testcase11\', _type=\'checkbox\', _value="11"),\'Host and VMs\',),\n           TR(INPUT(_name=\'testcase12\', _type=\'checkbox\', _value="12"),\'Pending Tasks\'),\n           TR(INPUT(_name=\'testcase13\', _type=\'checkbox\', _value="13"),\'Completed Tasks\'),\n           TR(INPUT(_name=\'testcase14\', _type=\'checkbox\', _value="14"),\'Failed Tasks\'),\n           TR(INPUT(_name=\'testcase15\', _type=\'checkbox\', _value="15"),\'Configure System: Add Host\'),\n           TR(INPUT(_name=\'testcase16\', _type=\'checkbox\', _value="16"),\'Configure System: Add Template\'),\n           TR(INPUT(_name=\'testcase17\', _type=\'checkbox\', _value="17"),\'Configure System: Add Datastore\'),\n           TR(INPUT(_name=\'testcase59\', _type=\'checkbox\', _value="59"),\'Configure System:Add Security Domain\'),\n           TR(INPUT(_name=\'testcase18\', _type=\'checkbox\', _value="18"),\'Take VM snapshot    (Running )\'),\n           TR(INPUT(_name=\'testcase20\', _type=\'checkbox\', _value="20"),\'Pause VM    (Running )\'),\n           \n           TR(INPUT(_name=\'testcase21\', _type=\'checkbox\', _value="21"),\'Add User to VM   (Running )\'),\n           \n           TR(INPUT(_name=\'testcase22\', _type=\'checkbox\', _value="22"),\'Delete VM    (Running)\'),\n           TR(INPUT(_name=\'testcase23\', _type=\'checkbox\', _value="23"),\'Gracefully shut down VM    (Running )\'),\n           TR(INPUT(_name=\'testcase24\', _type=\'checkbox\', _value="24"),\'Forcefully power off VM   (Running )\'),\n            TR(INPUT(_name=\'testcase25\', _type=\'checkbox\', _value="25"),\'Attach Extra Disk to VM   (Running )\'),\n          TR(INPUT(_name=\'testcase57\', _type=\'checkbox\', _value="57"),\'Migrate VM(Runnig)\'),\n           TR(INPUT(_name=\'testcase26\', _type=\'checkbox\', _value="26"),\'Take VM snapshot   (Paused )\'),\n           TR(INPUT(_name=\'testcase27\', _type=\'checkbox\', _value="27"),\'Migrate VM(Paused)\'),\n           TR(INPUT(_name=\'testcase28\', _type=\'checkbox\', _value="28"),\'Unpause VM   (Paused )\'),\n           TR(INPUT(_name=\'testcase29\', _type=\'checkbox\', _value="29"),\'Add User to VM  (Paused )\'),\n           TR(INPUT(_name=\'testcase30\', _type=\'checkbox\', _value="30"),\'Delete VM   (Paused )\'),\n           TR(INPUT(_name=\'testcase31\', _type=\'checkbox\', _value="31"),\'Adjust VM Resources Utilization   (Paused )\'),\n           TR(INPUT(_name=\'testcase32\', _type=\'checkbox\', _value="32"),\'Forcefully power off VM   (Paused)\'),\n           TR(INPUT(_name=\'testcase33\', _type=\'checkbox\', _value="33"),\'Delete Addtional User   (Paused )\'), \n           TR(INPUT(_name=\'testcase47\', _type=\'checkbox\', _value="47"),\'Revert Snapshot    (Paused )\'),\n           TR(INPUT(_name=\'testcase42\', _type=\'checkbox\', _value="42"),\'Delete Snapshot    (Paused )\'),\n           TR(INPUT(_name=\'testcase34\', _type=\'checkbox\', _value="34"),\'Edit VM Config   (Running )\'),\n           TR(INPUT(_name=\'testcase35\', _type=\'checkbox\', _value="35"),\'Turn on VM   (Shutdown )\'),\n           TR(INPUT(_name=\'testcase36\', _type=\'checkbox\', _value="36"),\'Add User to VM  (Shutdown)\'),\n           TR(INPUT(_name=\'testcase37\', _type=\'checkbox\', _value="37"),\'Delete VM   (Shutdown )\'),\n           TR(INPUT(_name=\'testcase38\', _type=\'checkbox\', _value="38"),\'Attach Extra Disk  (Shutdown )\'),\n           TR(INPUT(_name=\'testcase39\', _type=\'checkbox\', _value="39"),\'Request Clone VM   (Shutdown )\'),\n            TR(INPUT(_name=\'testcase40\', _type=\'checkbox\', _value="40"),\'Edit VM Config   (Shutdown )\'),\n           TR(INPUT(_name=\'testcase41\', _type=\'checkbox\', _value="41"),\'Assign VNC   (Shutdown )\'),\n           TR(INPUT(_name=\'testcase58\', _type=\'checkbox\', _value="58"),\'Migrate VM(Shutdown)\'),\n           TR(INPUT(_name=\'testcase43\', _type=\'checkbox\', _value="43"),\'Take VM snapshot   (Shutdown )\'),\n            \n            TR(INPUT(_name=\'testcase44\', _type=\'checkbox\', _value="44"),\'Approve VM(Org-admin)\'),\n           TR(INPUT(_name=\'testcase45\', _type=\'checkbox\', _value="45"),\'Reject VM(Org-admin)\'), \n            TR(INPUT(_name=\'testcase60\', _type=\'checkbox\', _value="60"),\'Approve VM(Faculty)\'),\n           TR(INPUT(_name=\'testcase61\', _type=\'checkbox\', _value="61"),\'Reject VM(Faculty)\'), \n               TR(INPUT(_name=\'testcase62\', _type=\'checkbox\', _value="62"),\'Approve VM(Admin)\'),\n           TR(INPUT(_name=\'testcase63\', _type=\'checkbox\', _value="63"),\'Reject VM(Admin)\'), \n           TR(INPUT(_name=\'testcase48\', _type=\'checkbox\', _value="48"),\'Sanity Table\'),\n           \n           BR(),\n           TR(INPUT(_type=\'submit\',_value=\'submit\'))\n          )\n      )\n    if form.process().accepted:\n        for i in range(1,70):\n            test_case_no=request.vars[\'testcase\'+str(i)]\n            if test_case_no!=None:\n                test_script(test_case_no)\n    elif form.errors:\n        response.flash = \'form has errors\'\n    else:\n        response.flash = \'please fill the form\'\n    return dict(form=form)\n    \n\ndef index():\n    try:\n        import commands\n        form = FORM( TABLE\n                  (  TR(INPUT(_name=\'testcase1\', _type=\'radio\', _value="1"),\'Unit Testing\'),\n                     TR(INPUT(_name=\'testcase2\', _type=\'radio\', _value="2"),\'Integration Testing\'),\n                     TR(INPUT(_name=\'testcase3\', _type=\'radio\', _value="3"),\'Stress Testing\'),\n                     TR(INPUT(_name=\'testcase4\', _type=\'radio\', _value="4"),\'Network Testing\'),\n                     BR(),\n                     TR(INPUT(_type=\'submit\',_value=\'submit\'))\n                  )\n                )        \n        if form.process().accepted:\n            if request.vars[\'testcase1\']!=None:\n                redirect(URL(\'unit_testing\'))\n            if request.vars[\'testcase2\']!=None:\n                redirect(URL(\'integration_testing\')) \n            if request.vars[\'testcase3\']!=None:\n                redirect(URL(\'stress_testing\'))  \n            if request.vars[\'testcase4\']!=None:\n                redirect(URL(\'network_testing\'))        \n        elif form.errors:\n            response.flash = \'form has errors\'\n        else:\n            response.flash = \'please fill the form\'\n        return dict(form=form)\n    except Exception as e:\n        print e\n\n\ndef network_testing():\n    print "ion" \n    import commands\n    form = FORM(TABLE\n             (   \n              \n    TR(INPUT(_name=\'testcase79\', _type=\'checkbox\', _value="79"),\'Packages Install on Host \'),\n   \n     TR(INPUT(_name=\'testcase78\', _type=\'checkbox\', _value="78"),\'Packages Install on Baadal \'),\n    \n    TR(INPUT(_name=\'testcase80\', _type=\'checkbox\', _value="80"),\'VM status on Host \'),\n    BR(),\n    TR(INPUT(_type=\'submit\',_value=\'submit\'))\n            )\n            )\n    if form.process().accepted:\n        if request.vars[\'testcase78\']!=None:\n            packages_install_test(78)\n        if request.vars[\'testcase79\']!=None:\n            packages_install_host(79) \n        if request.vars[\'testcase80\']!=None:\n            check_stat_on_host()    \n    elif form.errors:\n        response.flash = \'form has errors\'\n    else:\n        response.flash = \'please fill the form\'\n    return dict(form=form)\n    \n    \ndef stress_testing(): \n\n    import commands\n    form = FORM(  TABLE\n        (   TR(INPUT(_name=\'testcase0\', _type=\'checkbox\', _value="0"),\'All\'), \n            BR(),\n            TR(INPUT(_type=\'submit\',_value=\'submit\'))\n        )\n        )\n              \n    if form.process().accepted:\n        test_case_no=request.vars[\'testcase0\']\n        if test_case_no!=None:\n            stress_test_script()\n    elif form.errors:\n        response.flash = \'form has errors\'\n    else:\n        response.flash = \'please fill the form\'\n    return dict(form=form)\n    \n   \ndef integration_testing(): \n    import commands\n    form = FORM(  TABLE\n                  (    TR(INPUT(_name=\'testcase\', _type=\'checkbox\', _value=""),\'VM Performance(Memory)\'),\n                       TR(INPUT(_name=\'testcase\', _type=\'checkbox\', _value=""),\'VM Performance(CPU)\'),\n                       TR(INPUT(_name=\'testcase\', _type=\'checkbox\', _value=""),\'VM Performance(Network)\'),\n                       TR(INPUT(_name=\'testcase\', _type=\'checkbox\', _value=""),\'VM Performance(Disk)\'),\n                        TR(INPUT(_name=\'testcase\', _type=\'checkbox\', _value=""),\'VM Performance   (Shutdown )\'),\n                    TR(INPUT(_name=\'testcase70\', _type=\'checkbox\', _value="70"),\'Org-Admin Request VM(Approved by admin)\'),\n                    TR(INPUT(_name=\'testcase71\', _type=\'checkbox\', _value="71"), \'Org-Admin Request VM(Rejected by admin)\'),\n                    TR(INPUT(_name=\'testcase72\', _type=\'checkbox\', _value="72"),\'User Request VM(Approved by Faculty,org-admin,admin)\'),\n                     TR(INPUT(_name=\'testcase73\', _type=\'checkbox\', _value="73"),\'User Request VM(Approved by Faculty and Rejected by org-admin)\'),\n                      TR(INPUT(_name=\'testcase74\', _type=\'checkbox\', _value="74"),\'User Request VM(Approved by Faculty,org-admin and Rejected by admin)\'),\n                      TR(INPUT(_name=\'testcase75\', _type=\'checkbox\', _value="76"),\'User Request VM(Rejected by Faculty )\'),\n                    TR(INPUT(_name=\'testcase76\', _type=\'checkbox\', _value="76"),\'Faculty Request VM(Rejected by org-admin)\'),\n                    TR(INPUT(_name=\'testcase77\', _type=\'checkbox\', _value="77"),\'Faculty Request VM(Approved by org-admin  and Rejected by admin)\'),\n                    TR(INPUT(_name=\'testcase78\', _type=\'checkbox\', _value="78"),\'Faculty Request VM(Approved by org-admin, admin)\'),\n                    TR(INPUT(_name=\'testcase79\', _type=\'checkbox\', _value="79"),\'Take VM snapshot    (Running )\'),\n                    TR(INPUT(_name=\'testcase80\', _type=\'checkbox\', _value="80"),\'Pause VM   (Running )\'),\n                   TR(INPUT(_name=\'testcase81\', _type=\'checkbox\', _value="81"),\'Add User to VM   (Running )\'),\n                   TR(INPUT(_name=\'testcase82\', _type=\'checkbox\', _value="82"),\'Delete VM    (Running)\'),\n                   TR(INPUT(_name=\'testcase83\', _type=\'checkbox\', _value="83"),\'Gracefully shut down VM    (Running )\'),\n                   TR(INPUT(_name=\'testcase84\', _type=\'checkbox\', _value="84"),\'Forcefully power off VM   (Running )\'),\n                    TR(INPUT(_name=\'testcase85\', _type=\'checkbox\', _value="85"),\'Attach Extra Disk to VM   (Running )\'),\n                      TR(INPUT(_name=\'testcase86\', _type=\'checkbox\', _value="86"),\'Migrate VM   (Running )\'),\n                      TR(INPUT(_name=\'testcase87\', _type=\'checkbox\', _value="87"),\'Attach Extra Disk to VM   (Running )\'),\n                      TR(INPUT(_name=\'testcase88\', _type=\'checkbox\', _value="88"),\'Take VM snapshot   (Paused )\'),\n                      TR(INPUT(_name=\'testcase89\', _type=\'checkbox\', _value="89"),\'Unpause VM   (Paused )\'),\n                      TR(INPUT(_name=\'testcase90\', _type=\'checkbox\', _value="90"),\'Add User to VM  (Paused )\'),\n                      TR(INPUT(_name=\'testcase91\', _type=\'checkbox\', _value="91"),\'Delete VM   (Paused )\'),\n                      TR(INPUT(_name=\'testcase92\', _type=\'checkbox\', _value="92"),\'Forcefully power off VM   (Paused)\'),\n                     TR(INPUT(_name=\'testcase93\', _type=\'checkbox\', _value="93"),\'Migrate VM   (Paused )\'),\n                      TR(INPUT(_name=\'testcase94\', _type=\'checkbox\', _value="94"),\'Delete Add User  (Paused )\'),\n                      TR(INPUT(_name=\'testcase95\', _type=\'checkbox\', _value="95"),\'Revert Snapshot  (Paused )\'),\n                      TR(INPUT(_name=\'testcase96\', _type=\'checkbox\', _value="96"),\'Delete snapshot   (Paused )\'),\n                      TR(INPUT(_name=\'testcase97\', _type=\'checkbox\', _value="97"),\'Turn on VM   (Shutdown )\'),\n                      TR(INPUT(_name=\'testcase98\', _type=\'checkbox\', _value="98"),\'Add User to VM  (Shutdown)\'),\n                      TR(INPUT(_name=\'testcase99\', _type=\'checkbox\', _value="99"),\'Delete VM   (Shutdown )\'),\n                      TR(INPUT(_name=\'testcase100\', _type=\'checkbox\', _value="100"),\'Attach Extra Disk  (Shutdown )\'),\n                       TR(INPUT(_name=\'testcase101\', _type=\'checkbox\', _value="101"),\'Request Clone VM   (Shutdown )\'),\n                       TR(INPUT(_name=\'testcase102\', _type=\'checkbox\', _value="102"),\'Edit VM Config   (Shutdown )\'),\n                       TR(INPUT(_name=\'testcase103\', _type=\'checkbox\', _value="103"),\'Take VM snapshot   (Shutdown )\'),\n                       TR(INPUT(_name=\'testcase104\', _type=\'checkbox\', _value="104"),\'Migrate VM   (Shutdown )\'),\n                  \n                       \n                       TR(INPUT(_name=\'testcase\', _type=\'checkbox\', _value=""),\'Configure Template\'),\n                       TR(INPUT(_name=\'testcase\', _type=\'checkbox\', _value=""),\'Configure Host\'),\n                        TR(INPUT(_name=\'testcase\', _type=\'checkbox\', _value=""),\'Configure Datastore\'),\n                      \n                      \n                      BR(),\n                      TR(INPUT(_type=\'submit\',_value=\'submit\'))\n            )\n     )\n    if form.process().accepted:\n        for i in range(67,90):\n            test_case_no=request.vars[\'testcase\'+str(i)]\n            if i<=85:\n                if test_case_no!=None:\n                    test_script(test_case_no)\n            else :\n                if test_case_no!=None:\n                    graph_test(test_case_no)\n            \n    elif form.errors:\n        response.flash = \'form has errors\'\n    else:\n        response.flash = \'please fill the form\'\n    return dict(form=form)\n\nresponse._vars=response._caller(integration_testing)\n'
p7
sS'snapshot'
p8
(dp9
sS'traceback'
p10
S'Traceback (most recent call last):\n  File "/home/monika/Desktop/web2py/gluon/restricted.py", line 212, in restricted\n    exec ccode in environment\n  File "/home/monika/Desktop/web2py/applications/testapp/controllers/default.py", line 303, in <module>\n  File "/home/monika/Desktop/web2py/gluon/globals.py", line 194, in <lambda>\n    self._caller = lambda f: f()\n  File "/home/monika/Desktop/web2py/applications/testapp/controllers/default.py", line 292, in integration_testing\n    test_script(test_case_no)\n  File "/home/monika/Desktop/web2py/applications/testapp/models/test.py", line 224, in test_script\n    vm_name2=isImage(driver,xml_child,xml_sub_child,table_path)\n  File "/home/monika/Desktop/web2py/applications/testapp/models/test.py", line 1128, in isImage\n    vm_mode(xml_child,xml_sub_child,driver)\n  File "/home/monika/Desktop/web2py/applications/testapp/models/test.py", line 738, in vm_mode\n    vm_mode_op(xml_child,xml_sub_child,driver,vm_name,vm_id)\n  File "/home/monika/Desktop/web2py/applications/testapp/models/test.py", line 760, in vm_mode_op\n    click_on_operation(driver,xml_sub_child,xml_child,vm_name,vm_id)\n  File "/home/monika/Desktop/web2py/applications/testapp/models/test.py", line 642, in click_on_operation\n    operation_on_vm(driver,xml_sub_child,xml_child,vm_name,vm_id)\n  File "/home/monika/Desktop/web2py/applications/testapp/models/test.py", line 614, in operation_on_vm\n    check_vm_task(driver,xml_sub_child,xml_child,vm_name,operation_name)\n  File "/home/monika/Desktop/web2py/applications/testapp/models/test.py", line 843, in check_vm_task\n    vm_in_complted=check_vm_in_completed_task(driver,xml_sub_child,vm_name,operation_name,task_start_time)\n  File "/home/monika/Desktop/web2py/applications/testapp/models/test.py", line 897, in check_vm_in_completed_task\n    if (vm_name in x.text) & (operation_name in x.text)  & (str(task_start_time) in x.text):\n  File "/usr/local/lib/python2.7/dist-packages/selenium/webdriver/remote/webelement.py", line 50, in text\n    return self._execute(Command.GET_ELEMENT_TEXT)[\'value\']\n  File "/usr/local/lib/python2.7/dist-packages/selenium/webdriver/remote/webelement.py", line 228, in _execute\n    return self._parent.execute(command, params)\n  File "/usr/local/lib/python2.7/dist-packages/selenium/webdriver/remote/webdriver.py", line 165, in execute\n    self.error_handler.check_response(response)\n  File "/usr/local/lib/python2.7/dist-packages/selenium/webdriver/remote/errorhandler.py", line 158, in check_response\n    raise exception_class(message, screen, stacktrace)\nNoSuchWindowException: Message: u\'Window not found. The browser window may have been closed.\' ; Stacktrace: \n    at nsCommandProcessor.prototype.execute (file:///tmp/tmpMK8xPW/extensions/fxdriver@googlecode.com/components/command_processor.js:10526)\n    at Dispatcher.executeAs/< (file:///tmp/tmpMK8xPW/extensions/fxdriver@googlecode.com/components/driver_component.js:7510)\n    at Resource.prototype.handle (file:///tmp/tmpMK8xPW/extensions/fxdriver@googlecode.com/components/driver_component.js:7668)\n    at Dispatcher.prototype.dispatch (file:///tmp/tmpMK8xPW/extensions/fxdriver@googlecode.com/components/driver_component.js:7615)\n    at WebDriverServer/<.handle (file:///tmp/tmpMK8xPW/extensions/fxdriver@googlecode.com/components/driver_component.js:10336)\n    at <anonymous> (file:///tmp/tmpMK8xPW/extensions/fxdriver@googlecode.com/components/httpd.js:1935)\n    at ServerHandler.prototype.handleResponse (file:///tmp/tmpMK8xPW/extensions/fxdriver@googlecode.com/components/httpd.js:2261)\n    at Connection.prototype.process (file:///tmp/tmpMK8xPW/extensions/fxdriver@googlecode.com/components/httpd.js:1168)\n    at RequestReader.prototype._handleResponse (file:///tmp/tmpMK8xPW/extensions/fxdriver@googlecode.com/components/httpd.js:1616)\n    at RequestReader.prototype._processBody (file:///tmp/tmpMK8xPW/extensions/fxdriver@googlecode.com/components/httpd.js:1464)\n    at RequestReader.prototype.onInputStreamReady (file:///tmp/tmpMK8xPW/extensions/fxdriver@googlecode.com/components/httpd.js:1333) \n'
p11
s.