(dp1
S'output'
p2
S'<class \'selenium.common.exceptions.NoSuchElementException\'> Message: u\'Unable to locate element: {"method":"xpath","selector":"//table[@id=\\\'vm_snaps\\\']/tbody/tr"}\' ; Stacktrace: \n    at FirefoxDriver.prototype.findElementInternal_ (file:///tmp/tmpo0ePGb/extensions/fxdriver@googlecode.com/components/driver_component.js:8444)\n    at fxdriver.Timer.prototype.setTimeout/<.notify (file:///tmp/tmpo0ePGb/extensions/fxdriver@googlecode.com/components/driver_component.js:386) '
p3
sS'layer'
p4
S'/home/monika/Desktop/web2py/applications/testapp/controllers/default.py'
p5
sS'code'
p6
S'# -*- coding: utf-8 -*-\n# this file is released under public domain and you can use without limitations\n\n#########################################################################\n## This is a sample controller\n## - index is the default action of any application\n## - user is required for authentication and authorization\n## - download is for downloading files uploaded in the db (does streaming)\n## - call exposes all registered services (none by default)\n#########################################################################\ndef user():\n    """\n    exposes:\n    http://..../[app]/default/user/login\n    http://..../[app]/default/user/logout\n    http://..../[app]/default/user/register\n    http://..../[app]/default/user/profile\n    http://..../[app]/default/user/retrieve_password\n    http://..../[app]/default/user/change_password\n    http://..../[app]/default/user/manage_users (requires membership in \n    use @auth.requires_login()\n        @auth.requires_membership(\'group name\')\n        @auth.requires_permission(\'read\',\'table name\',record_id)\n    to decorate functions that need access control\n    """\n    return dict(form=auth())\n\n#@cache.action()\ndef download():\n    """\n    allows downloading of uploaded files\n    http://..../[app]/default/download/[filename]\n    """\n    return response.download(request, db)\n\n\ndef call():\n    """\n    exposes services. for example:\n    http://..../[app]/default/call/jsonrpc\n    decorate with @services.jsonrpc the functions to expose\n    supports xml, json, xmlrpc, jsonrpc, amfrpc, rss, csv\n    """\n    return service()\n\n\n@auth.requires_signature()\ndef data():\n    """\n    http://..../[app]/default/data/tables\n    http://..../[app]/default/data/create/[table]\n    http://..../[app]/default/data/read/[table]/[id]\n    http://..../[app]/default/data/update/[table]/[id]\n    http://..../[app]/default/data/delete/[table]/[id]\n    http://..../[app]/default/data/select/[table]\n    http://..../[app]/default/data/search/[table]\n    but URLs must be signed, i.e. linked with\n      A(\'table\',_href=URL(\'data/tables\',user_signature=True))\n    or with the signed load operator\n      LOAD(\'default\',\'data.load\',args=\'tables\',ajax=True,user_signature=True)\n    """\n    return dict(form=crud())\n    \n    \n    \ndef unit_testing():\n    import commands\n    form = FORM(  TABLE\n         (  TR(INPUT(_name=\'testcase65\', _type=\'checkbox\', _value="65"),\'All\'),\n            TR(INPUT(_name=\'testcase1\', _type=\'checkbox\', _value="1"),\'Login\'),\n            TR(INPUT(_name=\'testcase2\', _type=\'checkbox\', _value="2"),\'Request VM\'),\n            TR(INPUT(_name=\'testcase3\', _type=\'checkbox\', _value="3"),\'My VMs\'),\n            TR(INPUT(_name=\'testcase4\', _type=\'checkbox\', _value="4"),\'My Pending Tasks\'),\n            TR(INPUT(_name=\'testcase5\', _type=\'checkbox\', _value="5"),\'My Completed Tasks\'),\n            TR(INPUT(_name=\'testcase6\', _type=\'checkbox\', _value="6"),\'My Failed Taskss\'),\n            TR(INPUT(_name=\'testcase7\', _type=\'checkbox\', _value="7"),\'Pending Faculty-Level VM Approvals(Install VM)\'),\n            TR(INPUT(_name=\'testcase46\', _type=\'checkbox\', _value="46"),\'Pending Faculty-Level VM Approvals(Clone VM)\'),\n            TR(INPUT(_name=\'testcase49\', _type=\'checkbox\', _value="49"),\'Pending Faculty-Level VM Approvals(Attach Disk)\'),\n            TR(INPUT(_name=\'testcase50\', _type=\'checkbox\', _value="50"),\'Pending Faculty-Level VM Approvals(Edit Configuration)\'),\n            TR(INPUT(_name=\'testcase8\', _type=\'checkbox\', _value="8"),\'Pending Org-Level VM Approvals(Install VM)\'),\n            TR(INPUT(_name=\'testcase51\', _type=\'checkbox\', _value="51"),\'Pending Org-Level VM Approvals(Clone VM)\'),\n            TR(INPUT(_name=\'testcase52\', _type=\'checkbox\', _value="52"),\'Pending Org-Level VM Approvals(Attach Disk)\'),\n            TR(INPUT(_name=\'testcase53\', _type=\'checkbox\', _value="53"),\'Pending Org-Level VM Approvals(Edit Configuration)\'),\n           TR(INPUT(_name=\'testcase9\', _type=\'checkbox\', _value="9"),\'List All Org-Level VMs\',),\n           TR(INPUT(_name=\'testcase10\', _type=\'checkbox\', _value="10"),\'All VMs\'),\n           TR(INPUT(_name=\'testcase19\', _type=\'checkbox\', _value="19"),\'Pending VM Requests(Install VM)\'),\n           TR(INPUT(_name=\'testcase54\', _type=\'checkbox\', _value="54"),\'Pending VM Requests(Clone VM)\'),\n           TR(INPUT(_name=\'testcase55\', _type=\'checkbox\', _value="55"),\'Pending VM Requests(Attach Disk)\'),\n           TR(INPUT(_name=\'testcase56\', _type=\'checkbox\', _value="56"),\'Pending VM Requests(Edit Configuration)\'),\n           TR(INPUT(_name=\'testcase11\', _type=\'checkbox\', _value="11"),\'Host and VMs\',),\n           TR(INPUT(_name=\'testcase12\', _type=\'checkbox\', _value="12"),\'Pending Tasks\'),\n           TR(INPUT(_name=\'testcase13\', _type=\'checkbox\', _value="13"),\'Completed Tasks\'),\n           TR(INPUT(_name=\'testcase14\', _type=\'checkbox\', _value="14"),\'Failed Tasks\'),\n           TR(INPUT(_name=\'testcase15\', _type=\'checkbox\', _value="15"),\'Configure System: Add Host\'),\n           TR(INPUT(_name=\'testcase16\', _type=\'checkbox\', _value="16"),\'Configure System: Add Template\'),\n           TR(INPUT(_name=\'testcase17\', _type=\'checkbox\', _value="17"),\'Configure System: Add Datastore\'),\n           TR(INPUT(_name=\'testcase59\', _type=\'checkbox\', _value="59"),\'Configure System:Add Security Domain\'),\n           TR(INPUT(_name=\'testcase18\', _type=\'checkbox\', _value="18"),\'Take VM snapshot    (Running )\'),\n           TR(INPUT(_name=\'testcase20\', _type=\'checkbox\', _value="20"),\'Pause VM    (Running )\'),\n           \n           TR(INPUT(_name=\'testcase21\', _type=\'checkbox\', _value="21"),\'Add User to VM   (Running )\'),\n           \n           TR(INPUT(_name=\'testcase22\', _type=\'checkbox\', _value="22"),\'Delete VM    (Running)\'),\n           TR(INPUT(_name=\'testcase23\', _type=\'checkbox\', _value="23"),\'Gracefully shut down VM    (Running )\'),\n           TR(INPUT(_name=\'testcase24\', _type=\'checkbox\', _value="24"),\'Forcefully power off VM   (Running )\'),\n            TR(INPUT(_name=\'testcase25\', _type=\'checkbox\', _value="25"),\'Attach Extra Disk to VM   (Running )\'),\n          TR(INPUT(_name=\'testcase57\', _type=\'checkbox\', _value="57"),\'Migrate VM(Runnig)\'),\n           TR(INPUT(_name=\'testcase26\', _type=\'checkbox\', _value="26"),\'Take VM snapshot   (Paused )\'),\n           TR(INPUT(_name=\'testcase27\', _type=\'checkbox\', _value="27"),\'Migrate VM(Paused)\'),\n           TR(INPUT(_name=\'testcase28\', _type=\'checkbox\', _value="28"),\'Unpause VM   (Paused )\'),\n           TR(INPUT(_name=\'testcase29\', _type=\'checkbox\', _value="29"),\'Add User to VM  (Paused )\'),\n           TR(INPUT(_name=\'testcase30\', _type=\'checkbox\', _value="30"),\'Delete VM   (Paused )\'),\n           TR(INPUT(_name=\'testcase31\', _type=\'checkbox\', _value="31"),\'Adjust VM Resources Utilization   (Paused )\'),\n           TR(INPUT(_name=\'testcase32\', _type=\'checkbox\', _value="32"),\'Forcefully power off VM   (Paused)\'),\n           TR(INPUT(_name=\'testcase33\', _type=\'checkbox\', _value="33"),\'Delete Addtional User   (Paused )\'), \n           TR(INPUT(_name=\'testcase47\', _type=\'checkbox\', _value="47"),\'Revert Snapshot    (Paused )\'),\n           TR(INPUT(_name=\'testcase42\', _type=\'checkbox\', _value="42"),\'Delete Snapshot    (Paused )\'),\n           TR(INPUT(_name=\'testcase34\', _type=\'checkbox\', _value="34"),\'Edit VM Config   (Running )\'),\n           TR(INPUT(_name=\'testcase35\', _type=\'checkbox\', _value="35"),\'Turn on VM   (Shutdown )\'),\n           TR(INPUT(_name=\'testcase36\', _type=\'checkbox\', _value="36"),\'Add User to VM  (Shutdown)\'),\n           TR(INPUT(_name=\'testcase37\', _type=\'checkbox\', _value="37"),\'Delete VM   (Shutdown )\'),\n           TR(INPUT(_name=\'testcase38\', _type=\'checkbox\', _value="38"),\'Attach Extra Disk  (Shutdown )\'),\n           TR(INPUT(_name=\'testcase39\', _type=\'checkbox\', _value="39"),\'Request Clone VM   (Shutdown )\'),\n            TR(INPUT(_name=\'testcase40\', _type=\'checkbox\', _value="40"),\'Edit VM Config   (Shutdown )\'),\n           TR(INPUT(_name=\'testcase41\', _type=\'checkbox\', _value="41"),\'Assign VNC   (Shutdown )\'),\n           TR(INPUT(_name=\'testcase58\', _type=\'checkbox\', _value="58"),\'Migrate VM(Shutdown)\'),\n           TR(INPUT(_name=\'testcase43\', _type=\'checkbox\', _value="43"),\'Take VM snapshot   (Shutdown )\'),\n            \n            TR(INPUT(_name=\'testcase44\', _type=\'checkbox\', _value="44"),\'Approve VM(Org-admin)\'),\n           TR(INPUT(_name=\'testcase45\', _type=\'checkbox\', _value="45"),\'Reject VM(Org-admin)\'), \n            TR(INPUT(_name=\'testcase60\', _type=\'checkbox\', _value="60"),\'Approve VM(Faculty)\'),\n           TR(INPUT(_name=\'testcase61\', _type=\'checkbox\', _value="61"),\'Reject VM(Faculty)\'), \n               TR(INPUT(_name=\'testcase62\', _type=\'checkbox\', _value="62"),\'Approve VM(Admin)\'),\n           TR(INPUT(_name=\'testcase63\', _type=\'checkbox\', _value="63"),\'Reject VM(Admin)\'), \n           TR(INPUT(_name=\'testcase48\', _type=\'checkbox\', _value="48"),\'Sanity Table\'),\n           \n           BR(),\n           TR(INPUT(_type=\'submit\',_value=\'submit\'))\n          )\n      )\n    if form.process().accepted:\n        for i in range(1,70):\n            test_case_no=request.vars[\'testcase\'+str(i)]\n            if test_case_no!=None:\n                \n                print test_case_no\n                if test_case_no=="65":\n                    for j in range(1,65):\n                        test_case_no=str(j)\n                        test_script(test_case_no)\n                else:\n                    test_script(test_case_no)\n        \n    elif form.errors:\n        response.flash = \'form has errors\'\n    else:\n        response.flash = \'please fill the form\'\n    return dict(form=form)\n    \n\ndef index():\n    try:\n        import commands\n        form = FORM( TABLE\n                  (  TR(INPUT(_name=\'testcase1\', _type=\'radio\', _value="1"),\'Unit Testing\'),\n                     TR(INPUT(_name=\'testcase2\', _type=\'radio\', _value="2"),\'Integration Testing\'),\n                     TR(INPUT(_name=\'testcase3\', _type=\'radio\', _value="3"),\'Stress Testing\'),\n                     TR(INPUT(_name=\'testcase4\', _type=\'radio\', _value="4"),\'Network Testing\'),\n                     BR(),\n                     TR(INPUT(_type=\'submit\',_value=\'submit\'))\n                  )\n                )        \n        if form.process().accepted:\n            if request.vars[\'testcase1\']!=None:\n                redirect(URL(\'unit_testing\'))\n            if request.vars[\'testcase2\']!=None:\n                redirect(URL(\'integration_testing\')) \n            if request.vars[\'testcase3\']!=None:\n                redirect(URL(\'stress_testing\'))  \n            if request.vars[\'testcase4\']!=None:\n                redirect(URL(\'network_testing\'))        \n        elif form.errors:\n            response.flash = \'form has errors\'\n        else:\n            response.flash = \'please fill the form\'\n        return dict(form=form)\n    except Exception as e:\n        print e\n\n\ndef network_testing():\n   \n    import commands\n    form = FORM(TABLE\n             (   \n              \n    TR(INPUT(_name=\'testcase79\', _type=\'checkbox\', _value="134"),\'Packages Install on Host \'),\n   \n     TR(INPUT(_name=\'testcase78\', _type=\'checkbox\', _value="135"),\'Packages Install on Baadal \'),\n    \n    TR(INPUT(_name=\'testcase80\', _type=\'checkbox\', _value="80"),\'VM status on Host \'),\n    BR(),\n    TR(INPUT(_type=\'submit\',_value=\'submit\'))\n            )\n            )\n    if form.process().accepted:\n        if request.vars[\'testcase78\']!=None:\n            packages_install_test(134)\n        if request.vars[\'testcase79\']!=None:\n            packages_install_host(135) \n        if request.vars[\'testcase80\']!=None:\n            check_stat_on_host()    \n    elif form.errors:\n        response.flash = \'form has errors\'\n    else:\n        response.flash = \'please fill the form\'\n    return dict(form=form)\n    \n    \ndef stress_testing(): \n\n    import commands\n    form = FORM(  TABLE\n        (   TR(INPUT(_name=\'testcase0\', _type=\'checkbox\', _value="0"),\'All\'), \n            BR(),\n            TR(INPUT(_type=\'submit\',_value=\'submit\'))\n        )\n        )\n              \n    if form.process().accepted:\n        test_case_no=request.vars[\'testcase0\']\n        if test_case_no!=None:\n            stress_test_script()\n    elif form.errors:\n        response.flash = \'form has errors\'\n    else:\n        response.flash = \'please fill the form\'\n    return dict(form=form)\n    \n   \ndef integration_testing(): \n    import commands\n    form = FORM(  TABLE\n                  (    TR(INPUT(_name=\'testcase130\', _type=\'checkbox\', _value="130"),\'VM Performance(Memory)\'),\n                       TR(INPUT(_name=\'testcase131\', _type=\'checkbox\', _value="131"),\'VM Performance(CPU)\'),\n                       TR(INPUT(_name=\'testcase132\', _type=\'checkbox\', _value="132"),\'VM Performance(Network)\'),\n                       TR(INPUT(_name=\'testcase133\', _type=\'checkbox\', _value="133"),\'VM Performance(Disk)\'),\n                        TR(INPUT(_name=\'testcase126\', _type=\'checkbox\', _value="126"),\'VM Performance   (Shutdown )\'),\n                    \n                    TR(INPUT(_name=\'testcase72\', _type=\'checkbox\', _value="72"),\'User Request VM(Approved by Faculty,org-admin,admin)\'),\n                     TR(INPUT(_name=\'testcase73\', _type=\'checkbox\', _value="73"),\'User Request VM(Approved by Faculty and Rejected by org-admin)\'),\n                      TR(INPUT(_name=\'testcase74\', _type=\'checkbox\', _value="74"),\'User Request VM(Approved by Faculty,org-admin and Rejected by admin)\'),\n                      TR(INPUT(_name=\'testcase75\', _type=\'checkbox\', _value="76"),\'User Request VM(Rejected by Faculty )\'),\n                    TR(INPUT(_name=\'testcase76\', _type=\'checkbox\', _value="76"),\'Faculty Request VM(Rejected by org-admin)\'),\n                    TR(INPUT(_name=\'testcase77\', _type=\'checkbox\', _value="77"),\'Faculty Request VM(Approved by org-admin  and Rejected by admin)\'),\n                    TR(INPUT(_name=\'testcase78\', _type=\'checkbox\', _value="78"),\'Faculty Request VM(Approved by org-admin, admin)\'),\n                    \n                    \n                   \n                    \n                    \n                  \n                    \n                    \n                    TR(INPUT(_name=\'testcase79\', _type=\'checkbox\', _value="79"),\'Take VM snapshot    (Running )\'),\n                    TR(INPUT(_name=\'testcase80\', _type=\'checkbox\', _value="80"),\'Pause VM   (Running )\'),\n                   TR(INPUT(_name=\'testcase81\', _type=\'checkbox\', _value="81"),\'Add User to VM   (Running )\'),\n                   TR(INPUT(_name=\'testcase82\', _type=\'checkbox\', _value="82"),\'Delete VM    (Running)\'),\n                   TR(INPUT(_name=\'testcase83\', _type=\'checkbox\', _value="83"),\'Gracefully shut down VM    (Running )\'),\n                   TR(INPUT(_name=\'testcase84\', _type=\'checkbox\', _value="84"),\'Forcefully power off VM   (Running )\'),\n                    TR(INPUT(_name=\'testcase86\', _type=\'checkbox\', _value="86") ,\'Migrate VM   (Running )\'),\n                      TR(INPUT(_name=\'testcase88\', _type=\'checkbox\', _value="88"),\'Take VM snapshot   (Paused )\'),\n                      TR(INPUT(_name=\'testcase89\', _type=\'checkbox\', _value="89"),\'Unpause VM   (Paused )\'),\n                      TR(INPUT(_name=\'testcase90\', _type=\'checkbox\', _value="90"),\'Add User to VM  (Paused )\'),\n                      TR(INPUT(_name=\'testcase91\', _type=\'checkbox\', _value="91"),\'Delete VM   (Paused )\'),\n                      TR(INPUT(_name=\'testcase92\', _type=\'checkbox\', _value="92"),\'Forcefully power off VM   (Paused)\'),\n                     TR(INPUT(_name=\'testcase93\', _type=\'checkbox\', _value="93"),\'Migrate VM   (Paused )\'),\n                      TR(INPUT(_name=\'testcase94\', _type=\'checkbox\', _value="94"),\'Delete Add User  (Paused )\'),\n                      TR(INPUT(_name=\'testcase95\', _type=\'checkbox\', _value="95"),\'Revert Snapshot  (Paused )\'),\n                      TR(INPUT(_name=\'testcase96\', _type=\'checkbox\', _value="96"),\'Delete snapshot   (Paused )\'),\n                      TR(INPUT(_name=\'testcase97\', _type=\'checkbox\', _value="97"),\'Turn on VM   (Shutdown )\'),\n                      TR(INPUT(_name=\'testcase98\', _type=\'checkbox\', _value="98"),\'Add User to VM  (Shutdown)\'),\n                      TR(INPUT(_name=\'testcase99\', _type=\'checkbox\', _value="99"),\'Delete VM   (Shutdown )\'),\n\n                       TR(INPUT(_name=\'testcase103\', _type=\'checkbox\', _value="103"),\'Take VM snapshot   (Shutdown )\'),\n                       TR(INPUT(_name=\'testcase104\', _type=\'checkbox\', _value="104"),\'Migrate VM   (Shutdown )\'),\n                        TR(INPUT(_name=\'testcase107\', _type=\'checkbox\', _value="107"),\'User Request Attach Disk(Approved by Faculty,org-admin,admin)\'),\n                        TR(INPUT(_name=\'testcase70\', _type=\'checkbox\', _value="70"),\'Org-Admin Request VM(Approved by admin)\'),\n                    TR(INPUT(_name=\'testcase71\', _type=\'checkbox\', _value="71"), \'Org-Admin Request VM(Rejected by admin)\'),\n                     TR(INPUT(_name=\'testcase109\', _type=\'checkbox\', _value="109"),\'User Request Attach Disk(Approved by Faculty and Rejected by org-admin)\'),\n                      TR(INPUT(_name=\'testcase108\', _type=\'checkbox\', _value="108"),\'User Request Attach Disk(Approved by Faculty,org-admin and Rejected by admin)\'),\n                       TR(INPUT(_name=\'testcase110\', _type=\'checkbox\', _value="110"),\'User Request Attach Disk(Rejected by Faculty )\'),\n                       \n                      TR(INPUT(_name=\'testcase105\', _type=\'checkbox\', _value="105"),\'Org-Admin  Attach Disk(Approved by admin)\'),\n                    TR(INPUT(_name=\'testcase106\', _type=\'checkbox\', _value="106"), \'Org-Admin Attach Disk(Rejected by admin)\'),\n                    \n                     TR(INPUT(_name=\'testcase85\', _type=\'checkbox\', _value="85"),\'Faculty Request Attach Disk(Rejected by org-admin)\'),\n                    TR(INPUT(_name=\'testcase87\', _type=\'checkbox\', _value="87"),\'Faculty Request Attach Disk(Approved by org-admin  and Rejected by admin)\'),\n                   TR(INPUT(_name=\'testcase100\', _type=\'checkbox\', _value="100"),\'Faculty Request Attach Disk(Approved by org-admin, admin)\'),\n                    TR(INPUT(_name=\'testcase101\', _type=\'checkbox\', _value="101"),\'User Request Clone VM(Approved by Faculty,org-admin,admin)\'),\n                   TR(INPUT(_name=\'testcase102\', _type=\'checkbox\', _value="102"),\'User Request Clone VM(Approved by Faculty and Rejected by org-admin)\'),\n                      TR(INPUT(_name=\'testcase111\', _type=\'checkbox\', _value="111"),\'User Request Clone VM(Approved by Faculty,org-admin and Rejected by admin)\'),\n                      TR(INPUT(_name=\'testcase112\', _type=\'checkbox\', _value="112"),\'User Request Clone VM(Rejected by Faculty )\'),\n                    TR(INPUT(_name=\'testcase113\', _type=\'checkbox\', _value="113"),\'Faculty Request Clone VM(Rejected by org-admin)\'),\n                    TR(INPUT(_name=\'testcase114\', _type=\'checkbox\', _value="114"),\'Faculty Request Clone VM(Approved by org-admin  and Rejected by admin)\'),\n                    TR(INPUT(_name=\'testcase115\', _type=\'checkbox\', _value="115"),\'Faculty Request Clone VM(Approved by org-admin, admin)\'),\n                     TR(INPUT(_name=\'testcase116\', _type=\'checkbox\', _value="116"),\'Org-Admin  Request Clone VM(Approved by admin)\'),\n                    TR(INPUT(_name=\'testcase117\', _type=\'checkbox\', _value="117"), \'Org-Admin Request Clone VM(Rejected by admin)\'),\n                    \n                     TR(INPUT(_name=\'testcase118\', _type=\'checkbox\', _value="118"),\'User Request Clone VM(Approved by Faculty,org-admin,admin)\'),\n                   TR(INPUT(_name=\'testcase119\', _type=\'checkbox\', _value="119"),\'User Request Clone VM(Approved by Faculty and Rejected by org-admin)\'),\n                      TR(INPUT(_name=\'testcase120\', _type=\'checkbox\', _value="120"),\'User Request Clone VM(Approved by Faculty,org-admin and Rejected by admin)\'),\n                      TR(INPUT(_name=\'testcase121\', _type=\'checkbox\', _value="121"),\'User Request Clone VM(Rejected by Faculty )\'),\n                    TR(INPUT(_name=\'testcase122\', _type=\'checkbox\', _value="122"),\'Faculty Request Clone VM(Rejected by org-admin)\'),\n                    TR(INPUT(_name=\'testcase123\', _type=\'checkbox\', _value="123"),\'Faculty Request Clone VM(Approved by org-admin  and Rejected by admin)\'),\n                    TR(INPUT(_name=\'testcase124\', _type=\'checkbox\', _value="124"),\'Faculty Request Clone VM(Approved by org-admin, admin)\'),\n                     TR(INPUT(_name=\'testcase125\', _type=\'checkbox\', _value="125"),\'Org-Admin  Request Clone VM(Approved by admin)\'),\n                    TR(INPUT(_name=\'testcase126\', _type=\'checkbox\', _value="136"), \'Org-Admin Request Clone VM(Rejected by admin)\'),\n                       \n                       TR(INPUT(_name=\'testcase\', _type=\'checkbox\', _value=""),\'Configure Template\'),\n                       TR(INPUT(_name=\'testcase\', _type=\'checkbox\', _value=""),\'Configure Host\'),\n                        TR(INPUT(_name=\'testcase\', _type=\'checkbox\', _value=""),\'Configure Datastore\'),\n                      \n                      \n                      BR(),\n                      TR(INPUT(_type=\'submit\',_value=\'submit\'))\n            )\n     )\n    if form.process().accepted:\n        for i in range(67,135):\n            test_case_no=request.vars[\'testcase\'+str(i)]\n            if i<=129:\n                if test_case_no!=None:\n                    test_script(test_case_no)\n            else :\n                if test_case_no!=None:\n                    graph_test(test_case_no)\n            \n    elif form.errors:\n        response.flash = \'form has errors\'\n    else:\n        response.flash = \'please fill the form\'\n    return dict(form=form)\n\nresponse._vars=response._caller(unit_testing)\n'
p7
sS'snapshot'
p8
(dp9
S'exception'
p10
(dp11
S'stacktrace'
p12
S"[u'    at FirefoxDriver.prototype.findElementInte...glecode.com/components/driver_component.js:8444)', u'    at fxdriver.Timer.prototype.setTimeout/<.n...oglecode.com/components/driver_component.js:386)']"
p13
sS'__module__'
p14
S"'selenium.common.exceptions'"
p15
sS'__getslice__'
p16
S"<method-wrapper '__getslice__' of NoSuchElementException object>"
p17
sS'__str__'
p18
S'<bound method NoSuchElementException.__str__ of NoSuchElementException()>'
p19
sS'__reduce__'
p20
S'<built-in method __reduce__ of NoSuchElementException object>'
p21
sS'__dict__'
p22
S'{\'msg\': u\'Unable to locate element: {"method":"xpath","selector":"//table[@id=\\\'vm_snaps\\\']/tbody/tr"}\', \'screen\': None, \'stacktrace\': [u\'    at FirefoxDriver.prototype.findElementInte...glecode.com/components/driver_component.js:8444)\', u\'    at fxdriver.Timer.prototype.setTimeout/<.n...oglecode.com/components/driver_component.js:386)\']}'
p23
sS'__sizeof__'
p24
S'<built-in method __sizeof__ of NoSuchElementException object>'
p25
sS'__weakref__'
p26
S'None'
p27
sS'__init__'
p28
S'<bound method NoSuchElementException.__init__ of NoSuchElementException()>'
p29
sS'__setattr__'
p30
S"<method-wrapper '__setattr__' of NoSuchElementException object>"
p31
sS'__reduce_ex__'
p32
S'<built-in method __reduce_ex__ of NoSuchElementException object>'
p33
sS'__new__'
p34
S'<built-in method __new__ of type object>'
p35
sS'__format__'
p36
S'<built-in method __format__ of NoSuchElementException object>'
p37
sS'__class__'
p38
S"<class 'selenium.common.exceptions.NoSuchElementException'>"
p39
sS'msg'
p40
S'u\'Unable to locate element: {"method":"xpath","selector":"//table[@id=\\\'vm_snaps\\\']/tbody/tr"}\''
p41
sS'__doc__'
p42
S'"find_element_by_* can\'t find the element."'
p43
sS'__getitem__'
p44
S"<method-wrapper '__getitem__' of NoSuchElementException object>"
p45
sS'__setstate__'
p46
S'<built-in method __setstate__ of NoSuchElementException object>'
p47
sS'__getattribute__'
p48
S"<method-wrapper '__getattribute__' of NoSuchElementException object>"
p49
sS'screen'
p50
S'None'
p51
sS'args'
p52
S'()'
p53
sS'__subclasshook__'
p54
S'<built-in method __subclasshook__ of type object>'
p55
sS'__unicode__'
p56
S'<built-in method __unicode__ of NoSuchElementException object>'
p57
sS'__delattr__'
p58
S"<method-wrapper '__delattr__' of NoSuchElementException object>"
p59
sS'__repr__'
p60
S"<method-wrapper '__repr__' of NoSuchElementException object>"
p61
sS'__hash__'
p62
S"<method-wrapper '__hash__' of NoSuchElementException object>"
p63
ssS'evalue'
p64
S'Message: u\'Unable to locate element: {"method":"xpath","selector":"//table[@id=\\\'vm_snaps\\\']/tbody/tr"}\' ; Stacktrace: \n    at FirefoxDriver.prototype.findElementInternal_ (file:///tmp/tmpo0ePGb/extensions/fxdriver@googlecode.com/components/driver_component.js:8444)\n    at fxdriver.Timer.prototype.setTimeout/<.notify (file:///tmp/tmpo0ePGb/extensions/fxdriver@googlecode.com/components/driver_component.js:386) '
p65
sS'request'
p66
cgluon.html
XML_unpickle
p67
(S's\xf2j\x00\x00<div><table><tr><td style="font-weight:bold;vertical-align:top">ajax</td><td valign="top">:</td><td><div>False</div></td></tr><tr><td style="font-weight:bold;vertical-align:top">application</td><td valign="top">:</td><td><div>testapp</div></td></tr><tr><td style="font-weight:bold;vertical-align:top">args</td><td valign="top">:</td><td><div><table></table></div></td></tr><tr><td style="font-weight:bold;vertical-align:top">body</td><td valign="top">:</td><td><div>&lt;open file &#x27;&lt;fdopen&gt;&#x27;, mode &#x27;w+b&#x27; at 0x7fd4cc415150&gt;</div></td></tr><tr><td style="font-weight:bold;vertical-align:top">cid</td><td valign="top">:</td><td><div>None</div></td></tr><tr><td style="font-weight:bold;vertical-align:top">client</td><td valign="top">:</td><td><div>127.0.0.1</div></td></tr><tr><td style="font-weight:bold;vertical-align:top">controller</td><td valign="top">:</td><td><div>default</div></td></tr><tr><td style="font-weight:bold;vertical-align:top">cookies</td><td valign="top">:</td><td><div><table><tr><td style="font-weight:bold;vertical-align:top">session_id_admin</td><td valign="top">:</td><td><div>127.0.0.1-0f6c0983-e5c8-44d5-bd99-462abdb8c822<table><tr><td style="font-weight:bold;vertical-align:top">comment</td><td valign="top">:</td><td><div></div></td></tr><tr><td style="font-weight:bold;vertical-align:top">domain</td><td valign="top">:</td><td><div></div></td></tr><tr><td style="font-weight:bold;vertical-align:top">expires</td><td valign="top">:</td><td><div></div></td></tr><tr><td style="font-weight:bold;vertical-align:top">httponly</td><td valign="top">:</td><td><div></div></td></tr><tr><td style="font-weight:bold;vertical-align:top">max-age</td><td valign="top">:</td><td><div></div></td></tr><tr><td style="font-weight:bold;vertical-align:top">path</td><td valign="top">:</td><td><div></div></td></tr><tr><td style="font-weight:bold;vertical-align:top">secure</td><td valign="top">:</td><td><div></div></td></tr><tr><td style="font-weight:bold;vertical-align:top">version</td><td valign="top">:</td><td><div></div></td></tr></table></div></td></tr><tr><td style="font-weight:bold;vertical-align:top">session_id_testapp</td><td valign="top">:</td><td><div>127.0.0.1-e2bc8efe-7f57-45a7-b8f3-8e912a817b9c<table><tr><td style="font-weight:bold;vertical-align:top">comment</td><td valign="top">:</td><td><div></div></td></tr><tr><td style="font-weight:bold;vertical-align:top">domain</td><td valign="top">:</td><td><div></div></td></tr><tr><td style="font-weight:bold;vertical-align:top">expires</td><td valign="top">:</td><td><div></div></td></tr><tr><td style="font-weight:bold;vertical-align:top">httponly</td><td valign="top">:</td><td><div></div></td></tr><tr><td style="font-weight:bold;vertical-align:top">max-age</td><td valign="top">:</td><td><div></div></td></tr><tr><td style="font-weight:bold;vertical-align:top">path</td><td valign="top">:</td><td><div></div></td></tr><tr><td style="font-weight:bold;vertical-align:top">secure</td><td valign="top">:</td><td><div></div></td></tr><tr><td style="font-weight:bold;vertical-align:top">version</td><td valign="top">:</td><td><div></div></td></tr></table></div></td></tr></table></div></td></tr><tr><td style="font-weight:bold;vertical-align:top">env</td><td valign="top">:</td><td><div><table><tr><td style="font-weight:bold;vertical-align:top">app_folders</td><td valign="top">:</td><td><div>set([&#x27;/home/monika/Desktop/web2py/applications/admin/&#x27;, &#x27;/home/monika/Desktop/web2py/applications/testapp/&#x27;])</div></td></tr><tr><td style="font-weight:bold;vertical-align:top">applications_parent</td><td valign="top">:</td><td><div>/home/monika/Desktop/web2py</div></td></tr><tr><td style="font-weight:bold;vertical-align:top">cmd_args</td><td valign="top">:</td><td><div><table></table></div></td></tr><tr><td style="font-weight:bold;vertical-align:top">cmd_options</td><td valign="top">:</td><td><div>&lt;Values at 0x17acfc8: {&#x27;verbose&#x27;: False, &#x27;ip&#x27;: &#x27;127.0.0.1&#x27;, &#x27;with_scheduler&#x27;: False, &#x27;ips&#x27;: [], &#x27;shutdown_timeout&#x27;: 5, &#x27;taskbar&#x27;: False, &#x27;port&#x27;: 8000, &#x27;maxthreads&#x27;: None, &#x27;softcron&#x27;: False, &#x27;server_name&#x27;: &#x27;dell-OptiPlex-7010&#x27;, &#x27;bpython&#x27;: False, &#x27;nogui&#x27;: False, &#x27;pid_filename&#x27;: &#x27;httpserver.pid&#x27;, &#x27;extcron&#x27;: False, &#x27;runcron&#x27;: False, &#x27;run_system_tests&#x27;: False, &#x27;test&#x27;: None, &#x27;folder&#x27;: &#x27;/home/monika/Desktop/web2py&#x27;, &#x27;config&#x27;: &#x27;&#x27;, &#x27;minthreads&#x27;: None, &#x27;winservice&#x27;: &#x27;&#x27;, &#x27;shell&#x27;: None, &#x27;run&#x27;: &#x27;&#x27;, &#x27;log_filename&#x27;: &#x27;httpserver.log&#x27;, &#x27;debuglevel&#x27;: 30, &#x27;args&#x27;: [&#x27;&#x27;], &#x27;socket_timeout&#x27;: 5, &#x27;ssl_ca_certificate&#x27;: None, &#x27;scheduler&#x27;: None, &#x27;profiler_filename&#x27;: None, &#x27;ssl_private_key&#x27;: &#x27;&#x27;, &#x27;scheduler_groups&#x27;: None, &#x27;password&#x27;: &#x27;&lt;ask&gt;&#x27;, &#x27;request_queue_size&#x27;: 5, &#x27;ssl_certificate&#x27;: &#x27;&#x27;, &#x27;cronjob&#x27;: False, &#x27;numthreads&#x27;: None, &#x27;quiet&#x27;: False, &#x27;interfaces&#x27;: None, &#x27;import_models&#x27;: False, &#x27;timeout&#x27;: 10, &#x27;plain&#x27;: False, &#x27;nobanner&#x27;: False}&gt;</div></td></tr><tr><td style="font-weight:bold;vertical-align:top">content_length</td><td valign="top">:</td><td><div>3201</div></td></tr><tr><td style="font-weight:bold;vertical-align:top">content_type</td><td valign="top">:</td><td><div>multipart/form-data; boundary=---------------------------370251841230668666759279875</div></td></tr><tr><td style="font-weight:bold;vertical-align:top">db_sessions</td><td valign="top">:</td><td><div>set([])</div></td></tr><tr><td style="font-weight:bold;vertical-align:top">debugging</td><td valign="top">:</td><td><div>True</div></td></tr><tr><td style="font-weight:bold;vertical-align:top">gluon_parent</td><td valign="top">:</td><td><div>/home/monika/Desktop/web2py</div></td></tr><tr><td style="font-weight:bold;vertical-align:top">http_accept</td><td valign="top">:</td><td><div>text/html,application/xhtml+xml,application/xml;q=0.9,*/*;q=0.8</div></td></tr><tr><td style="font-weight:bold;vertical-align:top">http_accept_encoding</td><td valign="top">:</td><td><div>gzip, deflate</div></td></tr><tr><td style="font-weight:bold;vertical-align:top">http_accept_language</td><td valign="top">:</td><td><div>en-US,en;q=0.5</div></td></tr><tr><td style="font-weight:bold;vertical-align:top">http_connection</td><td valign="top">:</td><td><div>keep-alive</div></td></tr><tr><td style="font-weight:bold;vertical-align:top">http_content_length</td><td valign="top">:</td><td><div>3201</div></td></tr><tr><td style="font-weight:bold;vertical-align:top">http_content_type</td><td valign="top">:</td><td><div>multipart/form-data; boundary=---------------------------370251841230668666759279875</div></td></tr><tr><td style="font-weight:bold;vertical-align:top">http_cookie</td><td valign="top">:</td><td><div>session_id_testapp=127.0.0.1-e2bc8efe-7f57-45a7-b8f3-8e912a817b9c; session_id_admin=127.0.0.1-0f6c0983-e5c8-44d5-bd99-462abdb8c822</div></td></tr><tr><td style="font-weight:bold;vertical-align:top">http_host</td><td valign="top">:</td><td><div>127.0.0.1:8000</div></td></tr><tr><td style="font-weight:bold;vertical-align:top">http_referer</td><td valign="top">:</td><td><div>http://127.0.0.1:8000/testapp/default/unit_testing</div></td></tr><tr><td style="font-weight:bold;vertical-align:top">http_user_agent</td><td valign="top">:</td><td><div>Mozilla/5.0 (X11; Ubuntu; Linux x86_64; rv:21.0) Gecko/20100101 Firefox/21.0</div></td></tr><tr><td style="font-weight:bold;vertical-align:top">is_jython</td><td valign="top">:</td><td><div>False</div></td></tr><tr><td style="font-weight:bold;vertical-align:top">is_pypy</td><td valign="top">:</td><td><div>False</div></td></tr><tr><td style="font-weight:bold;vertical-align:top">local_hosts</td><td valign="top">:</td><td><div><table><tr><td><div>127.0.1.1</div></td></tr><tr><td><div>::1</div></td></tr><tr><td><div>dell-OptiPlex-7010</div></td></tr><tr><td><div>::ffff:127.0.0.1</div></td></tr><tr><td><div>127.0.0.1</div></td></tr></table></div></td></tr><tr><td style="font-weight:bold;vertical-align:top">path_info</td><td valign="top">:</td><td><div>/testapp/default/unit_testing</div></td></tr><tr><td style="font-weight:bold;vertical-align:top">query_string</td><td valign="top">:</td><td><div></div></td></tr><tr><td style="font-weight:bold;vertical-align:top">remote_addr</td><td valign="top">:</td><td><div>127.0.0.1</div></td></tr><tr><td style="font-weight:bold;vertical-align:top">remote_port</td><td valign="top">:</td><td><div>58271</div></td></tr><tr><td style="font-weight:bold;vertical-align:top">request_method</td><td valign="top">:</td><td><div>POST</div></td></tr><tr><td style="font-weight:bold;vertical-align:top">request_uri</td><td valign="top">:</td><td><div>/testapp/default/unit_testing</div></td></tr><tr><td style="font-weight:bold;vertical-align:top">script_name</td><td valign="top">:</td><td><div></div></td></tr><tr><td style="font-weight:bold;vertical-align:top">server_name</td><td valign="top">:</td><td><div>dell-OptiPlex-7010</div></td></tr><tr><td style="font-weight:bold;vertical-align:top">server_port</td><td valign="top">:</td><td><div>8000</div></td></tr><tr><td style="font-weight:bold;vertical-align:top">server_protocol</td><td valign="top">:</td><td><div>HTTP/1.1</div></td></tr><tr><td style="font-weight:bold;vertical-align:top">server_software</td><td valign="top">:</td><td><div>Rocket 1.2.6</div></td></tr><tr><td style="font-weight:bold;vertical-align:top">web2py_path</td><td valign="top">:</td><td><div>/home/monika/Desktop/web2py</div></td></tr><tr><td style="font-weight:bold;vertical-align:top">web2py_version</td><td valign="top">:</td><td><div>2.4.4-stable+timestamp.2013.03.11.20.32.00</div></td></tr><tr><td style="font-weight:bold;vertical-align:top">wsgi_errors</td><td valign="top">:</td><td><div>&lt;open file &#x27;&lt;stderr&gt;&#x27;, mode &#x27;w&#x27; at 0x7fd4fde7d270&gt;</div></td></tr><tr><td style="font-weight:bold;vertical-align:top">wsgi_file_wrapper</td><td valign="top">:</td><td><div>&lt;class wsgiref.util.FileWrapper at 0x171ece8&gt;</div></td></tr><tr><td style="font-weight:bold;vertical-align:top">wsgi_input</td><td valign="top">:</td><td><div>&lt;socket._fileobject object at 0x7fd4e42a2d50&gt;</div></td></tr><tr><td style="font-weight:bold;vertical-align:top">wsgi_multiprocess</td><td valign="top">:</td><td><div>False</div></td></tr><tr><td style="font-weight:bold;vertical-align:top">wsgi_multithread</td><td valign="top">:</td><td><div>True</div></td></tr><tr><td style="font-weight:bold;vertical-align:top">wsgi_run_once</td><td valign="top">:</td><td><div>False</div></td></tr><tr><td style="font-weight:bold;vertical-align:top">wsgi_url_scheme</td><td valign="top">:</td><td><div>http</div></td></tr><tr><td style="font-weight:bold;vertical-align:top">wsgi_version</td><td valign="top">:</td><td><div><table><tr><td><div>1</div></td></tr><tr><td><div>0</div></td></tr></table></div></td></tr></table></div></td></tr><tr><td style="font-weight:bold;vertical-align:top">extension</td><td valign="top">:</td><td><div>html</div></td></tr><tr><td style="font-weight:bold;vertical-align:top">folder</td><td valign="top">:</td><td><div>/home/monika/Desktop/web2py/applications/testapp/</div></td></tr><tr><td style="font-weight:bold;vertical-align:top">function</td><td valign="top">:</td><td><div>unit_testing</div></td></tr><tr><td style="font-weight:bold;vertical-align:top">get_vars</td><td valign="top">:</td><td><div><table></table></div></td></tr><tr><td style="font-weight:bold;vertical-align:top">global_settings</td><td valign="top">:</td><td><div><table><tr><td style="font-weight:bold;vertical-align:top">app_folders</td><td valign="top">:</td><td><div>set([&#x27;/home/monika/Desktop/web2py/applications/admin/&#x27;, &#x27;/home/monika/Desktop/web2py/applications/testapp/&#x27;])</div></td></tr><tr><td style="font-weight:bold;vertical-align:top">applications_parent</td><td valign="top">:</td><td><div>/home/monika/Desktop/web2py</div></td></tr><tr><td style="font-weight:bold;vertical-align:top">cmd_args</td><td valign="top">:</td><td><div><table></table></div></td></tr><tr><td style="font-weight:bold;vertical-align:top">cmd_options</td><td valign="top">:</td><td><div>&lt;Values at 0x17acfc8: {&#x27;verbose&#x27;: False, &#x27;ip&#x27;: &#x27;127.0.0.1&#x27;, &#x27;with_scheduler&#x27;: False, &#x27;ips&#x27;: [], &#x27;shutdown_timeout&#x27;: 5, &#x27;taskbar&#x27;: False, &#x27;port&#x27;: 8000, &#x27;maxthreads&#x27;: None, &#x27;softcron&#x27;: False, &#x27;server_name&#x27;: &#x27;dell-OptiPlex-7010&#x27;, &#x27;bpython&#x27;: False, &#x27;nogui&#x27;: False, &#x27;pid_filename&#x27;: &#x27;httpserver.pid&#x27;, &#x27;extcron&#x27;: False, &#x27;runcron&#x27;: False, &#x27;run_system_tests&#x27;: False, &#x27;test&#x27;: None, &#x27;folder&#x27;: &#x27;/home/monika/Desktop/web2py&#x27;, &#x27;config&#x27;: &#x27;&#x27;, &#x27;minthreads&#x27;: None, &#x27;winservice&#x27;: &#x27;&#x27;, &#x27;shell&#x27;: None, &#x27;run&#x27;: &#x27;&#x27;, &#x27;log_filename&#x27;: &#x27;httpserver.log&#x27;, &#x27;debuglevel&#x27;: 30, &#x27;args&#x27;: [&#x27;&#x27;], &#x27;socket_timeout&#x27;: 5, &#x27;ssl_ca_certificate&#x27;: None, &#x27;scheduler&#x27;: None, &#x27;profiler_filename&#x27;: None, &#x27;ssl_private_key&#x27;: &#x27;&#x27;, &#x27;scheduler_groups&#x27;: None, &#x27;password&#x27;: &#x27;&lt;ask&gt;&#x27;, &#x27;request_queue_size&#x27;: 5, &#x27;ssl_certificate&#x27;: &#x27;&#x27;, &#x27;cronjob&#x27;: False, &#x27;numthreads&#x27;: None, &#x27;quiet&#x27;: False, &#x27;interfaces&#x27;: None, &#x27;import_models&#x27;: False, &#x27;timeout&#x27;: 10, &#x27;plain&#x27;: False, &#x27;nobanner&#x27;: False}&gt;</div></td></tr><tr><td style="font-weight:bold;vertical-align:top">db_sessions</td><td valign="top">:</td><td><div>set([])</div></td></tr><tr><td style="font-weight:bold;vertical-align:top">debugging</td><td valign="top">:</td><td><div>True</div></td></tr><tr><td style="font-weight:bold;vertical-align:top">gluon_parent</td><td valign="top">:</td><td><div>/home/monika/Desktop/web2py</div></td></tr><tr><td style="font-weight:bold;vertical-align:top">is_jython</td><td valign="top">:</td><td><div>False</div></td></tr><tr><td style="font-weight:bold;vertical-align:top">is_pypy</td><td valign="top">:</td><td><div>False</div></td></tr><tr><td style="font-weight:bold;vertical-align:top">local_hosts</td><td valign="top">:</td><td><div><table><tr><td><div>127.0.1.1</div></td></tr><tr><td><div>::1</div></td></tr><tr><td><div>dell-OptiPlex-7010</div></td></tr><tr><td><div>::ffff:127.0.0.1</div></td></tr><tr><td><div>127.0.0.1</div></td></tr></table></div></td></tr><tr><td style="font-weight:bold;vertical-align:top">web2py_version</td><td valign="top">:</td><td><div>2.4.4-stable+timestamp.2013.03.11.20.32.00</div></td></tr></table></div></td></tr><tr><td style="font-weight:bold;vertical-align:top">is_https</td><td valign="top">:</td><td><div>False</div></td></tr><tr><td style="font-weight:bold;vertical-align:top">is_local</td><td valign="top">:</td><td><div>True</div></td></tr><tr><td style="font-weight:bold;vertical-align:top">is_restful</td><td valign="top">:</td><td><div>False</div></td></tr><tr><td style="font-weight:bold;vertical-align:top">now</td><td valign="top">:</td><td><div>datetime.datetime(2013, 12, 18, 12, 48, 14, 208661)</div></td></tr><tr><td style="font-weight:bold;vertical-align:top">post_vars</td><td valign="top">:</td><td><div><table><tr><td style="font-weight:bold;vertical-align:top">testcase18</td><td valign="top">:</td><td><div>18</div></td></tr><tr><td style="font-weight:bold;vertical-align:top">testcase20</td><td valign="top">:</td><td><div>20</div></td></tr><tr><td style="font-weight:bold;vertical-align:top">testcase21</td><td valign="top">:</td><td><div>21</div></td></tr><tr><td style="font-weight:bold;vertical-align:top">testcase23</td><td valign="top">:</td><td><div>23</div></td></tr><tr><td style="font-weight:bold;vertical-align:top">testcase24</td><td valign="top">:</td><td><div>24</div></td></tr><tr><td style="font-weight:bold;vertical-align:top">testcase25</td><td valign="top">:</td><td><div>25</div></td></tr><tr><td style="font-weight:bold;vertical-align:top">testcase26</td><td valign="top">:</td><td><div>26</div></td></tr><tr><td style="font-weight:bold;vertical-align:top">testcase27</td><td valign="top">:</td><td><div>27</div></td></tr><tr><td style="font-weight:bold;vertical-align:top">testcase28</td><td valign="top">:</td><td><div>28</div></td></tr><tr><td style="font-weight:bold;vertical-align:top">testcase29</td><td valign="top">:</td><td><div>29</div></td></tr><tr><td style="font-weight:bold;vertical-align:top">testcase31</td><td valign="top">:</td><td><div>31</div></td></tr><tr><td style="font-weight:bold;vertical-align:top">testcase32</td><td valign="top">:</td><td><div>32</div></td></tr><tr><td style="font-weight:bold;vertical-align:top">testcase33</td><td valign="top">:</td><td><div>33</div></td></tr><tr><td style="font-weight:bold;vertical-align:top">testcase34</td><td valign="top">:</td><td><div>34</div></td></tr><tr><td style="font-weight:bold;vertical-align:top">testcase35</td><td valign="top">:</td><td><div>35</div></td></tr><tr><td style="font-weight:bold;vertical-align:top">testcase36</td><td valign="top">:</td><td><div>36</div></td></tr><tr><td style="font-weight:bold;vertical-align:top">testcase38</td><td valign="top">:</td><td><div>38</div></td></tr><tr><td style="font-weight:bold;vertical-align:top">testcase39</td><td valign="top">:</td><td><div>39</div></td></tr><tr><td style="font-weight:bold;vertical-align:top">testcase40</td><td valign="top">:</td><td><div>40</div></td></tr><tr><td style="font-weight:bold;vertical-align:top">testcase41</td><td valign="top">:</td><td><div>41</div></td></tr><tr><td style="font-weight:bold;vertical-align:top">testcase42</td><td valign="top">:</td><td><div>42</div></td></tr><tr><td style="font-weight:bold;vertical-align:top">testcase43</td><td valign="top">:</td><td><div>43</div></td></tr><tr><td style="font-weight:bold;vertical-align:top">testcase47</td><td valign="top">:</td><td><div>47</div></td></tr><tr><td style="font-weight:bold;vertical-align:top">testcase57</td><td valign="top">:</td><td><div>57</div></td></tr><tr><td style="font-weight:bold;vertical-align:top">testcase58</td><td valign="top">:</td><td><div>58</div></td></tr></table></div></td></tr><tr><td style="font-weight:bold;vertical-align:top">raw_args</td><td valign="top">:</td><td><div></div></td></tr><tr><td style="font-weight:bold;vertical-align:top">raw_extension</td><td valign="top">:</td><td><div>None</div></td></tr><tr><td style="font-weight:bold;vertical-align:top">url</td><td valign="top">:</td><td><div>/testapp/default/unit_testing</div></td></tr><tr><td style="font-weight:bold;vertical-align:top">utcnow</td><td valign="top">:</td><td><div>datetime.datetime(2013, 12, 18, 7, 18, 14, 208687)</div></td></tr><tr><td style="font-weight:bold;vertical-align:top">uuid</td><td valign="top">:</td><td><div>testapp/127.0.0.1.2013-12-18.12-48-14.834f48d1-b032-48fc-9f45-727ab40516ab</div></td></tr><tr><td style="font-weight:bold;vertical-align:top">vars</td><td valign="top">:</td><td><div><table><tr><td style="font-weight:bold;vertical-align:top">testcase18</td><td valign="top">:</td><td><div>18</div></td></tr><tr><td style="font-weight:bold;vertical-align:top">testcase20</td><td valign="top">:</td><td><div>20</div></td></tr><tr><td style="font-weight:bold;vertical-align:top">testcase21</td><td valign="top">:</td><td><div>21</div></td></tr><tr><td style="font-weight:bold;vertical-align:top">testcase23</td><td valign="top">:</td><td><div>23</div></td></tr><tr><td style="font-weight:bold;vertical-align:top">testcase24</td><td valign="top">:</td><td><div>24</div></td></tr><tr><td style="font-weight:bold;vertical-align:top">testcase25</td><td valign="top">:</td><td><div>25</div></td></tr><tr><td style="font-weight:bold;vertical-align:top">testcase26</td><td valign="top">:</td><td><div>26</div></td></tr><tr><td style="font-weight:bold;vertical-align:top">testcase27</td><td valign="top">:</td><td><div>27</div></td></tr><tr><td style="font-weight:bold;vertical-align:top">testcase28</td><td valign="top">:</td><td><div>28</div></td></tr><tr><td style="font-weight:bold;vertical-align:top">testcase29</td><td valign="top">:</td><td><div>29</div></td></tr><tr><td style="font-weight:bold;vertical-align:top">testcase31</td><td valign="top">:</td><td><div>31</div></td></tr><tr><td style="font-weight:bold;vertical-align:top">testcase32</td><td valign="top">:</td><td><div>32</div></td></tr><tr><td style="font-weight:bold;vertical-align:top">testcase33</td><td valign="top">:</td><td><div>33</div></td></tr><tr><td style="font-weight:bold;vertical-align:top">testcase34</td><td valign="top">:</td><td><div>34</div></td></tr><tr><td style="font-weight:bold;vertical-align:top">testcase35</td><td valign="top">:</td><td><div>35</div></td></tr><tr><td style="font-weight:bold;vertical-align:top">testcase36</td><td valign="top">:</td><td><div>36</div></td></tr><tr><td style="font-weight:bold;vertical-align:top">testcase38</td><td valign="top">:</td><td><div>38</div></td></tr><tr><td style="font-weight:bold;vertical-align:top">testcase39</td><td valign="top">:</td><td><div>39</div></td></tr><tr><td style="font-weight:bold;vertical-align:top">testcase40</td><td valign="top">:</td><td><div>40</div></td></tr><tr><td style="font-weight:bold;vertical-align:top">testcase41</td><td valign="top">:</td><td><div>41</div></td></tr><tr><td style="font-weight:bold;vertical-align:top">testcase42</td><td valign="top">:</td><td><div>42</div></td></tr><tr><td style="font-weight:bold;vertical-align:top">testcase43</td><td valign="top">:</td><td><div>43</div></td></tr><tr><td style="font-weight:bold;vertical-align:top">testcase47</td><td valign="top">:</td><td><div>47</div></td></tr><tr><td style="font-weight:bold;vertical-align:top">testcase57</td><td valign="top">:</td><td><div>57</div></td></tr><tr><td style="font-weight:bold;vertical-align:top">testcase58</td><td valign="top">:</td><td><div>58</div></td></tr></table></div></td></tr><tr><td style="font-weight:bold;vertical-align:top">wsgi</td><td valign="top">:</td><td><div><table><tr><td style="font-weight:bold;vertical-align:top">environ</td><td valign="top">:</td><td><div><table><tr><td style="font-weight:bold;vertical-align:top">CONTENT_LENGTH</td><td valign="top">:</td><td><div>3201</div></td></tr><tr><td style="font-weight:bold;vertical-align:top">CONTENT_TYPE</td><td valign="top">:</td><td><div>multipart/form-data; boundary=---------------------------370251841230668666759279875</div></td></tr><tr><td style="font-weight:bold;vertical-align:top">HTTP_ACCEPT</td><td valign="top">:</td><td><div>text/html,application/xhtml+xml,application/xml;q=0.9,*/*;q=0.8</div></td></tr><tr><td style="font-weight:bold;vertical-align:top">HTTP_ACCEPT_ENCODING</td><td valign="top">:</td><td><div>gzip, deflate</div></td></tr><tr><td style="font-weight:bold;vertical-align:top">HTTP_ACCEPT_LANGUAGE</td><td valign="top">:</td><td><div>en-US,en;q=0.5</div></td></tr><tr><td style="font-weight:bold;vertical-align:top">HTTP_CONNECTION</td><td valign="top">:</td><td><div>keep-alive</div></td></tr><tr><td style="font-weight:bold;vertical-align:top">HTTP_CONTENT_LENGTH</td><td valign="top">:</td><td><div>3201</div></td></tr><tr><td style="font-weight:bold;vertical-align:top">HTTP_CONTENT_TYPE</td><td valign="top">:</td><td><div>multipart/form-data; boundary=---------------------------370251841230668666759279875</div></td></tr><tr><td style="font-weight:bold;vertical-align:top">HTTP_COOKIE</td><td valign="top">:</td><td><div>session_id_testapp=127.0.0.1-e2bc8efe-7f57-45a7-b8f3-8e912a817b9c; session_id_admin=127.0.0.1-0f6c0983-e5c8-44d5-bd99-462abdb8c822</div></td></tr><tr><td style="font-weight:bold;vertical-align:top">HTTP_HOST</td><td valign="top">:</td><td><div>127.0.0.1:8000</div></td></tr><tr><td style="font-weight:bold;vertical-align:top">HTTP_REFERER</td><td valign="top">:</td><td><div>http://127.0.0.1:8000/testapp/default/unit_testing</div></td></tr><tr><td style="font-weight:bold;vertical-align:top">HTTP_USER_AGENT</td><td valign="top">:</td><td><div>Mozilla/5.0 (X11; Ubuntu; Linux x86_64; rv:21.0) Gecko/20100101 Firefox/21.0</div></td></tr><tr><td style="font-weight:bold;vertical-align:top">PATH_INFO</td><td valign="top">:</td><td><div>/testapp/default/unit_testing</div></td></tr><tr><td style="font-weight:bold;vertical-align:top">QUERY_STRING</td><td valign="top">:</td><td><div></div></td></tr><tr><td style="font-weight:bold;vertical-align:top">REMOTE_ADDR</td><td valign="top">:</td><td><div>127.0.0.1</div></td></tr><tr><td style="font-weight:bold;vertical-align:top">REMOTE_PORT</td><td valign="top">:</td><td><div>58271</div></td></tr><tr><td style="font-weight:bold;vertical-align:top">REQUEST_METHOD</td><td valign="top">:</td><td><div>POST</div></td></tr><tr><td style="font-weight:bold;vertical-align:top">REQUEST_URI</td><td valign="top">:</td><td><div>/testapp/default/unit_testing</div></td></tr><tr><td style="font-weight:bold;vertical-align:top">SCRIPT_NAME</td><td valign="top">:</td><td><div></div></td></tr><tr><td style="font-weight:bold;vertical-align:top">SERVER_NAME</td><td valign="top">:</td><td><div>dell-OptiPlex-7010</div></td></tr><tr><td style="font-weight:bold;vertical-align:top">SERVER_PORT</td><td valign="top">:</td><td><div>8000</div></td></tr><tr><td style="font-weight:bold;vertical-align:top">SERVER_PROTOCOL</td><td valign="top">:</td><td><div>HTTP/1.1</div></td></tr><tr><td style="font-weight:bold;vertical-align:top">SERVER_SOFTWARE</td><td valign="top">:</td><td><div>Rocket 1.2.6</div></td></tr><tr><td style="font-weight:bold;vertical-align:top">wsgi.errors</td><td valign="top">:</td><td><div>&lt;open file &#x27;&lt;stderr&gt;&#x27;, mode &#x27;w&#x27; at 0x7fd4fde7d270&gt;</div></td></tr><tr><td style="font-weight:bold;vertical-align:top">wsgi.file_wrapper</td><td valign="top">:</td><td><div>&lt;class wsgiref.util.FileWrapper at 0x171ece8&gt;</div></td></tr><tr><td style="font-weight:bold;vertical-align:top">wsgi.input</td><td valign="top">:</td><td><div>&lt;open file &#x27;&lt;fdopen&gt;&#x27;, mode &#x27;w+b&#x27; at 0x7fd4cc415150&gt;</div></td></tr><tr><td style="font-weight:bold;vertical-align:top">wsgi.multiprocess</td><td valign="top">:</td><td><div>False</div></td></tr><tr><td style="font-weight:bold;vertical-align:top">wsgi.multithread</td><td valign="top">:</td><td><div>True</div></td></tr><tr><td style="font-weight:bold;vertical-align:top">wsgi.run_once</td><td valign="top">:</td><td><div>False</div></td></tr><tr><td style="font-weight:bold;vertical-align:top">wsgi.url_scheme</td><td valign="top">:</td><td><div>http</div></td></tr><tr><td style="font-weight:bold;vertical-align:top">wsgi.version</td><td valign="top">:</td><td><div>1</div></td></tr></table></div></td></tr></table></div></td></tr></table></div>'
tRp68
sS'frames'
p69
(lp70
(dp71
S'file'
p72
S'/home/monika/Desktop/web2py/gluon/restricted.py'
p73
sS'dump'
p74
(dp75
S'environment'
p76
S"{'A': <class 'gluon.html.A'>, 'Auth': <class 'gluon.tools.Auth'>, 'B': <class 'gluon.html.B'>, 'BEAUTIFY': <class 'gluon.html.BEAUTIFY'>, 'BODY': <class 'gluon.html.BODY'>, 'BR': <class 'gluon.html.BR'>, 'BUTTON': <class 'gluon.html.BUTTON'>, 'CAT': <class 'gluon.html.CAT'>, 'CENTER': <class 'gluon.html.CENTER'>, 'CLEANUP': <class 'gluon.validators.CLEANUP'>, ...}"
p77
sS'ccode'
p78
S'<code object <module> at 0x7fd4d03ce730, file "/...cations/testapp/controllers/default.py", line 11>'
p79
ssS'lnum'
p80
I212
sS'lines'
p81
(dp82
I207
S'    try:'
p83
sI208
S'        if isinstance(code, types.CodeType):'
p84
sI209
S'            ccode = code'
p85
sI210
S'        else:'
p86
sI211
S'            ccode = compile2(code, layer)'
p87
sI212
S'        exec ccode in environment'
p88
sI213
S'    except HTTP:'
p89
sI214
S'        raise'
p90
sI215
S'    except RestrictedError:'
p91
sI216
S'        # do not encapsulate (obfuscate) the original RestrictedError'
p92
ssS'call'
p93
S"(code='# -*- coding: utf-8 -*-\\n# this file is released ...)\\n\\nresponse._vars=response._caller(unit_testing)\\n', environment={'A': <class 'gluon.html.A'>, 'Auth': <class 'gluon.tools.Auth'>, 'B': <class 'gluon.html.B'>, 'BEAUTIFY': <class 'gluon.html.BEAUTIFY'>, 'BODY': <class 'gluon.html.BODY'>, 'BR': <class 'gluon.html.BR'>, 'BUTTON': <class 'gluon.html.BUTTON'>, 'CAT': <class 'gluon.html.CAT'>, 'CENTER': <class 'gluon.html.CENTER'>, 'CLEANUP': <class 'gluon.validators.CLEANUP'>, ...}, layer='/home/monika/Desktop/web2py/applications/testapp/controllers/default.py')"
p94
sS'func'
p95
S'restricted'
p96
sa(dp97
g72
S'/home/monika/Desktop/web2py/applications/testapp/controllers/default.py'
p98
sg74
(dp99
sg80
I345
sg81
(dp100
I334
S'                    test_script(test_case_no)'
p101
sI335
S'            else :'
p102
sI336
S'                if test_case_no!=None:'
p103
sI337
S'                    graph_test(test_case_no)'
p104
sI338
S''
sI339
S'    elif form.errors:'
p105
sI340
S"        response.flash = 'form has errors'"
p106
sI341
S'    else:'
p107
sI342
S"        response.flash = 'please fill the form'"
p108
sI343
S'    return dict(form=form)'
p109
ssg93
S'()'
p110
sg95
S'<module>'
p111
sa(dp112
g72
S'/home/monika/Desktop/web2py/gluon/globals.py'
p113
sg74
(dp114
S'self'
p115
S'undefined'
p116
sS'f'
S'<function unit_testing>'
p117
ssg80
I194
sg81
(dp118
I192
S"        self.delimiters = ('{{', '}}')"
p119
sI193
S'        self._vars = None'
p120
sI194
S'        self._caller = lambda f: f()'
p121
sI195
S'        self._view_environment = None'
p122
sI196
S'        self._custom_commit = None'
p123
sI197
S'        self._custom_rollback = None'
p124
sI198
S''
sI189
S'        self.menu = []             # used by the default view layout'
p125
sI190
S'        self.files = []            # used by web2py_ajax.html'
p126
sI191
S'        self.generic_patterns = []  # patterns to allow generic views'
p127
ssg93
S'(f=<function unit_testing>)'
p128
sg95
S'<lambda>'
p129
sa(dp130
g72
S'/home/monika/Desktop/web2py/applications/testapp/controllers/default.py'
p131
sg74
(dp132
S'test_case_no'
p133
S"'18'"
p134
sS'global test_script'
p135
S'<function test_script>'
p136
ssg80
I152
sg81
(dp137
I147
S'                if test_case_no=="65":'
p138
sI148
S'                    for j in range(1,65):'
p139
sI149
S'                        test_case_no=str(j)'
p140
sI150
S'                        test_script(test_case_no)'
p141
sI151
S'                else:'
p142
sI152
S'                    test_script(test_case_no)'
p143
sI153
S''
sI154
S'    elif form.errors:'
p144
sI155
S"        response.flash = 'form has errors'"
p145
sI156
S'    else:'
p146
ssg93
S'()'
p147
sg95
S'unit_testing'
p148
sa(dp149
g72
S'/home/monika/Desktop/web2py/applications/testapp/models/test.py'
p150
sg74
(dp151
S'global isImage'
p152
S'<function isImage>'
p153
sS'table_path'
p154
S'"//div[@class=\'TABLE\']/table/tbody/tr/td"'
p155
sS'xml_sub_child'
p156
S"<Element 'setting'>"
p157
sS'driver'
p158
S'<selenium.webdriver.firefox.webdriver.WebDriver object>'
p159
sS'vm_name2'
p160
g116
sS'xml_child'
p161
S"<Element 'test_case1'>"
p162
ssg80
I230
sg81
(dp163
I225
S'                elif field_type=="table":'
p164
sI226
S'                    isTable(driver,xml_parent,xml_child,xml_sub_child)#checking for data in table'
p165
sI227
S''
sI228
S'                elif field_type=="img":#checking for setting image'
p166
sI229
S'                    table_path=xml_sub_child.get("path")'
p167
sI230
S'                    vm_name2=isImage(driver,xml_child,xml_sub_child,table_path)'
p168
sI231
S''
sI232
S'                elif field_type=="check_tables":#cheking for host table'
p169
sI233
S'                    isCheckTable(driver,xml_parent,xml_child,xml_sub_child)'
p170
sI234
S''
ssg93
S"(test_case_no='18')"
p171
sg95
S'test_script'
p172
sa(dp173
g72
S'/home/monika/Desktop/web2py/applications/testapp/models/test.py'
p174
sg74
(dp175
S'driver'
p176
S'<selenium.webdriver.firefox.webdriver.WebDriver object>'
p177
sS'xml_child'
p178
S"<Element 'test_case1'>"
p179
sS'xml_sub_child'
p180
S"<Element 'setting'>"
p181
sS'global vm_mode'
p182
S'<function vm_mode>'
p183
ssg80
I1172
sg81
(dp184
I1167
S'\tdriver.find_element_by_xpath(xml_sub_child.text).click()'
p185
sI1168
S'\treturn'
p186
sI1169
S''
sI1170
S'def isImage(driver,xml_child,xml_sub_child,a):'
p187
sI1171
S'    if isElementPresent(driver,xml_child,a):'
p188
sI1172
S'        vm_mode(xml_child,xml_sub_child,driver)'
p189
sI1173
S'    return'
p190
sI1174
S''
sI1175
S'def isTable(driver,xml_parent,xml_child,xml_sub_child):'
p191
sI1176
S'    status_list={0:"Error",1:"failed_tasks",2:"TRY AGAIN | IGNORE",3:"my_pending_vm",4:"admin_pending_attach_disk",5:"pending_install_vm",6:"pending_clone_vm",7:"pending_attach_disk",8:"pending_edit_conf",9:"host_and_vm",10:"Configure_host",11:"admin_pending_clone_vm",12:"admin_pending_install_vm" ,13:\'Configure_security\'}'
p192
ssg93
S'(driver=<selenium.webdriver.firefox.webdriver.WebDriver object>, xml_child=<Element \'test_case1\'>, xml_sub_child=<Element \'setting\'>, a="//div[@class=\'TABLE\']/table/tbody/tr/td")'
p193
sg95
S'isImage'
p194
sa(dp195
g72
S'/home/monika/Desktop/web2py/applications/testapp/models/test.py'
p196
sg74
(dp197
S'vm_name'
p198
S"'2013-12-06_18-24-29'"
p199
sS'xml_sub_child'
p200
S"<Element 'setting'>"
p201
sS'driver'
p202
S'<selenium.webdriver.firefox.webdriver.WebDriver object>'
p203
sS'xml_child'
p204
S"<Element 'test_case1'>"
p205
sS'vm_id'
p206
S'84L'
p207
sS'global vm_mode_op'
p208
S'<function vm_mode_op>'
p209
ssg80
I793
sg81
(dp210
I788
S'    for length in range(0,(row_count)):'
p211
sI789
S'        vm_id=query_result[length][1]'
p212
sI790
S'        vm_name=query_result[length][0]'
p213
sI791
S'        status=query_result[length][col_count-1]'
p214
sI792
S'        if str(status)==xml_sub_child.get("status"):'
p215
sI793
S'            vm_mode_op(xml_child,xml_sub_child,driver,vm_name,vm_id)'
p216
sI794
S'            break'
p217
sI795
S'        if (str(status)==xml_sub_child.get("other_status1")) | (str(status)==xml_sub_child.get("other_status2")):'
p218
sI796
S'            if (row_count-1)==count:'
p219
sI797
S'                logger.debug(xml_sub_child.get("print_mode"))'
p220
ssg93
S"(xml_child=<Element 'test_case1'>, xml_sub_child=<Element 'setting'>, driver=<selenium.webdriver.firefox.webdriver.WebDriver object>)"
p221
sg95
S'vm_mode'
p222
sa(dp223
g72
S'/home/monika/Desktop/web2py/applications/testapp/models/test.py'
p224
sg74
(dp225
S'vm_name'
p226
S"'2013-12-06_18-24-29'"
p227
sS'global check_snapshot'
p228
S'<function check_snapshot>'
p229
sS'xml_sub_child'
p230
S"<Element 'setting'>"
p231
sS'driver'
p232
S'<selenium.webdriver.firefox.webdriver.WebDriver object>'
p233
sS'xml_child'
p234
S"<Element 'test_case1'>"
p235
ssg80
I812
sg81
(dp236
I807
S'        graph_test_mode(xml_child,xml_sub_child,driver,vm_name,vm_id)'
p237
sI808
S'        click_on_setting(driver,xml_sub_child,xml_child,vm_name,vm_id)'
p238
sI809
S'    else:'
p239
sI810
S'        click_on_setting(driver,xml_sub_child,xml_child,vm_name,vm_id)'
p240
sI811
S'        if xml_sub_child.get("name") in {"vm_running_Setting_intgrtn","vm_running_Setting"}:'
p241
sI812
S'            check_snapshot(vm_name,driver,xml_child,xml_sub_child)'
p242
sI813
S'            check_user(driver,xml_child,xml_sub_child,vm_name)'
p243
sI814
S'            check_vm_configuration(driver,xml_child,xml_sub_child,vm_name)'
p244
sI815
S'        click_on_operation(driver,xml_sub_child,xml_child,vm_name,vm_id)'
p245
sI816
S'    return'
p246
ssg93
S"(xml_child=<Element 'test_case1'>, xml_sub_child=<Element 'setting'>, driver=<selenium.webdriver.firefox.webdriver.WebDriver object>, vm_name='2013-12-06_18-24-29', vm_id=84L)"
p247
sg95
S'vm_mode_op'
p248
sa(dp249
g72
S'/home/monika/Desktop/web2py/applications/testapp/models/test.py'
p250
sg74
(dp251
S'xml_child'
p252
S"<Element 'test_case1'>"
p253
sS'driver'
p254
S'<selenium.webdriver.firefox.webdriver.WebDriver object>'
p255
sS'global isElementPresent'
p256
S'<function isElementPresent>'
p257
sS'path'
p258
S'"//table[@id=\'vm_snaps\']/tbody/tr"'
p259
ssg80
I837
sg81
(dp260
I832
S'#Checking data in Snapshot table'
p261
sI833
S''
sI834
S'def check_snapshot(vm_name,driver,xml_child,xml_sub_child):'
p262
sI835
S'    logger.debug("Checking for entries in current snapshot table")'
p263
sI836
S'    path=xml_sub_child.get("xpath_snap")'
p264
sI837
S'    if isElementPresent(driver,xml_child,path):'
p265
sI838
S'        query_result=execute_query(xml_sub_child.get("query4"),(str(vm_name))).fetchall()'
p266
sI839
S'        total_snap=len(query_result)'
p267
sI840
S'        field=driver.find_elements_by_xpath(path)'
p268
sI841
S'        result_setting_page(field,query_result,driver,xml_child,xml_sub_child)'
p269
ssg93
S"(vm_name='2013-12-06_18-24-29', driver=<selenium.webdriver.firefox.webdriver.WebDriver object>, xml_child=<Element 'test_case1'>, xml_sub_child=<Element 'setting'>)"
p270
sg95
S'check_snapshot'
p271
sa(dp272
g72
S'/home/monika/Desktop/web2py/applications/testapp/models/test.py'
p273
sg74
(dp274
S'xpath'
p275
S'"//table[@id=\'vm_snaps\']/tbody/tr"'
p276
sS'driver.find_element_by_xpath'
p277
S'<bound method WebDriver.find_element_by_xpath of...um.webdriver.firefox.webdriver.WebDriver object>>'
p278
sS'driver'
p279
S'<selenium.webdriver.firefox.webdriver.WebDriver object>'
p280
ssg80
I334
sg81
(dp281
I329
S'###############################################################################################################'
p282
sI330
S''
sI331
S'# checking whether a table is present on the webpage'
p283
sI332
S'def isElementPresent(driver,xml_child,xpath):'
p284
sI333
S'    try:'
p285
sI334
S'        driver.find_element_by_xpath(xpath)'
p286
sI335
S'        return 1'
p287
sI336
S'    except TimeoutException:'
p288
sI337
S'        logger.debug(xml_child.get("value") +\': Result:no element exists\')'
p289
sI338
S'        return 0'
p290
ssg93
S'(driver=<selenium.webdriver.firefox.webdriver.WebDriver object>, xml_child=<Element \'test_case1\'>, xpath="//table[@id=\'vm_snaps\']/tbody/tr")'
p291
sg95
S'isElementPresent'
p292
sa(dp293
g72
S'/usr/local/lib/python2.7/dist-packages/selenium/webdriver/remote/webdriver.py'
p294
sg74
(dp295
S'xpath'
p296
S'"//table[@id=\'vm_snaps\']/tbody/tr"'
p297
sS'self.find_element'
p298
S'<bound method WebDriver.find_element of <selenium.webdriver.firefox.webdriver.WebDriver object>>'
p299
sS'self'
p300
S'<selenium.webdriver.firefox.webdriver.WebDriver object>'
p301
sS'value'
p302
g116
sS'By.XPATH'
p303
S"'xpath'"
p304
sS'global By'
p305
S"<class 'selenium.webdriver.common.by.By'>"
p306
sS'by'
p307
g116
ssg80
I222
sg81
(dp308
I224
S'    def find_elements_by_xpath(self, xpath):'
p309
sI225
S'        """'
p310
sI226
S'        Finds multiple elements by xpath.'
p311
sI217
S'         - xpath - The xpath locator of the element to find.'
p312
sI218
S''
sI219
S'        :Usage:'
p313
sI220
S"            driver.find_element_by_xpath('//div/td[1]')"
p314
sI221
S'        """'
p315
sI222
S'        return self.find_element(by=By.XPATH, value=xpath)'
p316
sI223
S''
ssg93
S'(self=<selenium.webdriver.firefox.webdriver.WebDriver object>, xpath="//table[@id=\'vm_snaps\']/tbody/tr")'
p317
sg95
S'find_element_by_xpath'
p318
sa(dp319
g72
S'/usr/local/lib/python2.7/dist-packages/selenium/webdriver/remote/webdriver.py'
p320
sg74
(dp321
S'by'
p322
S"'xpath'"
p323
sS'value'
p324
S'"//table[@id=\'vm_snaps\']/tbody/tr"'
p325
ssg80
I680
sg81
(dp326
I675
S'        """'
p327
sI676
S'        if isinstance(by, tuple) or isinstance(value, int) or value==None:'
p328
sI677
S'            raise InvalidSelectorException("Invalid locator values passed in")'
p329
sI678
S''
sI679
S'        return self.execute(Command.FIND_ELEMENT,'
p330
sI680
S"                             {'using': by, 'value': value})['value']"
p331
sI681
S''
sI682
S'    def find_elements(self, by=By.ID, value=None):'
p332
sI683
S'        """'
p333
sI684
S"        'Private' method used by the find_elements_by_* methods."
p334
ssg93
S'(self=<selenium.webdriver.firefox.webdriver.WebDriver object>, by=\'xpath\', value="//table[@id=\'vm_snaps\']/tbody/tr")'
p335
sg95
S'find_element'
p336
sa(dp337
g72
S'/usr/local/lib/python2.7/dist-packages/selenium/webdriver/remote/webdriver.py'
p338
sg74
(dp339
S'self.error_handler'
p340
S'<selenium.webdriver.remote.errorhandler.ErrorHandler object>'
p341
sS'self'
p342
S'<selenium.webdriver.firefox.webdriver.WebDriver object>'
p343
sS'self.error_handler.check_response'
p344
S'<bound method ErrorHandler.check_response of <se...bdriver.remote.errorhandler.ErrorHandler object>>'
p345
sS'response'
p346
S'{u\'name\': u\'findElement\', u\'sessionId\': u\'e08644c4-319d-436e-abda-f7511bf63e09\', u\'status\': 7, u\'value\': {u\'message\': u\'Unable to locate element: {"method":"xpath","selector":"//table[@id=\\\'vm_snaps\\\']/tbody/tr"}\', u\'stackTrace\': [{u\'fileName\': u\'file:///tmp/tmpo0ePGb/extensions/fxdriver@googlecode.com/components/driver_component.js\', u\'lineNumber\': 8444, u\'methodName\': u\'FirefoxDriver.prototype.findElementInternal_\'}, {u\'fileName\': u\'file:///tmp/tmpo0ePGb/extensions/fxdriver@googlecode.com/components/driver_component.js\', u\'lineNumber\': 386, u\'methodName\': u\'fxdriver.Timer.prototype.setTimeout/<.notify\'}]}}'
p347
ssg80
I165
sg81
(dp348
I160
S"            params['sessionId'] = self.session_id"
p349
sI161
S''
sI162
S'        params = self._wrap_value(params)'
p350
sI163
S'        response = self.command_executor.execute(driver_command, params)'
p351
sI164
S'        if response:'
p352
sI165
S'            self.error_handler.check_response(response)'
p353
sI166
S"            response['value'] = self._unwrap_value("
p354
sI167
S"                response.get('value', None))"
p355
sI168
S'            return response'
p356
sI169
S"        # If the server doesn't send a response, assume the command was"
p357
ssg93
S'(self=<selenium.webdriver.firefox.webdriver.WebDriver object>, driver_command=\'findElement\', params={\'sessionId\': u\'e08644c4-319d-436e-abda-f7511bf63e09\', \'using\': \'xpath\', \'value\': "//table[@id=\'vm_snaps\']/tbody/tr"})'
p358
sg95
S'execute'
p359
sa(dp360
g72
S'/usr/local/lib/python2.7/dist-packages/selenium/webdriver/remote/errorhandler.py'
p361
sg74
(dp362
S'exception_class'
p363
S"<class 'selenium.common.exceptions.NoSuchElementException'>"
p364
sS'message'
p365
S'u\'Unable to locate element: {"method":"xpath","selector":"//table[@id=\\\'vm_snaps\\\']/tbody/tr"}\''
p366
sS'screen'
p367
S'None'
p368
sS'stacktrace'
p369
S"[u'    at FirefoxDriver.prototype.findElementInte...glecode.com/components/driver_component.js:8444)', u'    at fxdriver.Timer.prototype.setTimeout/<.n...oglecode.com/components/driver_component.js:386)']"
p370
ssg80
I158
sg81
(dp371
I160
S'    def _value_or_default(self, obj, key, default):'
p372
sI161
S'      return obj[key] if key in obj else default'
p373
sI152
S'                    msg = msg % (meth, file)'
p374
sI153
S'                    stacktrace.append(msg)'
p375
sI154
S'            except TypeError:'
p376
sI155
S'                pass'
p377
sI156
S'        if exception_class == ErrorInResponseException:'
p378
sI157
S'            raise exception_class(response, message)'
p379
sI158
S'        raise exception_class(message, screen, stacktrace)'
p380
sI159
S''
ssg93
S'(self=<selenium.webdriver.remote.errorhandler.ErrorHandler object>, response={u\'name\': u\'findElement\', u\'sessionId\': u\'e08644c4-319d-436e-abda-f7511bf63e09\', u\'status\': 7, u\'value\': {u\'message\': u\'Unable to locate element: {"method":"xpath","selector":"//table[@id=\\\'vm_snaps\\\']/tbody/tr"}\', u\'stackTrace\': [{u\'fileName\': u\'file:///tmp/tmpo0ePGb/extensions/fxdriver@googlecode.com/components/driver_component.js\', u\'lineNumber\': 8444, u\'methodName\': u\'FirefoxDriver.prototype.findElementInternal_\'}, {u\'fileName\': u\'file:///tmp/tmpo0ePGb/extensions/fxdriver@googlecode.com/components/driver_component.js\', u\'lineNumber\': 386, u\'methodName\': u\'fxdriver.Timer.prototype.setTimeout/<.notify\'}]}})'
p381
sg95
S'check_response'
p382
sasS'pyver'
p383
S'Python 2.7.3: /usr/bin/python (prefix: /usr)'
p384
sS'session'
p385
g67
(S's\x1a\x00\x00\x00<div><table></table></div>'
tRp386
sS'etype'
p387
S"<class 'selenium.common.exceptions.NoSuchElementException'>"
p388
sS'date'
p389
S'Wed Dec 18 12:48:50 2013'
p390
sS'response'
p391
g67
(S's\xa8,\x00\x00<div><table><tr><td style="font-weight:bold;vertical-align:top">body</td><td valign="top">:</td><td><div>&lt;cStringIO.StringO object at 0x7fd4c04aded8&gt;</div></td></tr><tr><td style="font-weight:bold;vertical-align:top">cookies</td><td valign="top">:</td><td><div><table><tr><td style="font-weight:bold;vertical-align:top">session_id_testapp</td><td valign="top">:</td><td><div>127.0.0.1-e2bc8efe-7f57-45a7-b8f3-8e912a817b9c<table><tr><td style="font-weight:bold;vertical-align:top">comment</td><td valign="top">:</td><td><div></div></td></tr><tr><td style="font-weight:bold;vertical-align:top">domain</td><td valign="top">:</td><td><div></div></td></tr><tr><td style="font-weight:bold;vertical-align:top">expires</td><td valign="top">:</td><td><div></div></td></tr><tr><td style="font-weight:bold;vertical-align:top">httponly</td><td valign="top">:</td><td><div></div></td></tr><tr><td style="font-weight:bold;vertical-align:top">max-age</td><td valign="top">:</td><td><div></div></td></tr><tr><td style="font-weight:bold;vertical-align:top">path</td><td valign="top">:</td><td><div>/</div></td></tr><tr><td style="font-weight:bold;vertical-align:top">secure</td><td valign="top">:</td><td><div></div></td></tr><tr><td style="font-weight:bold;vertical-align:top">version</td><td valign="top">:</td><td><div></div></td></tr></table></div></td></tr></table></div></td></tr><tr><td style="font-weight:bold;vertical-align:top">delimiters</td><td valign="top">:</td><td><div><table><tr><td><div>{{</div></td></tr><tr><td><div>}}</div></td></tr></table></div></td></tr><tr><td style="font-weight:bold;vertical-align:top">files</td><td valign="top">:</td><td><div><table></table></div></td></tr><tr><td style="font-weight:bold;vertical-align:top">flash</td><td valign="top">:</td><td><div>Success!</div></td></tr><tr><td style="font-weight:bold;vertical-align:top">generic_patterns</td><td valign="top">:</td><td><div><table></table></div></td></tr><tr><td style="font-weight:bold;vertical-align:top">google_analytics_id</td><td valign="top">:</td><td><div>None</div></td></tr><tr><td style="font-weight:bold;vertical-align:top">headers</td><td valign="top">:</td><td><div><table><tr><td style="font-weight:bold;vertical-align:top">X-Powered-By</td><td valign="top">:</td><td><div>web2py</div></td></tr></table></div></td></tr><tr><td style="font-weight:bold;vertical-align:top">logo</td><td valign="top">:</td><td><div><a class="brand" href="http://www.web2py.com/"><b>web<span>2</span>py</b>&trade;&nbsp;</a></div></td></tr><tr><td style="font-weight:bold;vertical-align:top">menu</td><td valign="top">:</td><td><div><table><tr><td><div><table><tr><td><div>Home</div></td></tr><tr><td><div>False</div></td></tr><tr><td><div>/testapp/default/index</div></td></tr><tr><td><div><table></table></div></td></tr></table></div></td></tr><tr><td><div><table><tr><td><div><span class="highlighted">web2py</span></div></td></tr><tr><td><div>False</div></td></tr><tr><td><div>http://web2py.com</div></td></tr><tr><td><div><table><tr><td><div><table><tr><td><div>My Sites</div></td></tr><tr><td><div>False</div></td></tr><tr><td><div>/admin/default/site</div></td></tr></table></div></td></tr><tr><td><div><table><tr><td><div>This App</div></td></tr><tr><td><div>False</div></td></tr><tr><td><div>/admin/default/design/testapp</div></td></tr><tr><td><div>[(&lt;lazyT &#x27;Controller&#x27;&gt;, False, &#x27;/admin/default/edit/testapp/controllers/default.py&#x27;), (&lt;lazyT &#x27;View&#x27;&gt;, False, &#x27;/admin/default/edit/testapp/views/default/unit_testing.html&#x27;), (&lt;lazyT &#x27;Layout&#x27;&gt;, False, &#x27;/admin/default/edit/testapp/views/layout.html&#x27;), (&lt;lazyT &#x27;Stylesheet&#x27;&gt;, False, &#x27;/admin/default/edit/testapp/static/css/web2py.css&#x27;), (&lt;lazyT &#x27;DB Model&#x27;&gt;, False, &#x27;/admin/default/edit/testapp/models/db.py&#x27;), (&lt;lazyT &#x27;Menu Model&#x27;&gt;, False, &#x27;/admin/default/edit/testapp/models/menu.py&#x27;), (&lt;lazyT &#x27;Database&#x27;&gt;, False, &#x27;/testapp/appadmin/index&#x27;), (&lt;lazyT &#x27;Errors&#x27;&gt;, False, &#x27;/admin/default/errors/testapp&#x27;), (&lt;lazyT &#x27;About&#x27;&gt;, False, &#x27;/admin/default/about/testapp&#x27;)]</div></td></tr></table></div></td></tr><tr><td><div><table><tr><td><div>web2py.com</div></td></tr><tr><td><div>False</div></td></tr><tr><td><div>http://www.web2py.com</div></td></tr><tr><td><div>[(&lt;lazyT &#x27;Download&#x27;&gt;, False, &#x27;http://www.web2py.com/examples/default/download&#x27;), (&lt;lazyT &#x27;Support&#x27;&gt;, False, &#x27;http://www.web2py.com/examples/default/support&#x27;), (&lt;lazyT &#x27;Demo&#x27;&gt;, False, &#x27;http://web2py.com/demo_admin&#x27;), (&lt;lazyT &#x27;Quick Examples&#x27;&gt;, False, &#x27;http://web2py.com/examples/default/examples&#x27;), (&lt;lazyT &#x27;FAQ&#x27;&gt;, False, &#x27;http://web2py.com/AlterEgo&#x27;), (&lt;lazyT &#x27;Videos&#x27;&gt;, False, &#x27;http://www.web2py.com/examples/default/videos/&#x27;), (&lt;lazyT &#x27;Free Applications&#x27;&gt;, False, &#x27;http://web2py.com/appliances&#x27;), (&lt;lazyT &#x27;Plugins&#x27;&gt;, False, &#x27;http://web2py.com/plugins&#x27;), (&lt;lazyT &#x27;Layouts&#x27;&gt;, False, &#x27;http://web2py.com/layouts&#x27;), (&lt;lazyT &#x27;Recipes&#x27;&gt;, False, &#x27;http://web2pyslices.com/&#x27;), (&lt;lazyT &#x27;Semantic&#x27;&gt;, False, &#x27;http://web2py.com/semantic&#x27;)]</div></td></tr></table></div></td></tr><tr><td><div><table><tr><td><div>Documentation</div></td></tr><tr><td><div>False</div></td></tr><tr><td><div>http://www.web2py.com/book</div></td></tr><tr><td><div>[(&lt;lazyT &#x27;Preface&#x27;&gt;, False, &#x27;http://www.web2py.com/book/default/chapter/00&#x27;), (&lt;lazyT &#x27;Introduction&#x27;&gt;, False, &#x27;http://www.web2py.com/book/default/chapter/01&#x27;), (&lt;lazyT &#x27;Python&#x27;&gt;, False, &#x27;http://www.web2py.com/book/default/chapter/02&#x27;), (&lt;lazyT &#x27;Overview&#x27;&gt;, False, &#x27;http://www.web2py.com/book/default/chapter/03&#x27;), (&lt;lazyT &#x27;The Core&#x27;&gt;, False, &#x27;http://www.web2py.com/book/default/chapter/04&#x27;), (&lt;lazyT &#x27;The Views&#x27;&gt;, False, &#x27;http://www.web2py.com/book/default/chapter/05&#x27;), (&lt;lazyT &#x27;Database&#x27;&gt;, False, &#x27;http://www.web2py.com/book/default/chapter/06&#x27;), (&lt;lazyT &#x27;Forms and Validators&#x27;&gt;, False, &#x27;http://www.web2py.com/book/default/chapter/07&#x27;), (&lt;lazyT &#x27;Email and SMS&#x27;&gt;, False, &#x27;http://www.web2py.com/book/default/chapter/08&#x27;), (&lt;lazyT &#x27;Access Control&#x27;&gt;, False, &#x27;http://www.web2py.com/book/default/chapter/09&#x27;), (&lt;lazyT &#x27;Services&#x27;&gt;, False, &#x27;http://www.web2py.com/book/default/chapter/10&#x27;), (&lt;lazyT &#x27;Ajax Recipes&#x27;&gt;, False, &#x27;http://www.web2py.com/book/default/chapter/11&#x27;), (&lt;lazyT &#x27;Components and Plugins&#x27;&gt;, False, &#x27;http://www.web2py.com/book/default/chapter/12&#x27;), (&lt;lazyT &#x27;Deployment Recipes&#x27;&gt;, False, &#x27;http://www.web2py.com/book/default/chapter/13&#x27;), (&lt;lazyT &#x27;Other Recipes&#x27;&gt;, False, &#x27;http://www.web2py.com/book/default/chapter/14&#x27;), (&lt;lazyT &#x27;Buy this book&#x27;&gt;, False, &#x27;http://stores.lulu.com/web2py&#x27;)]</div></td></tr></table></div></td></tr><tr><td><div><table><tr><td><div>Community</div></td></tr><tr><td><div>False</div></td></tr><tr><td><div>None</div></td></tr><tr><td><div>[(&lt;lazyT &#x27;Groups&#x27;&gt;, False, &#x27;http://www.web2py.com/examples/default/usergroups&#x27;), (&lt;lazyT &#x27;Twitter&#x27;&gt;, False, &#x27;http://twitter.com/web2py&#x27;), (&lt;lazyT &#x27;Live Chat&#x27;&gt;, False, &#x27;http://webchat.freenode.net/?channels=web2py&#x27;)]</div></td></tr></table></div></td></tr><tr><td><div><table><tr><td><div>Plugins</div></td></tr><tr><td><div>False</div></td></tr><tr><td><div>None</div></td></tr><tr><td><div>[(&#x27;plugin_wiki&#x27;, False, &#x27;http://web2py.com/examples/default/download&#x27;), (&lt;lazyT &#x27;Other Plugins&#x27;&gt;, False, &#x27;http://web2py.com/plugins&#x27;), (&lt;lazyT &#x27;Layout Plugins&#x27;&gt;, False, &#x27;http://web2py.com/layouts&#x27;)]</div></td></tr></table></div></td></tr></table></div></td></tr></table></div></td></tr></table></div></td></tr><tr><td style="font-weight:bold;vertical-align:top">meta</td><td valign="top">:</td><td><div><table><tr><td style="font-weight:bold;vertical-align:top">author</td><td valign="top">:</td><td><div>Your Name &lt;you@example.com&gt;</div></td></tr><tr><td style="font-weight:bold;vertical-align:top">description</td><td valign="top">:</td><td><div>a cool new app</div></td></tr><tr><td style="font-weight:bold;vertical-align:top">generator</td><td valign="top">:</td><td><div>Web2py Web Framework</div></td></tr><tr><td style="font-weight:bold;vertical-align:top">keywords</td><td valign="top">:</td><td><div>web2py, python, framework</div></td></tr></table></div></td></tr><tr><td style="font-weight:bold;vertical-align:top">models_to_run</td><td valign="top">:</td><td><div><table><tr><td><div>^\\w+\\.py$</div></td></tr><tr><td><div>^default/\\w+\\.py$</div></td></tr><tr><td><div>^default/unit_testing/\\w+\\.py$</div></td></tr></table></div></td></tr><tr><td style="font-weight:bold;vertical-align:top">postprocessing</td><td valign="top">:</td><td><div><table></table></div></td></tr><tr><td style="font-weight:bold;vertical-align:top">session_cookie_expires</td><td valign="top">:</td><td><div>None</div></td></tr><tr><td style="font-weight:bold;vertical-align:top">session_data_name</td><td valign="top">:</td><td><div>session_data_testapp</div></td></tr><tr><td style="font-weight:bold;vertical-align:top">session_file</td><td valign="top">:</td><td><div>&lt;open file &#x27;/home/monika/Desktop/web2py/applications/testapp/sessions/127.0.0.1-e2bc8efe-7f57-45a7-b8f3-8e912a817b9c&#x27;, mode &#x27;rb+&#x27; at 0x7fd4cc431150&gt;</div></td></tr><tr><td style="font-weight:bold;vertical-align:top">session_filename</td><td valign="top">:</td><td><div>/home/monika/Desktop/web2py/applications/testapp/sessions/127.0.0.1-e2bc8efe-7f57-45a7-b8f3-8e912a817b9c</div></td></tr><tr><td style="font-weight:bold;vertical-align:top">session_id</td><td valign="top">:</td><td><div>127.0.0.1-e2bc8efe-7f57-45a7-b8f3-8e912a817b9c</div></td></tr><tr><td style="font-weight:bold;vertical-align:top">session_id_name</td><td valign="top">:</td><td><div>session_id_testapp</div></td></tr><tr><td style="font-weight:bold;vertical-align:top">session_locked</td><td valign="top">:</td><td><div>True</div></td></tr><tr><td style="font-weight:bold;vertical-align:top">session_new</td><td valign="top">:</td><td><div>False</div></td></tr><tr><td style="font-weight:bold;vertical-align:top">session_storage_type</td><td valign="top">:</td><td><div>file</div></td></tr><tr><td style="font-weight:bold;vertical-align:top">status</td><td valign="top">:</td><td><div>200</div></td></tr><tr><td style="font-weight:bold;vertical-align:top">subtitle</td><td valign="top">:</td><td><div>customize me!</div></td></tr><tr><td style="font-weight:bold;vertical-align:top">title</td><td valign="top">:</td><td><div>Testapp</div></td></tr><tr><td style="font-weight:bold;vertical-align:top">view</td><td valign="top">:</td><td><div>default/unit_testing.html</div></td></tr></table></div>'
tRp392
sS'locals'
p393
(dp394
S'status'
p395
S'7'
sg12
S"[u'    at FirefoxDriver.prototype.findElementInte...glecode.com/components/driver_component.js:8444)', u'    at fxdriver.Timer.prototype.setTimeout/<.n...oglecode.com/components/driver_component.js:386)']"
p396
sS'frame'
p397
S"{u'fileName': u'file:///tmp/tmpo0ePGb/extensions/fxdriver@googlecode.com/components/driver_component.js', u'lineNumber': 386, u'methodName': u'fxdriver.Timer.prototype.setTimeout/<.notify'}"
p398
sS'line'
p399
S'386'
p400
sS'value'
p401
S'{u\'message\': u\'Unable to locate element: {"method":"xpath","selector":"//table[@id=\\\'vm_snaps\\\']/tbody/tr"}\', u\'stackTrace\': [{u\'fileName\': u\'file:///tmp/tmpo0ePGb/extensions/fxdriver@googlecode.com/components/driver_component.js\', u\'lineNumber\': 8444, u\'methodName\': u\'FirefoxDriver.prototype.findElementInternal_\'}, {u\'fileName\': u\'file:///tmp/tmpo0ePGb/extensions/fxdriver@googlecode.com/components/driver_component.js\', u\'lineNumber\': 386, u\'methodName\': u\'fxdriver.Timer.prototype.setTimeout/<.notify\'}]}'
p402
sS'self'
p403
S'<selenium.webdriver.remote.errorhandler.ErrorHandler object>'
p404
sS'exception_class'
p405
S"<class 'selenium.common.exceptions.NoSuchElementException'>"
p406
sg72
S"u'file:///tmp/tmpo0ePGb/extensions/fxdriver@googlecode.com/components/driver_component.js:386'"
p407
sg391
S'{u\'name\': u\'findElement\', u\'sessionId\': u\'e08644c4-319d-436e-abda-f7511bf63e09\', u\'status\': 7, u\'value\': {u\'message\': u\'Unable to locate element: {"method":"xpath","selector":"//table[@id=\\\'vm_snaps\\\']/tbody/tr"}\', u\'stackTrace\': [{u\'fileName\': u\'file:///tmp/tmpo0ePGb/extensions/fxdriver@googlecode.com/components/driver_component.js\', u\'lineNumber\': 8444, u\'methodName\': u\'FirefoxDriver.prototype.findElementInternal_\'}, {u\'fileName\': u\'file:///tmp/tmpo0ePGb/extensions/fxdriver@googlecode.com/components/driver_component.js\', u\'lineNumber\': 386, u\'methodName\': u\'fxdriver.Timer.prototype.setTimeout/<.notify\'}]}}'
p408
sg40
S"u'    at fxdriver.Timer.prototype.setTimeout/<.n...oglecode.com/components/driver_component.js:386)'"
p409
sS'meth'
p410
S"u'fxdriver.Timer.prototype.setTimeout/<.notify'"
p411
sg50
S'None'
p412
sS'message'
p413
S'u\'Unable to locate element: {"method":"xpath","selector":"//table[@id=\\\'vm_snaps\\\']/tbody/tr"}\''
p414
sssS'traceback'
p415
S'Traceback (most recent call last):\n  File "/home/monika/Desktop/web2py/gluon/restricted.py", line 212, in restricted\n    exec ccode in environment\n  File "/home/monika/Desktop/web2py/applications/testapp/controllers/default.py", line 345, in <module>\n  File "/home/monika/Desktop/web2py/gluon/globals.py", line 194, in <lambda>\n    self._caller = lambda f: f()\n  File "/home/monika/Desktop/web2py/applications/testapp/controllers/default.py", line 152, in unit_testing\n    test_script(test_case_no)\n  File "/home/monika/Desktop/web2py/applications/testapp/models/test.py", line 230, in test_script\n    vm_name2=isImage(driver,xml_child,xml_sub_child,table_path)\n  File "/home/monika/Desktop/web2py/applications/testapp/models/test.py", line 1172, in isImage\n    vm_mode(xml_child,xml_sub_child,driver)\n  File "/home/monika/Desktop/web2py/applications/testapp/models/test.py", line 793, in vm_mode\n    vm_mode_op(xml_child,xml_sub_child,driver,vm_name,vm_id)\n  File "/home/monika/Desktop/web2py/applications/testapp/models/test.py", line 812, in vm_mode_op\n    check_snapshot(vm_name,driver,xml_child,xml_sub_child)\n  File "/home/monika/Desktop/web2py/applications/testapp/models/test.py", line 837, in check_snapshot\n    if isElementPresent(driver,xml_child,path):\n  File "/home/monika/Desktop/web2py/applications/testapp/models/test.py", line 334, in isElementPresent\n    driver.find_element_by_xpath(xpath)\n  File "/usr/local/lib/python2.7/dist-packages/selenium/webdriver/remote/webdriver.py", line 222, in find_element_by_xpath\n    return self.find_element(by=By.XPATH, value=xpath)\n  File "/usr/local/lib/python2.7/dist-packages/selenium/webdriver/remote/webdriver.py", line 680, in find_element\n    {\'using\': by, \'value\': value})[\'value\']\n  File "/usr/local/lib/python2.7/dist-packages/selenium/webdriver/remote/webdriver.py", line 165, in execute\n    self.error_handler.check_response(response)\n  File "/usr/local/lib/python2.7/dist-packages/selenium/webdriver/remote/errorhandler.py", line 158, in check_response\n    raise exception_class(message, screen, stacktrace)\nNoSuchElementException: Message: u\'Unable to locate element: {"method":"xpath","selector":"//table[@id=\\\'vm_snaps\\\']/tbody/tr"}\' ; Stacktrace: \n    at FirefoxDriver.prototype.findElementInternal_ (file:///tmp/tmpo0ePGb/extensions/fxdriver@googlecode.com/components/driver_component.js:8444)\n    at fxdriver.Timer.prototype.setTimeout/<.notify (file:///tmp/tmpo0ePGb/extensions/fxdriver@googlecode.com/components/driver_component.js:386) \n'
p416
s.