(dp1
S'output'
p2
S"<class 'urllib2.URLError'> <urlopen error [Errno 111] Connection refused>"
p3
sS'layer'
p4
S'/home/baadalvm/Desktop/web2py/applications/testapp/controllers/default.py'
p5
sS'code'
p6
S'# -*- coding: utf-8 -*-\n# this file is released under public domain and you can use without limitations\n\n#########################################################################\n## This is a sample controller\n## - index is the default action of any application\n## - user is required for authentication and authorization\n## - download is for downloading files uploaded in the db (does streaming)\n## - call exposes all registered services (none by default)\n#########################################################################\ndef user():\n    """\n    exposes:\n    http://..../[app]/default/user/login\n    http://..../[app]/default/user/logout\n    http://..../[app]/default/user/register\n    http://..../[app]/default/user/profile\n    http://..../[app]/default/user/retrieve_password\n    http://..../[app]/default/user/change_password\n    http://..../[app]/default/user/manage_users (requires membership in \n    use @auth.requires_login()\n        @auth.requires_membership(\'group name\')\n        @auth.requires_permission(\'read\',\'table name\',record_id)\n    to decorate functions that need access control\n    """\n    return dict(form=auth())\n\n#@cache.action()\ndef download():\n    """\n    allows downloading of uploaded files\n    http://..../[app]/default/download/[filename]\n    """\n    return response.download(request, db)\n\n\ndef call():\n    """\n    exposes services. for example:\n    http://..../[app]/default/call/jsonrpc\n    decorate with @services.jsonrpc the functions to expose\n    supports xml, json, xmlrpc, jsonrpc, amfrpc, rss, csv\n    """\n    return service()\n\n\n@auth.requires_signature()\ndef data():\n    """\n    http://..../[app]/default/data/tables\n    http://..../[app]/default/data/create/[table]\n    http://..../[app]/default/data/read/[table]/[id]\n    http://..../[app]/default/data/update/[table]/[id]\n    http://..../[app]/default/data/delete/[table]/[id]\n    http://..../[app]/default/data/select/[table]\n    http://..../[app]/default/data/search/[table]\n    but URLs must be signed, i.e. linked with\n      A(\'table\',_href=URL(\'data/tables\',user_signature=True))\n    or with the signed load operator\n      LOAD(\'default\',\'data.load\',args=\'tables\',ajax=True,user_signature=True)\n    """\n    return dict(form=crud())\n    \n    \n    \ndef unit_testing():\n    import commands\n    form = FORM(  TABLE\n         ( \n            TR(INPUT(_name=\'testcase1\', _type=\'checkbox\', _value="1"),\'Login\'),\n            TR(INPUT(_name=\'testcase2\', _type=\'checkbox\', _value="2"),\'Request VM\'),\n            TR(INPUT(_name=\'testcase3\', _type=\'checkbox\', _value="3"),\'My Pending VMs\'),\n            TR(INPUT(_name=\'testcase46\', _type=\'checkbox\', _value="46"),\'My VMs\'),\n            TR(INPUT(_name=\'testcase4\', _type=\'checkbox\', _value="4"),\'My Pending Tasks\'),\n            TR(INPUT(_name=\'testcase5\', _type=\'checkbox\', _value="5"),\'My Completed Tasks\'),\n            TR(INPUT(_name=\'testcase6\', _type=\'checkbox\', _value="6"),\'My Failed Taskss\'),\n            TR(INPUT(_name=\'testcase7\', _type=\'checkbox\', _value="7"),\'Pending Faculty-Level VM Approvals\'),\n            TR(INPUT(_name=\'testcase8\', _type=\'checkbox\', _value="8"),\'Pending Org-Level VM Approvals\'),\n           TR(INPUT(_name=\'testcase9\', _type=\'checkbox\', _value="9"),\'List All Org-Level VMs\',),\n           TR(INPUT(_name=\'testcase10\', _type=\'checkbox\', _value="10"),\'All VMs\'),\n           TR(INPUT(_name=\'testcase11\', _type=\'checkbox\', _value="11"),\'Host and VMs\',),\n           TR(INPUT(_name=\'testcase12\', _type=\'checkbox\', _value="12"),\'Pending Tasks\'),\n           TR(INPUT(_name=\'testcase13\', _type=\'checkbox\', _value="13"),\'Completed Tasks\'),\n           TR(INPUT(_name=\'testcase14\', _type=\'checkbox\', _value="14"),\'Failed Tasks\'),\n           TR(INPUT(_name=\'testcase15\', _type=\'checkbox\', _value="15"),\'Configure System: Add Host\'),\n           TR(INPUT(_name=\'testcase16\', _type=\'checkbox\', _value="16"),\'Configure System: Add Template\'),\n           TR(INPUT(_name=\'testcase17\', _type=\'checkbox\', _value="17"),\'Configure System: Add Datastore\'),\n           TR(INPUT(_name=\'testcase18\', _type=\'checkbox\', _value="18"),\'Take VM snapshot    (Running )\'),\n           \n           TR(INPUT(_name=\'testcase19\', _type=\'checkbox\', _value="19"),\'Check VM performance   (Running )\'),\n           TR(INPUT(_name=\'testcase20\', _type=\'checkbox\', _value="20"),\'Pause VM    (Running )\'),\n           \n           TR(INPUT(_name=\'testcase21\', _type=\'checkbox\', _value="21"),\'Add User to VM   (Running )\'),\n           \n           TR(INPUT(_name=\'testcase22\', _type=\'checkbox\', _value="22"),\'Delete VM    (Running)\'),\n           TR(INPUT(_name=\'testcase23\', _type=\'checkbox\', _value="23"),\'Gracefully shut down VM    (Running )\'),\n           TR(INPUT(_name=\'testcase24\', _type=\'checkbox\', _value="24"),\'Forcefully power off VM   (Running )\'),\n            TR(INPUT(_name=\'testcase25\', _type=\'checkbox\', _value="25"),\'Attach Extra Disk to VM   (Running )\'),\n          \n           TR(INPUT(_name=\'testcase26\', _type=\'checkbox\', _value="26"),\'Take VM snapshot   (Paused )\'),\n           TR(INPUT(_name=\'testcase27\', _type=\'checkbox\', _value="27"),\'Check VM performance   (Paused )\'),\n           TR(INPUT(_name=\'testcase28\', _type=\'checkbox\', _value="28"),\'Unpause VM   (Paused )\'),\n           TR(INPUT(_name=\'testcase29\', _type=\'checkbox\', _value="29"),\'Add User to VM  (Paused )\'),\n           TR(INPUT(_name=\'testcase30\', _type=\'checkbox\', _value="30"),\'Delete VM   (Paused )\'),\n           TR(INPUT(_name=\'testcase31\', _type=\'checkbox\', _value="31"),\'Adjust VM Resources Utilization   (Paused )\'),\n           TR(INPUT(_name=\'testcase32\', _type=\'checkbox\', _value="32"),\'Forcefully power off VM   (Paused)\'),\n           TR(INPUT(_name=\'testcase33\', _type=\'checkbox\', _value="33"),\'Delete Addtional User   (Paused )\'), \n           TR(INPUT(_name=\'testcase49\', _type=\'checkbox\', _value="49"),\'Revert Snapshot    (Paused )\'),\n           TR(INPUT(_name=\'testcase42\', _type=\'checkbox\', _value="42"),\'Delete Snapshot    (Paused )\'),\n           TR(INPUT(_name=\'testcase34\', _type=\'checkbox\', _value="34"),\'Check VM performance   (Shutdown )\'),\n           TR(INPUT(_name=\'testcase35\', _type=\'checkbox\', _value="35"),\'Turn on VM   (Shutdown )\'),\n           TR(INPUT(_name=\'testcase36\', _type=\'checkbox\', _value="36"),\'Add User to VM  (Shutdown)\'),\n           TR(INPUT(_name=\'testcase37\', _type=\'checkbox\', _value="37"),\'Delete VM   (Shutdown )\'),\n           TR(INPUT(_name=\'testcase38\', _type=\'checkbox\', _value="38"),\'Attach Extra Disk  (Shutdown )\'),\n           TR(INPUT(_name=\'testcase39\', _type=\'checkbox\', _value="39"),\'Request Clone VM   (Shutdown )\'),\n            TR(INPUT(_name=\'testcase40\', _type=\'checkbox\', _value="40"),\'Edit VM Config   (Shutdown )\'),\n           TR(INPUT(_name=\'testcase41\', _type=\'checkbox\', _value="41"),\'Assign VNC   (Shutdown )\'),\n           \n           TR(INPUT(_name=\'testcase43\', _type=\'checkbox\', _value="43"),\'Take VM snapshot   (Shutdown )\'),\n\n            TR(INPUT(_name=\'testcase44\', _type=\'checkbox\', _value="44"),\'Configure System: Host Setting\'),\n           TR(INPUT(_name=\'testcase45\', _type=\'checkbox\', _value="45"),\'Configure System: Host table\'),  \n           TR(INPUT(_name=\'testcase47\', _type=\'checkbox\', _value="47"),\'Approve VM\'),\n           TR(INPUT(_name=\'testcase48\', _type=\'checkbox\', _value="48"),\'Reject VM\'),\n           \n           BR(),\n           TR(INPUT(_type=\'submit\',_value=\'submit\'))\n          )\n      )\n    if form.process().accepted:\n        for i in range(1,51):\n            test_case_no=request.vars[\'testcase\'+str(i)]\n            if test_case_no!=None:\n                test_script(test_case_no)\n    elif form.errors:\n        response.flash = \'form has errors\'\n    else:\n        response.flash = \'please fill the form\'\n    return dict(form=form)\n    \n\ndef index():\n    try:\n        import commands\n        form = FORM( TABLE\n                  (  TR(INPUT(_name=\'testcase1\', _type=\'radio\', _value="1"),\'Unit Testing\'),\n                     TR(INPUT(_name=\'testcase2\', _type=\'radio\', _value="2"),\'Integration Testing\'),\n                     TR(INPUT(_name=\'testcase3\', _type=\'radio\', _value="3"),\'Stress Testing\'),\n                     BR(),\n                     TR(INPUT(_type=\'submit\',_value=\'submit\'))\n                  )\n                )        \n        if form.process().accepted:\n            if request.vars[\'testcase1\']!=None:\n                redirect(URL(\'unit_testing\'))\n            if request.vars[\'testcase2\']!=None:\n                redirect(URL(\'integration_testing\')) \n            if request.vars[\'testcase3\']!=None:\n                redirect(URL(\'stress_testing\'))          \n        elif form.errors:\n            response.flash = \'form has errors\'\n        else:\n            response.flash = \'please fill the form\'\n        return dict(form=form)\n    except Exception as e:\n        print e\n\n\ndef stress_testing(): \n\n    import commands\n    form = FORM(  TABLE\n        (   TR(INPUT(_name=\'testcase0\', _type=\'checkbox\', _value="0"),\'All\'), \n            BR(),\n            TR(INPUT(_type=\'submit\',_value=\'submit\'))\n        )\n        )\n              \n    if form.process().accepted:\n        test_case_no=request.vars[\'testcase0\']\n        if test_case_no!=None:\n            stress_test_script()\n    elif form.errors:\n        response.flash = \'form has errors\'\n    else:\n        response.flash = \'please fill the form\'\n    return dict(form=form)\n    \n   \ndef integration_testing(): \n    try:\n        import commands\n        form = FORM(  TABLE\n                  (   \n                      TR(INPUT(_name=\'testcase31\', _type=\'checkbox\', _value="31"),\'Faculty Request VM(Approved by org-admin)\'),\n                      TR(INPUT(_name=\'testcase32\', _type=\'checkbox\', _value="32"),\'Faculty Request VM(Rejected by org-admin)\'),\n                      TR(INPUT(_name=\'testcase33\', _type=\'checkbox\', _value="33"),\'Admin Request VM(Approved by org-admin)\'),\n                      TR(INPUT(_name=\'testcase34\', _type=\'checkbox\', _value="34"),\'Admin Request VM(Rejected by org-admin)\'),\n                      TR(INPUT(_name=\'testcase35\', _type=\'checkbox\', _value="35"),\'User Request VM(Approved by Faculty and org-admin)\'),\n                      TR(INPUT(_name=\'testcase36\', _type=\'checkbox\', _value="36"),\'User Request VM(Rejected by Faculty)\'),\n                      TR(INPUT(_name=\'testcase37\', _type=\'checkbox\', _value="37"),\'User Request VM(Approved by Faculty and Rejected by org-admin)\'),\n                      TR(INPUT(_name=\'testcase38\', _type=\'checkbox\', _value="38"),\'Configure Host\'),\n                      TR(INPUT(_name=\'testcase39\', _type=\'checkbox\', _value="39"),\'Configure Template\'),\n                      TR(INPUT(_name=\'testcase40\', _type=\'checkbox\', _value="40"),\'Configure Datastore\'),\n                      \n                      BR(),\n                      TR(INPUT(_type=\'submit\',_value=\'submit\'))\n                  )\n              )\n              \n        if form.process().accepted:\n            for i in xrange(31,41):\n                test_case_no=request.vars[\'testcase\'+str(i)]\n                if test_case_no!=None:\n                    test_script(test_case_no)\n        elif form.errors:\n            response.flash = \'form has errors\'\n        else:\n            response.flash = \'please fill the form\'\n        return dict(form=form)\n    except Exception as e:\n        print e\n\nresponse._vars=response._caller(unit_testing)\n'
p7
sS'snapshot'
p8
(dp9
S'exception'
p10
(dp11
S'__module__'
p12
S"'urllib2'"
p13
sS'__getslice__'
p14
S"<method-wrapper '__getslice__' of URLError object>"
p15
sS'__str__'
p16
S"<bound method URLError.__str__ of URLError(error(111, 'Connection refused'),)>"
p17
sS'__reduce__'
p18
S'<built-in method __reduce__ of URLError object>'
p19
sS'__dict__'
p20
S"{'reason': error(111, 'Connection refused')}"
p21
sS'__sizeof__'
p22
S'<built-in method __sizeof__ of URLError object>'
p23
sS'__weakref__'
p24
S'None'
p25
sS'__init__'
p26
S"<bound method URLError.__init__ of URLError(error(111, 'Connection refused'),)>"
p27
sS'__setattr__'
p28
S"<method-wrapper '__setattr__' of URLError object>"
p29
sS'__reduce_ex__'
p30
S'<built-in method __reduce_ex__ of URLError object>'
p31
sS'__new__'
p32
S'<built-in method __new__ of type object>'
p33
sS'errno'
p34
S'None'
p35
sS'__format__'
p36
S'<built-in method __format__ of URLError object>'
p37
sS'__class__'
p38
S"<class 'urllib2.URLError'>"
p39
sS'filename'
p40
S'None'
p41
sS'__doc__'
p42
S'None'
p43
sS'__getitem__'
p44
S"<method-wrapper '__getitem__' of URLError object>"
p45
sS'__setstate__'
p46
S'<built-in method __setstate__ of URLError object>'
p47
sS'__getattribute__'
p48
S"<method-wrapper '__getattribute__' of URLError object>"
p49
sS'args'
p50
S"(error(111, 'Connection refused'),)"
p51
sS'reason'
p52
S"error(111, 'Connection refused')"
p53
sS'__subclasshook__'
p54
S'<built-in method __subclasshook__ of type object>'
p55
sS'__unicode__'
p56
S'<built-in method __unicode__ of URLError object>'
p57
sS'strerror'
p58
S'None'
p59
sS'__delattr__'
p60
S"<method-wrapper '__delattr__' of URLError object>"
p61
sS'__repr__'
p62
S"<method-wrapper '__repr__' of URLError object>"
p63
sS'__hash__'
p64
S"<method-wrapper '__hash__' of URLError object>"
p65
ssS'evalue'
p66
S'<urlopen error [Errno 111] Connection refused>'
p67
sS'request'
p68
cgluon.html
XML_unpickle
p69
(S's\x83Z\x00\x00<div><table><tr><td style="font-weight:bold;vertical-align:top">ajax</td><td valign="top">:</td><td><div>False</div></td></tr><tr><td style="font-weight:bold;vertical-align:top">application</td><td valign="top">:</td><td><div>testapp</div></td></tr><tr><td style="font-weight:bold;vertical-align:top">args</td><td valign="top">:</td><td><div><table></table></div></td></tr><tr><td style="font-weight:bold;vertical-align:top">body</td><td valign="top">:</td><td><div>&lt;open file &#x27;&lt;fdopen&gt;&#x27;, mode &#x27;w+b&#x27; at 0x7f9a4453d540&gt;</div></td></tr><tr><td style="font-weight:bold;vertical-align:top">cid</td><td valign="top">:</td><td><div>None</div></td></tr><tr><td style="font-weight:bold;vertical-align:top">client</td><td valign="top">:</td><td><div>127.0.0.1</div></td></tr><tr><td style="font-weight:bold;vertical-align:top">controller</td><td valign="top">:</td><td><div>default</div></td></tr><tr><td style="font-weight:bold;vertical-align:top">cookies</td><td valign="top">:</td><td><div><table><tr><td style="font-weight:bold;vertical-align:top">session_id_admin</td><td valign="top">:</td><td><div>127.0.0.1-50613ddc-e5f5-44f0-86b9-afb5edd992de<table><tr><td style="font-weight:bold;vertical-align:top">comment</td><td valign="top">:</td><td><div></div></td></tr><tr><td style="font-weight:bold;vertical-align:top">domain</td><td valign="top">:</td><td><div></div></td></tr><tr><td style="font-weight:bold;vertical-align:top">expires</td><td valign="top">:</td><td><div></div></td></tr><tr><td style="font-weight:bold;vertical-align:top">httponly</td><td valign="top">:</td><td><div></div></td></tr><tr><td style="font-weight:bold;vertical-align:top">max-age</td><td valign="top">:</td><td><div></div></td></tr><tr><td style="font-weight:bold;vertical-align:top">path</td><td valign="top">:</td><td><div></div></td></tr><tr><td style="font-weight:bold;vertical-align:top">secure</td><td valign="top">:</td><td><div></div></td></tr><tr><td style="font-weight:bold;vertical-align:top">version</td><td valign="top">:</td><td><div></div></td></tr></table></div></td></tr><tr><td style="font-weight:bold;vertical-align:top">session_id_testapp</td><td valign="top">:</td><td><div>127.0.0.1-6a3d0021-f0d7-44c0-9410-74aa38cd4103<table><tr><td style="font-weight:bold;vertical-align:top">comment</td><td valign="top">:</td><td><div></div></td></tr><tr><td style="font-weight:bold;vertical-align:top">domain</td><td valign="top">:</td><td><div></div></td></tr><tr><td style="font-weight:bold;vertical-align:top">expires</td><td valign="top">:</td><td><div></div></td></tr><tr><td style="font-weight:bold;vertical-align:top">httponly</td><td valign="top">:</td><td><div></div></td></tr><tr><td style="font-weight:bold;vertical-align:top">max-age</td><td valign="top">:</td><td><div></div></td></tr><tr><td style="font-weight:bold;vertical-align:top">path</td><td valign="top">:</td><td><div></div></td></tr><tr><td style="font-weight:bold;vertical-align:top">secure</td><td valign="top">:</td><td><div></div></td></tr><tr><td style="font-weight:bold;vertical-align:top">version</td><td valign="top">:</td><td><div></div></td></tr></table></div></td></tr><tr><td style="font-weight:bold;vertical-align:top">session_id_welcome</td><td valign="top">:</td><td><div>127.0.0.1-fb808cd6-8028-4624-97c8-28288a8c6be2<table><tr><td style="font-weight:bold;vertical-align:top">comment</td><td valign="top">:</td><td><div></div></td></tr><tr><td style="font-weight:bold;vertical-align:top">domain</td><td valign="top">:</td><td><div></div></td></tr><tr><td style="font-weight:bold;vertical-align:top">expires</td><td valign="top">:</td><td><div></div></td></tr><tr><td style="font-weight:bold;vertical-align:top">httponly</td><td valign="top">:</td><td><div></div></td></tr><tr><td style="font-weight:bold;vertical-align:top">max-age</td><td valign="top">:</td><td><div></div></td></tr><tr><td style="font-weight:bold;vertical-align:top">path</td><td valign="top">:</td><td><div></div></td></tr><tr><td style="font-weight:bold;vertical-align:top">secure</td><td valign="top">:</td><td><div></div></td></tr><tr><td style="font-weight:bold;vertical-align:top">version</td><td valign="top">:</td><td><div></div></td></tr></table></div></td></tr></table></div></td></tr><tr><td style="font-weight:bold;vertical-align:top">env</td><td valign="top">:</td><td><div><table><tr><td style="font-weight:bold;vertical-align:top">app_folders</td><td valign="top">:</td><td><div>set([&#x27;/home/baadalvm/Desktop/web2py/applications/testapp/&#x27;, &#x27;/home/baadalvm/Desktop/web2py/applications/admin/&#x27;, &#x27;/home/baadalvm/Desktop/web2py/applications/welcome/&#x27;])</div></td></tr><tr><td style="font-weight:bold;vertical-align:top">applications_parent</td><td valign="top">:</td><td><div>/home/baadalvm/Desktop/web2py</div></td></tr><tr><td style="font-weight:bold;vertical-align:top">cmd_args</td><td valign="top">:</td><td><div><table></table></div></td></tr><tr><td style="font-weight:bold;vertical-align:top">cmd_options</td><td valign="top">:</td><td><div>&lt;Values at 0x2c47998: {&#x27;verbose&#x27;: False, &#x27;ip&#x27;: &#x27;127.0.0.1&#x27;, &#x27;with_scheduler&#x27;: False, &#x27;ips&#x27;: [&#x27;127.0.1.1&#x27;], &#x27;shutdown_timeout&#x27;: 5, &#x27;taskbar&#x27;: False, &#x27;with_coverage&#x27;: False, &#x27;port&#x27;: 8000, &#x27;maxthreads&#x27;: None, &#x27;softcron&#x27;: False, &#x27;server_name&#x27;: &#x27;baadalvm&#x27;, &#x27;bpython&#x27;: False, &#x27;nogui&#x27;: False, &#x27;pid_filename&#x27;: &#x27;httpserver.pid&#x27;, &#x27;extcron&#x27;: False, &#x27;runcron&#x27;: False, &#x27;run_system_tests&#x27;: False, &#x27;test&#x27;: None, &#x27;folder&#x27;: &#x27;/home/baadalvm/Desktop/web2py&#x27;, &#x27;config&#x27;: &#x27;&#x27;, &#x27;minthreads&#x27;: None, &#x27;winservice&#x27;: &#x27;&#x27;, &#x27;shell&#x27;: None, &#x27;run&#x27;: &#x27;&#x27;, &#x27;log_filename&#x27;: &#x27;httpserver.log&#x27;, &#x27;debuglevel&#x27;: 30, &#x27;args&#x27;: [&#x27;&#x27;], &#x27;socket_timeout&#x27;: 5, &#x27;ssl_ca_certificate&#x27;: None, &#x27;scheduler&#x27;: None, &#x27;profiler_filename&#x27;: None, &#x27;ssl_private_key&#x27;: &#x27;&#x27;, &#x27;scheduler_groups&#x27;: None, &#x27;password&#x27;: &#x27;&lt;ask&gt;&#x27;, &#x27;request_queue_size&#x27;: 5, &#x27;ssl_certificate&#x27;: &#x27;&#x27;, &#x27;cronjob&#x27;: False, &#x27;numthreads&#x27;: None, &#x27;quiet&#x27;: False, &#x27;interfaces&#x27;: None, &#x27;import_models&#x27;: False, &#x27;timeout&#x27;: 10, &#x27;plain&#x27;: False, &#x27;nobanner&#x27;: False}&gt;</div></td></tr><tr><td style="font-weight:bold;vertical-align:top">content_length</td><td valign="top">:</td><td><div>445</div></td></tr><tr><td style="font-weight:bold;vertical-align:top">content_type</td><td valign="top">:</td><td><div>multipart/form-data; boundary=---------------------------5488260396057693231897434455</div></td></tr><tr><td style="font-weight:bold;vertical-align:top">db_sessions</td><td valign="top">:</td><td><div>set([])</div></td></tr><tr><td style="font-weight:bold;vertical-align:top">debugging</td><td valign="top">:</td><td><div>True</div></td></tr><tr><td style="font-weight:bold;vertical-align:top">gluon_parent</td><td valign="top">:</td><td><div>/home/baadalvm/Desktop/web2py</div></td></tr><tr><td style="font-weight:bold;vertical-align:top">http_accept</td><td valign="top">:</td><td><div>text/html,application/xhtml+xml,application/xml;q=0.9,*/*;q=0.8</div></td></tr><tr><td style="font-weight:bold;vertical-align:top">http_accept_encoding</td><td valign="top">:</td><td><div>gzip, deflate</div></td></tr><tr><td style="font-weight:bold;vertical-align:top">http_accept_language</td><td valign="top">:</td><td><div>en-US,en;q=0.5</div></td></tr><tr><td style="font-weight:bold;vertical-align:top">http_connection</td><td valign="top">:</td><td><div>keep-alive</div></td></tr><tr><td style="font-weight:bold;vertical-align:top">http_content_length</td><td valign="top">:</td><td><div>445</div></td></tr><tr><td style="font-weight:bold;vertical-align:top">http_content_type</td><td valign="top">:</td><td><div>multipart/form-data; boundary=---------------------------5488260396057693231897434455</div></td></tr><tr><td style="font-weight:bold;vertical-align:top">http_cookie</td><td valign="top">:</td><td><div>session_id_welcome=127.0.0.1-fb808cd6-8028-4624-97c8-28288a8c6be2; session_id_testapp=127.0.0.1-6a3d0021-f0d7-44c0-9410-74aa38cd4103; session_id_admin=127.0.0.1-50613ddc-e5f5-44f0-86b9-afb5edd992de</div></td></tr><tr><td style="font-weight:bold;vertical-align:top">http_host</td><td valign="top">:</td><td><div>127.0.0.1:8000</div></td></tr><tr><td style="font-weight:bold;vertical-align:top">http_referer</td><td valign="top">:</td><td><div>http://127.0.0.1:8000/testapp/default/unit_testing</div></td></tr><tr><td style="font-weight:bold;vertical-align:top">http_user_agent</td><td valign="top">:</td><td><div>Mozilla/5.0 (X11; Ubuntu; Linux x86_64; rv:20.0) Gecko/20100101 Firefox/20.0</div></td></tr><tr><td style="font-weight:bold;vertical-align:top">is_jython</td><td valign="top">:</td><td><div>False</div></td></tr><tr><td style="font-weight:bold;vertical-align:top">is_pypy</td><td valign="top">:</td><td><div>False</div></td></tr><tr><td style="font-weight:bold;vertical-align:top">local_hosts</td><td valign="top">:</td><td><div><table><tr><td><div>::1</div></td></tr><tr><td><div>127.0.1.1</div></td></tr><tr><td><div>baadalvm</div></td></tr><tr><td><div>::ffff:127.0.0.1</div></td></tr><tr><td><div>127.0.0.1</div></td></tr></table></div></td></tr><tr><td style="font-weight:bold;vertical-align:top">path_info</td><td valign="top">:</td><td><div>/testapp/default/unit_testing</div></td></tr><tr><td style="font-weight:bold;vertical-align:top">query_string</td><td valign="top">:</td><td><div></div></td></tr><tr><td style="font-weight:bold;vertical-align:top">remote_addr</td><td valign="top">:</td><td><div>127.0.0.1</div></td></tr><tr><td style="font-weight:bold;vertical-align:top">remote_port</td><td valign="top">:</td><td><div>37890</div></td></tr><tr><td style="font-weight:bold;vertical-align:top">request_method</td><td valign="top">:</td><td><div>POST</div></td></tr><tr><td style="font-weight:bold;vertical-align:top">request_uri</td><td valign="top">:</td><td><div>/testapp/default/unit_testing</div></td></tr><tr><td style="font-weight:bold;vertical-align:top">script_name</td><td valign="top">:</td><td><div></div></td></tr><tr><td style="font-weight:bold;vertical-align:top">server_name</td><td valign="top">:</td><td><div>baadalvm</div></td></tr><tr><td style="font-weight:bold;vertical-align:top">server_port</td><td valign="top">:</td><td><div>8000</div></td></tr><tr><td style="font-weight:bold;vertical-align:top">server_protocol</td><td valign="top">:</td><td><div>HTTP/1.1</div></td></tr><tr><td style="font-weight:bold;vertical-align:top">server_software</td><td valign="top">:</td><td><div>Rocket 1.2.6</div></td></tr><tr><td style="font-weight:bold;vertical-align:top">web2py_path</td><td valign="top">:</td><td><div>/home/baadalvm/Desktop/web2py</div></td></tr><tr><td style="font-weight:bold;vertical-align:top">web2py_version</td><td valign="top">:</td><td><div>2.5.1-stable+timestamp.2013.06.06.15.39.19</div></td></tr><tr><td style="font-weight:bold;vertical-align:top">wsgi_errors</td><td valign="top">:</td><td><div>&lt;open file &#x27;&lt;stderr&gt;&#x27;, mode &#x27;w&#x27; at 0x7f9a83c43270&gt;</div></td></tr><tr><td style="font-weight:bold;vertical-align:top">wsgi_file_wrapper</td><td valign="top">:</td><td><div>&lt;class wsgiref.util.FileWrapper at 0x2bca668&gt;</div></td></tr><tr><td style="font-weight:bold;vertical-align:top">wsgi_input</td><td valign="top">:</td><td><div>&lt;socket._fileobject object at 0x7f9a5c17ae50&gt;</div></td></tr><tr><td style="font-weight:bold;vertical-align:top">wsgi_multiprocess</td><td valign="top">:</td><td><div>False</div></td></tr><tr><td style="font-weight:bold;vertical-align:top">wsgi_multithread</td><td valign="top">:</td><td><div>True</div></td></tr><tr><td style="font-weight:bold;vertical-align:top">wsgi_run_once</td><td valign="top">:</td><td><div>False</div></td></tr><tr><td style="font-weight:bold;vertical-align:top">wsgi_url_scheme</td><td valign="top">:</td><td><div>http</div></td></tr><tr><td style="font-weight:bold;vertical-align:top">wsgi_version</td><td valign="top">:</td><td><div><table><tr><td><div>1</div></td></tr><tr><td><div>0</div></td></tr></table></div></td></tr></table></div></td></tr><tr><td style="font-weight:bold;vertical-align:top">extension</td><td valign="top">:</td><td><div>html</div></td></tr><tr><td style="font-weight:bold;vertical-align:top">folder</td><td valign="top">:</td><td><div>/home/baadalvm/Desktop/web2py/applications/testapp/</div></td></tr><tr><td style="font-weight:bold;vertical-align:top">function</td><td valign="top">:</td><td><div>unit_testing</div></td></tr><tr><td style="font-weight:bold;vertical-align:top">get_vars</td><td valign="top">:</td><td><div><table></table></div></td></tr><tr><td style="font-weight:bold;vertical-align:top">global_settings</td><td valign="top">:</td><td><div><table><tr><td style="font-weight:bold;vertical-align:top">app_folders</td><td valign="top">:</td><td><div>set([&#x27;/home/baadalvm/Desktop/web2py/applications/testapp/&#x27;, &#x27;/home/baadalvm/Desktop/web2py/applications/admin/&#x27;, &#x27;/home/baadalvm/Desktop/web2py/applications/welcome/&#x27;])</div></td></tr><tr><td style="font-weight:bold;vertical-align:top">applications_parent</td><td valign="top">:</td><td><div>/home/baadalvm/Desktop/web2py</div></td></tr><tr><td style="font-weight:bold;vertical-align:top">cmd_args</td><td valign="top">:</td><td><div><table></table></div></td></tr><tr><td style="font-weight:bold;vertical-align:top">cmd_options</td><td valign="top">:</td><td><div>&lt;Values at 0x2c47998: {&#x27;verbose&#x27;: False, &#x27;ip&#x27;: &#x27;127.0.0.1&#x27;, &#x27;with_scheduler&#x27;: False, &#x27;ips&#x27;: [&#x27;127.0.1.1&#x27;], &#x27;shutdown_timeout&#x27;: 5, &#x27;taskbar&#x27;: False, &#x27;with_coverage&#x27;: False, &#x27;port&#x27;: 8000, &#x27;maxthreads&#x27;: None, &#x27;softcron&#x27;: False, &#x27;server_name&#x27;: &#x27;baadalvm&#x27;, &#x27;bpython&#x27;: False, &#x27;nogui&#x27;: False, &#x27;pid_filename&#x27;: &#x27;httpserver.pid&#x27;, &#x27;extcron&#x27;: False, &#x27;runcron&#x27;: False, &#x27;run_system_tests&#x27;: False, &#x27;test&#x27;: None, &#x27;folder&#x27;: &#x27;/home/baadalvm/Desktop/web2py&#x27;, &#x27;config&#x27;: &#x27;&#x27;, &#x27;minthreads&#x27;: None, &#x27;winservice&#x27;: &#x27;&#x27;, &#x27;shell&#x27;: None, &#x27;run&#x27;: &#x27;&#x27;, &#x27;log_filename&#x27;: &#x27;httpserver.log&#x27;, &#x27;debuglevel&#x27;: 30, &#x27;args&#x27;: [&#x27;&#x27;], &#x27;socket_timeout&#x27;: 5, &#x27;ssl_ca_certificate&#x27;: None, &#x27;scheduler&#x27;: None, &#x27;profiler_filename&#x27;: None, &#x27;ssl_private_key&#x27;: &#x27;&#x27;, &#x27;scheduler_groups&#x27;: None, &#x27;password&#x27;: &#x27;&lt;ask&gt;&#x27;, &#x27;request_queue_size&#x27;: 5, &#x27;ssl_certificate&#x27;: &#x27;&#x27;, &#x27;cronjob&#x27;: False, &#x27;numthreads&#x27;: None, &#x27;quiet&#x27;: False, &#x27;interfaces&#x27;: None, &#x27;import_models&#x27;: False, &#x27;timeout&#x27;: 10, &#x27;plain&#x27;: False, &#x27;nobanner&#x27;: False}&gt;</div></td></tr><tr><td style="font-weight:bold;vertical-align:top">db_sessions</td><td valign="top">:</td><td><div>set([])</div></td></tr><tr><td style="font-weight:bold;vertical-align:top">debugging</td><td valign="top">:</td><td><div>True</div></td></tr><tr><td style="font-weight:bold;vertical-align:top">gluon_parent</td><td valign="top">:</td><td><div>/home/baadalvm/Desktop/web2py</div></td></tr><tr><td style="font-weight:bold;vertical-align:top">is_jython</td><td valign="top">:</td><td><div>False</div></td></tr><tr><td style="font-weight:bold;vertical-align:top">is_pypy</td><td valign="top">:</td><td><div>False</div></td></tr><tr><td style="font-weight:bold;vertical-align:top">local_hosts</td><td valign="top">:</td><td><div><table><tr><td><div>::1</div></td></tr><tr><td><div>127.0.1.1</div></td></tr><tr><td><div>baadalvm</div></td></tr><tr><td><div>::ffff:127.0.0.1</div></td></tr><tr><td><div>127.0.0.1</div></td></tr></table></div></td></tr><tr><td style="font-weight:bold;vertical-align:top">web2py_version</td><td valign="top">:</td><td><div>2.5.1-stable+timestamp.2013.06.06.15.39.19</div></td></tr></table></div></td></tr><tr><td style="font-weight:bold;vertical-align:top">is_https</td><td valign="top">:</td><td><div>False</div></td></tr><tr><td style="font-weight:bold;vertical-align:top">is_local</td><td valign="top">:</td><td><div>True</div></td></tr><tr><td style="font-weight:bold;vertical-align:top">is_restful</td><td valign="top">:</td><td><div>False</div></td></tr><tr><td style="font-weight:bold;vertical-align:top">now</td><td valign="top">:</td><td><div>datetime.datetime(2013, 9, 30, 14, 2, 3, 984968)</div></td></tr><tr><td style="font-weight:bold;vertical-align:top">post_vars</td><td valign="top">:</td><td><div><table><tr><td style="font-weight:bold;vertical-align:top">testcase21</td><td valign="top">:</td><td><div>21</div></td></tr></table></div></td></tr><tr><td style="font-weight:bold;vertical-align:top">raw_args</td><td valign="top">:</td><td><div></div></td></tr><tr><td style="font-weight:bold;vertical-align:top">raw_extension</td><td valign="top">:</td><td><div>None</div></td></tr><tr><td style="font-weight:bold;vertical-align:top">url</td><td valign="top">:</td><td><div>/testapp/default/unit_testing</div></td></tr><tr><td style="font-weight:bold;vertical-align:top">utcnow</td><td valign="top">:</td><td><div>datetime.datetime(2013, 9, 30, 8, 32, 3, 985009)</div></td></tr><tr><td style="font-weight:bold;vertical-align:top">uuid</td><td valign="top">:</td><td><div>testapp/127.0.0.1.2013-09-30.14-02-03.62fe1f4a-a280-4784-9e3c-61e020077b1f</div></td></tr><tr><td style="font-weight:bold;vertical-align:top">vars</td><td valign="top">:</td><td><div><table><tr><td style="font-weight:bold;vertical-align:top">testcase21</td><td valign="top">:</td><td><div>21</div></td></tr></table></div></td></tr><tr><td style="font-weight:bold;vertical-align:top">wsgi</td><td valign="top">:</td><td><div><table><tr><td style="font-weight:bold;vertical-align:top">environ</td><td valign="top">:</td><td><div><table><tr><td style="font-weight:bold;vertical-align:top">CONTENT_LENGTH</td><td valign="top">:</td><td><div>445</div></td></tr><tr><td style="font-weight:bold;vertical-align:top">CONTENT_TYPE</td><td valign="top">:</td><td><div>multipart/form-data; boundary=---------------------------5488260396057693231897434455</div></td></tr><tr><td style="font-weight:bold;vertical-align:top">HTTP_ACCEPT</td><td valign="top">:</td><td><div>text/html,application/xhtml+xml,application/xml;q=0.9,*/*;q=0.8</div></td></tr><tr><td style="font-weight:bold;vertical-align:top">HTTP_ACCEPT_ENCODING</td><td valign="top">:</td><td><div>gzip, deflate</div></td></tr><tr><td style="font-weight:bold;vertical-align:top">HTTP_ACCEPT_LANGUAGE</td><td valign="top">:</td><td><div>en-US,en;q=0.5</div></td></tr><tr><td style="font-weight:bold;vertical-align:top">HTTP_CONNECTION</td><td valign="top">:</td><td><div>keep-alive</div></td></tr><tr><td style="font-weight:bold;vertical-align:top">HTTP_CONTENT_LENGTH</td><td valign="top">:</td><td><div>445</div></td></tr><tr><td style="font-weight:bold;vertical-align:top">HTTP_CONTENT_TYPE</td><td valign="top">:</td><td><div>multipart/form-data; boundary=---------------------------5488260396057693231897434455</div></td></tr><tr><td style="font-weight:bold;vertical-align:top">HTTP_COOKIE</td><td valign="top">:</td><td><div>session_id_welcome=127.0.0.1-fb808cd6-8028-4624-97c8-28288a8c6be2; session_id_testapp=127.0.0.1-6a3d0021-f0d7-44c0-9410-74aa38cd4103; session_id_admin=127.0.0.1-50613ddc-e5f5-44f0-86b9-afb5edd992de</div></td></tr><tr><td style="font-weight:bold;vertical-align:top">HTTP_HOST</td><td valign="top">:</td><td><div>127.0.0.1:8000</div></td></tr><tr><td style="font-weight:bold;vertical-align:top">HTTP_REFERER</td><td valign="top">:</td><td><div>http://127.0.0.1:8000/testapp/default/unit_testing</div></td></tr><tr><td style="font-weight:bold;vertical-align:top">HTTP_USER_AGENT</td><td valign="top">:</td><td><div>Mozilla/5.0 (X11; Ubuntu; Linux x86_64; rv:20.0) Gecko/20100101 Firefox/20.0</div></td></tr><tr><td style="font-weight:bold;vertical-align:top">PATH_INFO</td><td valign="top">:</td><td><div>/testapp/default/unit_testing</div></td></tr><tr><td style="font-weight:bold;vertical-align:top">QUERY_STRING</td><td valign="top">:</td><td><div></div></td></tr><tr><td style="font-weight:bold;vertical-align:top">REMOTE_ADDR</td><td valign="top">:</td><td><div>127.0.0.1</div></td></tr><tr><td style="font-weight:bold;vertical-align:top">REMOTE_PORT</td><td valign="top">:</td><td><div>37890</div></td></tr><tr><td style="font-weight:bold;vertical-align:top">REQUEST_METHOD</td><td valign="top">:</td><td><div>POST</div></td></tr><tr><td style="font-weight:bold;vertical-align:top">REQUEST_URI</td><td valign="top">:</td><td><div>/testapp/default/unit_testing</div></td></tr><tr><td style="font-weight:bold;vertical-align:top">SCRIPT_NAME</td><td valign="top">:</td><td><div></div></td></tr><tr><td style="font-weight:bold;vertical-align:top">SERVER_NAME</td><td valign="top">:</td><td><div>baadalvm</div></td></tr><tr><td style="font-weight:bold;vertical-align:top">SERVER_PORT</td><td valign="top">:</td><td><div>8000</div></td></tr><tr><td style="font-weight:bold;vertical-align:top">SERVER_PROTOCOL</td><td valign="top">:</td><td><div>HTTP/1.1</div></td></tr><tr><td style="font-weight:bold;vertical-align:top">SERVER_SOFTWARE</td><td valign="top">:</td><td><div>Rocket 1.2.6</div></td></tr><tr><td style="font-weight:bold;vertical-align:top">wsgi.errors</td><td valign="top">:</td><td><div>&lt;open file &#x27;&lt;stderr&gt;&#x27;, mode &#x27;w&#x27; at 0x7f9a83c43270&gt;</div></td></tr><tr><td style="font-weight:bold;vertical-align:top">wsgi.file_wrapper</td><td valign="top">:</td><td><div>&lt;class wsgiref.util.FileWrapper at 0x2bca668&gt;</div></td></tr><tr><td style="font-weight:bold;vertical-align:top">wsgi.input</td><td valign="top">:</td><td><div>&lt;open file &#x27;&lt;fdopen&gt;&#x27;, mode &#x27;w+b&#x27; at 0x7f9a4453d540&gt;</div></td></tr><tr><td style="font-weight:bold;vertical-align:top">wsgi.multiprocess</td><td valign="top">:</td><td><div>False</div></td></tr><tr><td style="font-weight:bold;vertical-align:top">wsgi.multithread</td><td valign="top">:</td><td><div>True</div></td></tr><tr><td style="font-weight:bold;vertical-align:top">wsgi.run_once</td><td valign="top">:</td><td><div>False</div></td></tr><tr><td style="font-weight:bold;vertical-align:top">wsgi.url_scheme</td><td valign="top">:</td><td><div>http</div></td></tr><tr><td style="font-weight:bold;vertical-align:top">wsgi.version</td><td valign="top">:</td><td><div>1</div></td></tr></table></div></td></tr></table></div></td></tr></table></div>'
tRp70
sS'frames'
p71
(lp72
(dp73
S'file'
p74
S'/home/baadalvm/Desktop/web2py/gluon/restricted.py'
p75
sS'dump'
p76
(dp77
S'environment'
p78
S"{'A': <class 'gluon.html.A'>, 'ANY_OF': <class 'gluon.validators.ANY_OF'>, 'Auth': <class 'gluon.tools.Auth'>, 'B': <class 'gluon.html.B'>, 'BEAUTIFY': <class 'gluon.html.BEAUTIFY'>, 'BODY': <class 'gluon.html.BODY'>, 'BR': <class 'gluon.html.BR'>, 'BUTTON': <class 'gluon.html.BUTTON'>, 'CAT': <class 'gluon.html.CAT'>, 'CENTER': <class 'gluon.html.CENTER'>, ...}"
p79
sS'ccode'
p80
S'<code object <module> at 0x7f9a6837ca30, file "/...cations/testapp/controllers/default.py", line 11>'
p81
ssS'lnum'
p82
I212
sS'lines'
p83
(dp84
I207
S'    try:'
p85
sI208
S'        if isinstance(code, types.CodeType):'
p86
sI209
S'            ccode = code'
p87
sI210
S'        else:'
p88
sI211
S'            ccode = compile2(code, layer)'
p89
sI212
S'        exec ccode in environment'
p90
sI213
S'    except HTTP:'
p91
sI214
S'        raise'
p92
sI215
S'    except RestrictedError:'
p93
sI216
S'        # do not encapsulate (obfuscate) the original RestrictedError'
p94
ssS'call'
p95
S"(code='# -*- coding: utf-8 -*-\\n# this file is released ...e\\n\\nresponse._vars=response._caller(unit_testing)\\n', environment={'A': <class 'gluon.html.A'>, 'ANY_OF': <class 'gluon.validators.ANY_OF'>, 'Auth': <class 'gluon.tools.Auth'>, 'B': <class 'gluon.html.B'>, 'BEAUTIFY': <class 'gluon.html.BEAUTIFY'>, 'BODY': <class 'gluon.html.BODY'>, 'BR': <class 'gluon.html.BR'>, 'BUTTON': <class 'gluon.html.BUTTON'>, 'CAT': <class 'gluon.html.CAT'>, 'CENTER': <class 'gluon.html.CENTER'>, ...}, layer='/home/baadalvm/Desktop/web2py/applications/testapp/controllers/default.py')"
p96
sS'func'
p97
S'restricted'
p98
sa(dp99
g74
S'/home/baadalvm/Desktop/web2py/applications/testapp/controllers/default.py'
p100
sg76
(dp101
sg82
I224
sg83
(dp102
I213
S"                test_case_no=request.vars['testcase'+str(i)]"
p103
sI214
S'                if test_case_no!=None:'
p104
sI215
S'                    test_script(test_case_no)'
p105
sI216
S'        elif form.errors:'
p106
sI217
S"            response.flash = 'form has errors'"
p107
sI218
S'        else:'
p108
sI219
S"            response.flash = 'please fill the form'"
p109
sI220
S'        return dict(form=form)'
p110
sI221
S'    except Exception as e:'
p111
sI222
S'        print e'
p112
ssg95
S'()'
p113
sg97
S'<module>'
p114
sa(dp115
g74
S'/home/baadalvm/Desktop/web2py/gluon/globals.py'
p116
sg76
(dp117
S'self'
p118
S'undefined'
p119
sS'f'
S'<function unit_testing>'
p120
ssg82
I194
sg83
(dp121
I192
S"        self.delimiters = ('{{', '}}')"
p122
sI193
S'        self._vars = None'
p123
sI194
S'        self._caller = lambda f: f()'
p124
sI195
S'        self._view_environment = None'
p125
sI196
S'        self._custom_commit = None'
p126
sI197
S'        self._custom_rollback = None'
p127
sI198
S''
sI189
S'        self.menu = []             # used by the default view layout'
p128
sI190
S'        self.files = []            # used by web2py_ajax.html'
p129
sI191
S'        self.generic_patterns = []  # patterns to allow generic views'
p130
ssg95
S'(f=<function unit_testing>)'
p131
sg97
S'<lambda>'
p132
sa(dp133
g74
S'/home/baadalvm/Desktop/web2py/applications/testapp/controllers/default.py'
p134
sg76
(dp135
S'test_case_no'
p136
S"'21'"
p137
sS'global test_script'
p138
S'<function test_script>'
p139
ssg82
I134
sg83
(dp140
I129
S'      )'
p141
sI130
S'    if form.process().accepted:'
p142
sI131
S'        for i in range(1,51):'
p143
sI132
S"            test_case_no=request.vars['testcase'+str(i)]"
p144
sI133
S'            if test_case_no!=None:'
p145
sI134
S'                test_script(test_case_no)'
p146
sI135
S'    elif form.errors:'
p147
sI136
S"        response.flash = 'form has errors'"
p148
sI137
S'    else:'
p149
sI138
S"        response.flash = 'please fill the form'"
p150
ssg95
S'()'
p151
sg97
S'unit_testing'
p152
sa(dp153
g74
S'/home/baadalvm/Desktop/web2py/applications/testapp/models/test.py'
p154
sg76
(dp155
S'global isImage'
p156
S'<function isImage>'
p157
sS'table_path'
p158
S'"//div[@class=\'TABLE\']/table/tbody/tr/td"'
p159
sS'xml_sub_child'
p160
S"<Element 'setting'>"
p161
sS'driver'
p162
S'<selenium.webdriver.firefox.webdriver.WebDriver object>'
p163
sS'vm_name2'
p164
g119
sS'xml_child'
p165
S"<Element 'test_case2'>"
p166
ssg82
I167
sg83
(dp167
I162
S'                elif field_type=="table":'
p168
sI163
S'                    isTable(driver,xml_parent,xml_child,xml_sub_child)#checking for data in table'
p169
sI164
S''
sI165
S'                elif field_type=="img":#checking for setting image'
p170
sI166
S'                    table_path=xml_sub_child.get("path")'
p171
sI167
S'                    vm_name2=isImage(driver,xml_child,xml_sub_child,table_path)'
p172
sI168
S''
sI169
S'                elif field_type=="check_tables":#cheking for host table'
p173
sI170
S'                    isCheckTable(driver,xml_parent,xml_child,xml_sub_child)'
p174
sI171
S''
ssg95
S"(test_case_no='21')"
p175
sg97
S'test_script'
p176
sa(dp177
g74
S'/home/baadalvm/Desktop/web2py/applications/testapp/models/test.py'
p178
sg76
(dp179
S'global vm_running'
p180
S'<function vm_running>'
p181
sS'xml_sub_child'
p182
S"<Element 'setting'>"
p183
sS'driver'
p184
S'<selenium.webdriver.firefox.webdriver.WebDriver object>'
p185
sS'xml_child'
p186
S"<Element 'test_case2'>"
p187
ssg82
I691
sg83
(dp188
I686
S'\treturn'
p189
sI687
S''
sI688
S'def isImage(driver,xml_child,xml_sub_child,a):'
p190
sI689
S'    if isElementPresent(driver,xml_child,a):'
p191
sI690
S'        if xml_sub_child.get("name") in {"vm_running_Setting","vm_running_Setting_intgrtn"}:'
p192
sI691
S'            vm_running(xml_child,xml_sub_child,driver)'
p193
sI692
S'        elif xml_sub_child.get("name")=="vm_paused_Setting":'
p194
sI693
S'            vm_paused(xml_child,xml_sub_child,driver)'
p195
sI694
S'        elif xml_sub_child.get("name")=="vm_shutdown_Setting":'
p196
sI695
S'            print "in"'
p197
ssg95
S'(driver=<selenium.webdriver.firefox.webdriver.WebDriver object>, xml_child=<Element \'test_case2\'>, xml_sub_child=<Element \'setting\'>, a="//div[@class=\'TABLE\']/table/tbody/tr/td")'
p198
sg97
S'isImage'
p199
sa(dp200
g74
S'/home/baadalvm/Desktop/web2py/applications/testapp/models/test.py'
p201
sg76
(dp202
S'vm_name'
p203
S"'test12345'"
p204
sS'xml_sub_child'
p205
S"<Element 'setting'>"
p206
sS'driver'
p207
S'<selenium.webdriver.firefox.webdriver.WebDriver object>'
p208
sS'global check_operation'
p209
S'<function check_operation>'
p210
sS'xml_child'
p211
S"<Element 'test_case2'>"
p212
sS'vm_id'
p213
S'9L'
p214
sS'operation_name'
p215
g119
ssg82
I426
sg83
(dp216
I421
S'        if status==5:'
p217
sI422
S'            click_on_setting(driver,xml_sub_child,xml_child,vm_name,vm_id)'
p218
sI423
S'            check_snapshot(vm_name,driver,xml_child,xml_sub_child)'
p219
sI424
S'            check_user(driver,xml_child,xml_sub_child,vm_name)'
p220
sI425
S'            check_vm_configuration(driver,xml_child,xml_sub_child,vm_name)'
p221
sI426
S'            operation_name=check_operation(driver,xml_child,xml_sub_child,vm_name,vm_id)'
p222
sI427
S''
sI428
S'        if (status==7) | (status==6):'
p223
sI429
S'            if (row_count-1)==length:'
p224
sI430
S'                logger.debug("No VM exist which is in running state,So Please Run a VM before doing this testing")'
p225
ssg95
S"(xml_child=<Element 'test_case2'>, xml_sub_child=<Element 'setting'>, driver=<selenium.webdriver.firefox.webdriver.WebDriver object>)"
p226
sg97
S'vm_running'
p227
sa(dp228
g74
S'/home/baadalvm/Desktop/web2py/applications/testapp/models/test.py'
p229
sg76
(dp230
S'vm_name'
p231
S"'test12345'"
p232
sS'xml_sub_child'
p233
S"<Element 'setting'>"
p234
sS'driver'
p235
S'<selenium.webdriver.firefox.webdriver.WebDriver object>'
p236
sS'xml_child'
p237
S"<Element 'test_case2'>"
p238
sS'global click_on_operation'
p239
S'<function click_on_operation>'
p240
sS'vm_id'
p241
S'9L'
p242
sS'operation_name'
p243
g119
ssg82
I305
sg83
(dp244
I300
S'def check_operation(driver,xml_child,xml_sub_child,vm_name,vm_id):'
p245
sI301
S'    if xml_sub_child.get("op")=="snapshot":'
p246
sI302
S'        operation_name=click_on_operation(driver,xml_sub_child,xml_child,vm_name,vm_id)'
p247
sI303
S'        max_snap(driver,xml_sub_child,xml_child,vm_name)'
p248
sI304
S'    else:'
p249
sI305
S'        operation_name=click_on_operation(driver,xml_sub_child,xml_child,vm_name,vm_id)'
p250
sI306
S'    return operation_name'
p251
sI307
S''
sI308
S''
sI309
S''
ssg95
S"(driver=<selenium.webdriver.firefox.webdriver.WebDriver object>, xml_child=<Element 'test_case2'>, xml_sub_child=<Element 'setting'>, vm_name='test12345', vm_id=9L)"
p252
sg97
S'check_operation'
p253
sa(dp254
g74
S'/home/baadalvm/Desktop/web2py/applications/testapp/models/test.py'
p255
sg76
(dp256
S'vm_name'
p257
S"'test12345'"
p258
sS'xml_sub_child'
p259
S"<Element 'setting'>"
p260
sS'driver'
p261
S'<selenium.webdriver.firefox.webdriver.WebDriver object>'
p262
sS'xml_child'
p263
S"<Element 'test_case2'>"
p264
sS'global add_user'
p265
S'<function add_user>'
p266
sS'vm_id'
p267
S'9L'
p268
ssg82
I383
sg83
(dp269
I384
S'        if xm_sub_child.get("name")=="vm_running_Setting_intgrtn":'
p270
sI385
S'            check_user_table(driver,xml_sub_child,xml_child,vm_name,vm_id,operation_name)'
p271
sI386
S'    elif op_name=="Delete":'
p272
sI387
S'        driver.find_element_by_xpath(xml_sub_child.get("title")).click()'
p273
sI378
S'    print op_name'
p274
sI379
S''
sI380
S'    if op_name=="user_details":'
p275
sI381
S'        print "user"'
p276
sI382
S'        driver.find_element_by_xpath("//*[@href=\'/baadal/admin/"+ str(op_name) +"/"+ str(vm_id) +"\']").click()'
p277
sI383
S'        add_user(driver,xml_sub_child,xml_child,vm_name,vm_id)'
p278
ssg95
S"(driver=<selenium.webdriver.firefox.webdriver.WebDriver object>, xml_sub_child=<Element 'setting'>, xml_child=<Element 'test_case2'>, vm_name='test12345', vm_id=9L)"
p279
sg97
S'click_on_operation'
p280
sa(dp281
g74
S'/home/baadalvm/Desktop/web2py/applications/testapp/models/test.py'
p282
sg76
(dp283
S'xml_sub_child'
p284
S"<Element 'setting'>"
p285
sS'driver'
p286
S'<selenium.webdriver.firefox.webdriver.WebDriver object>'
p287
sS'global isInput_add'
p288
S'<function isInput_add>'
p289
ssg82
I290
sg83
(dp290
I288
S'def add_user(driver,xml_sub_child,xml_child,vm_name,vm_id):'
p291
sI289
S'    check_user(driver,xml_child,xml_sub_child,vm_name)'
p292
sI290
S'    isInput_add(driver, xml_sub_child)'
p293
sI291
S'    value=xml_sub_child.get("add_submit")'
p294
sI292
S'    isButton_add(driver, xml_sub_child,value)'
p295
sI293
S'    val=xml_sub_child.get("add_button")'
p296
sI294
S'    isButton_add(driver, xml_sub_child,val)'
p297
sI285
S'    logger.debug(xml_sub_child.get("print"))'
p298
sI286
S'    return'
p299
sI287
S''
ssg95
S"(driver=<selenium.webdriver.firefox.webdriver.WebDriver object>, xml_sub_child=<Element 'setting'>, xml_child=<Element 'test_case2'>, vm_name='test12345', vm_id=9L)"
p300
sg97
S'add_user'
p301
sa(dp302
g74
S'/home/baadalvm/Desktop/web2py/applications/testapp/models/test.py'
p303
sg76
(dp304
S'xml_sub_child.get'
p305
S"<bound method Element.get of <Element 'setting'>>"
p306
sS'field'
p307
g119
sS'xml_sub_child'
p308
S"<Element 'setting'>"
p309
sS'driver'
p310
S'<selenium.webdriver.firefox.webdriver.WebDriver object>'
p311
sS'driver.find_element_by_id'
p312
S'<bound method WebDriver.find_element_by_id of <s...um.webdriver.firefox.webdriver.WebDriver object>>'
p313
ssg82
I629
sg83
(dp314
I624
S'        if not (xml_sub_child.get("id") in ["user_password","user_username"]):'
p315
sI625
S'            field.send_keys(str(current_time))'
p316
sI626
S'    return current_time'
p317
sI627
S''
sI628
S'def\tisInput_add(driver, xml_sub_child):'
p318
sI629
S'    field = driver.find_element_by_id(xml_sub_child.get("user_id"))'
p319
sI630
S'    field.send_keys(xml_sub_child.get("user_id_data"))'
p320
sI631
S'    return'
p321
sI632
S''
sI633
S'def isReadOnly(driver, xml_parent,xml_child,xml_sub_child):'
p322
ssg95
S"(driver=<selenium.webdriver.firefox.webdriver.WebDriver object>, xml_sub_child=<Element 'setting'>)"
p323
sg97
S'isInput_add'
p324
sa(dp325
g74
S'/usr/local/lib/python2.7/dist-packages/selenium/webdriver/remote/webdriver.py'
p326
sg76
(dp327
S'id_'
p328
S"'add_user_id'"
p329
sS'self.find_element'
p330
S'<bound method WebDriver.find_element of <selenium.webdriver.firefox.webdriver.WebDriver object>>'
p331
sS'self'
p332
S'<selenium.webdriver.firefox.webdriver.WebDriver object>'
p333
sS'value'
p334
g119
sS'By.ID'
p335
S"'id'"
p336
sS'global By'
p337
S"<class 'selenium.webdriver.common.by.By'>"
p338
sS'by'
p339
g119
ssg82
I198
sg83
(dp340
I193
S'         - id\\_ - The id of the element to be found.'
p341
sI194
S''
sI195
S'        :Usage:'
p342
sI196
S"            driver.find_element_by_id('foo')"
p343
sI197
S'        """'
p344
sI198
S'        return self.find_element(by=By.ID, value=id_)'
p345
sI199
S''
sI200
S'    def find_elements_by_id(self, id_):'
p346
sI201
S'        """'
p347
sI202
S'        Finds multiple elements by id.'
p348
ssg95
S"(self=<selenium.webdriver.firefox.webdriver.WebDriver object>, id_='add_user_id')"
p349
sg97
S'find_element_by_id'
p350
sa(dp351
g74
S'/usr/local/lib/python2.7/dist-packages/selenium/webdriver/remote/webdriver.py'
p352
sg76
(dp353
S'by'
p354
S"'id'"
p355
sS'value'
p356
S"'add_user_id'"
p357
ssg82
I680
sg83
(dp358
I675
S'        """'
p359
sI676
S'        if isinstance(by, tuple) or isinstance(value, int) or value==None:'
p360
sI677
S'            raise InvalidSelectorException("Invalid locator values passed in")'
p361
sI678
S''
sI679
S'        return self.execute(Command.FIND_ELEMENT,'
p362
sI680
S"                             {'using': by, 'value': value})['value']"
p363
sI681
S''
sI682
S'    def find_elements(self, by=By.ID, value=None):'
p364
sI683
S'        """'
p365
sI684
S"        'Private' method used by the find_elements_by_* methods."
p366
ssg95
S"(self=<selenium.webdriver.firefox.webdriver.WebDriver object>, by='id', value='add_user_id')"
p367
sg97
S'find_element'
p368
sa(dp369
g74
S'/usr/local/lib/python2.7/dist-packages/selenium/webdriver/remote/webdriver.py'
p370
sg76
(dp371
S'self.command_executor'
p372
S'<selenium.webdriver.firefox.extension_connection.ExtensionConnection object>'
p373
sS'self'
p374
S'<selenium.webdriver.firefox.webdriver.WebDriver object>'
p375
sS'params'
p376
S"{'sessionId': u'4796fd58-15a8-48bf-b6b4-b13ab7c9a476', 'using': 'id', 'value': 'add_user_id'}"
p377
sS'self.command_executor.execute'
p378
S'<bound method ExtensionConnection.execute of <se...extension_connection.ExtensionConnection object>>'
p379
sS'response'
p380
g119
sS'driver_command'
p381
S"'findElement'"
p382
ssg82
I163
sg83
(dp383
I160
S"            params['sessionId'] = self.session_id"
p384
sI161
S''
sI162
S'        params = self._wrap_value(params)'
p385
sI163
S'        response = self.command_executor.execute(driver_command, params)'
p386
sI164
S'        if response:'
p387
sI165
S'            self.error_handler.check_response(response)'
p388
sI166
S"            response['value'] = self._unwrap_value("
p389
sI167
S"                response.get('value', None))"
p390
sI158
S"            params = {'sessionId': self.session_id}"
p391
sI159
S"        elif 'sessionId' not in params:"
p392
ssg95
S"(self=<selenium.webdriver.firefox.webdriver.WebDriver object>, driver_command='findElement', params={'sessionId': u'4796fd58-15a8-48bf-b6b4-b13ab7c9a476', 'using': 'id', 'value': 'add_user_id'})"
p393
sg97
S'execute'
p394
sa(dp395
g74
S'/usr/local/lib/python2.7/dist-packages/selenium/webdriver/remote/remote_connection.py'
p396
sg76
(dp397
S'url'
p398
S"u'http://127.0.0.1:50627/hub/session/4796fd58-15a8-48bf-b6b4-b13ab7c9a476/element'"
p399
sS'self'
p400
S'<selenium.webdriver.firefox.extension_connection.ExtensionConnection object>'
p401
sS'command_info'
p402
S"('POST', '/session/$sessionId/element')"
p403
sS'self._request'
p404
S'<bound method ExtensionConnection._request of <s...extension_connection.ExtensionConnection object>>'
p405
sS'data'
p406
S'\'{"using": "id", "sessionId": "4796fd58-15a8-48bf-b6b4-b13ab7c9a476", "value": "add_user_id"}\''
p407
sS'method'
p408
g119
ssg82
I349
sg83
(dp409
I352
S'        """'
p410
sI353
S'        Send an HTTP request to the remote server.'
p411
sI344
S'        command_info = self._commands[command]'
p412
sI345
S"        assert command_info is not None, 'Unrecognised command %s' % command"
p413
sI346
S'        data = utils.dump_json(params)'
p414
sI347
S'        path = string.Template(command_info[1]).substitute(params)'
p415
sI348
S"        url = '%s%s' % (self._url, path)"
p416
sI349
S'        return self._request(url, method=command_info[0], data=data)'
p417
sI350
S''
sI351
S'    def _request(self, url, data=None, method=None):'
p418
ssg95
S"(self=<selenium.webdriver.firefox.extension_connection.ExtensionConnection object>, command='findElement', params={'sessionId': u'4796fd58-15a8-48bf-b6b4-b13ab7c9a476', 'using': 'id', 'value': 'add_user_id'})"
p419
sg97
g394
sa(dp420
g74
S'/usr/local/lib/python2.7/dist-packages/selenium/webdriver/remote/remote_connection.py'
p421
sg76
(dp422
S'opener'
p423
S'<urllib2.OpenerDirector instance>'
p424
sS'request'
p425
S'<selenium.webdriver.remote.remote_connection.Request instance>'
p426
sS'response'
p427
g119
sS'opener.open'
p428
S'<bound method OpenerDirector.open of <urllib2.OpenerDirector instance>>'
p429
ssg82
I396
sg83
(dp430
I391
S'                                          HttpErrorHandler(),'
p431
sI392
S'                                          url_request.HTTPBasicAuthHandler(password_manager))'
p432
sI393
S'        else:'
p433
sI394
S'            opener = url_request.build_opener(url_request.HTTPRedirectHandler(),'
p434
sI395
S'                                          HttpErrorHandler())'
p435
sI396
S'        response = opener.open(request)'
p436
sI397
S'        try:'
p437
sI398
S'            if response.code > 399 and response.code < 500:'
p438
sI399
S"                return {'status': response.code, 'value': response.read()}"
p439
sI400
S"            body = response.read().decode('utf-8').replace('\\x00', '').strip()"
p440
ssg95
S'(self=<selenium.webdriver.firefox.extension_connection.ExtensionConnection object>, url=u\'http://127.0.0.1:50627/hub/session/4796fd58-15a8-48bf-b6b4-b13ab7c9a476/element\', data=\'{"using": "id", "sessionId": "4796fd58-15a8-48bf-b6b4-b13ab7c9a476", "value": "add_user_id"}\', method=\'POST\')'
p441
sg97
S'_request'
p442
sa(dp443
g74
S'/usr/lib/python2.7/urllib2.py'
p444
sg76
(dp445
S'self'
p446
S'<urllib2.OpenerDirector instance>'
p447
sS'req'
p448
S'<selenium.webdriver.remote.remote_connection.Request instance>'
p449
sS'data'
p450
S'None'
p451
sS'response'
p452
g119
sS'self._open'
p453
S'<bound method OpenerDirector._open of <urllib2.OpenerDirector instance>>'
p454
ssg82
I400
sg83
(dp455
I395
S'        meth_name = protocol+"_request"'
p456
sI396
S'        for processor in self.process_request.get(protocol, []):'
p457
sI397
S'            meth = getattr(processor, meth_name)'
p458
sI398
S'            req = meth(req)'
p459
sI399
S''
sI400
S'        response = self._open(req, data)'
p460
sI401
S''
sI402
S'        # post-process response'
p461
sI403
S'        meth_name = protocol+"_response"'
p462
sI404
S'        for processor in self.process_response.get(protocol, []):'
p463
ssg95
S'(self=<urllib2.OpenerDirector instance>, fullurl=<selenium.webdriver.remote.remote_connection.Request instance>, data=None, timeout=<object object>)'
p464
sg97
S'open'
p465
sa(dp466
g74
S'/usr/lib/python2.7/urllib2.py'
p467
sg76
(dp468
S'req'
p469
S'<selenium.webdriver.remote.remote_connection.Request instance>'
p470
ssg82
I418
sg83
(dp471
I416
S'        protocol = req.get_type()'
p472
sI417
S'        result = self._call_chain(self.handle_open, protocol, protocol +'
p473
sI418
S"                                  '_open', req)"
p474
sI419
S'        if result:'
p475
sI420
S'            return result'
p476
sI421
S''
sI422
S"        return self._call_chain(self.handle_open, 'unknown',"
p477
sI413
S'        if result:'
p478
sI414
S'            return result'
p479
sI415
S''
ssg95
S'(self=<urllib2.OpenerDirector instance>, req=<selenium.webdriver.remote.remote_connection.Request instance>, data=None)'
p480
sg97
S'_open'
p481
sa(dp482
g74
S'/usr/lib/python2.7/urllib2.py'
p483
sg76
(dp484
S'args'
p485
S'(<selenium.webdriver.remote.remote_connection.Request instance>,)'
p486
sS'result'
p487
g119
sS'func'
p488
S'<bound method HTTPHandler.http_open of <urllib2.HTTPHandler instance>>'
p489
ssg82
I378
sg83
(dp490
I373
S'        # could.  Otherwise, they return the response.'
p491
sI374
S'        handlers = chain.get(kind, ())'
p492
sI375
S'        for handler in handlers:'
p493
sI376
S'            func = getattr(handler, meth_name)'
p494
sI377
S''
sI378
S'            result = func(*args)'
p495
sI379
S'            if result is not None:'
p496
sI380
S'                return result'
p497
sI381
S''
sI382
S'    def open(self, fullurl, data=None, timeout=socket._GLOBAL_DEFAULT_TIMEOUT):'
p498
ssg95
S"(self=<urllib2.OpenerDirector instance>, chain={'file': [<urllib2.FileHandler instance>], 'ftp': [<urllib2.FTPHandler instance>], 'http': [<urllib2.HTTPHandler instance>], 'https': [<urllib2.HTTPSHandler instance>], 'unknown': [<urllib2.UnknownHandler instance>]}, kind=u'http', meth_name=u'http_open', *args=(<selenium.webdriver.remote.remote_connection.Request instance>,))"
p499
sg97
S'_call_chain'
p500
sa(dp501
g74
S'/usr/lib/python2.7/urllib2.py'
p502
sg76
(dp503
S'self'
p504
S'<urllib2.HTTPHandler instance>'
p505
sS'req'
p506
S'<selenium.webdriver.remote.remote_connection.Request instance>'
p507
sS'global httplib'
p508
S"<module 'httplib' from '/usr/lib/python2.7/httplib.pyc'>"
p509
sS'self.do_open'
p510
S'<bound method HTTPHandler.do_open of <urllib2.HTTPHandler instance>>'
p511
sS'httplib.HTTPConnection'
p512
S'<class httplib.HTTPConnection>'
p513
ssg82
I1207
sg83
(dp514
I1202
S''
sI1203
S''
sI1204
S'class HTTPHandler(AbstractHTTPHandler):'
p515
sI1205
S''
sI1206
S'    def http_open(self, req):'
p516
sI1207
S'        return self.do_open(httplib.HTTPConnection, req)'
p517
sI1208
S''
sI1209
S'    http_request = AbstractHTTPHandler.do_request_'
p518
sI1210
S''
sI1211
S"if hasattr(httplib, 'HTTPS'):"
p519
ssg95
S'(self=<urllib2.HTTPHandler instance>, req=<selenium.webdriver.remote.remote_connection.Request instance>)'
p520
sg97
S'http_open'
p521
sa(dp522
g74
S'/usr/lib/python2.7/urllib2.py'
p523
sg76
(dp524
S'err'
p525
S"error(111, 'Connection refused')"
p526
sS'global URLError'
p527
S"<class 'urllib2.URLError'>"
p528
ssg82
I1177
sg83
(dp529
I1172
S''
sI1173
S'        try:'
p530
sI1174
S'            h.request(req.get_method(), req.get_selector(), req.data, headers)'
p531
sI1175
S'        except socket.error, err: # XXX what error?'
p532
sI1176
S'            h.close()'
p533
sI1177
S'            raise URLError(err)'
p534
sI1178
S'        else:'
p535
sI1179
S'            try:'
p536
sI1180
S'                r = h.getresponse(buffering=True)'
p537
sI1181
S'            except TypeError: # buffering kw not supported'
p538
ssg95
S'(self=<urllib2.HTTPHandler instance>, http_class=<class httplib.HTTPConnection>, req=<selenium.webdriver.remote.remote_connection.Request instance>)'
p539
sg97
S'do_open'
p540
sasS'pyver'
p541
S'Python 2.7.3: /usr/bin/python (prefix: /usr)'
p542
sS'session'
p543
g69
(S's\x1a\x00\x00\x00<div><table></table></div>'
tRp544
sS'etype'
p545
S"<class 'urllib2.URLError'>"
p546
sS'date'
p547
S'Mon Sep 30 14:02:31 2013'
p548
sS'response'
p549
g69
(S's\xac,\x00\x00<div><table><tr><td style="font-weight:bold;vertical-align:top">body</td><td valign="top">:</td><td><div>&lt;cStringIO.StringO object at 0x7f9a482b1998&gt;</div></td></tr><tr><td style="font-weight:bold;vertical-align:top">cookies</td><td valign="top">:</td><td><div><table><tr><td style="font-weight:bold;vertical-align:top">session_id_testapp</td><td valign="top">:</td><td><div>127.0.0.1-6a3d0021-f0d7-44c0-9410-74aa38cd4103<table><tr><td style="font-weight:bold;vertical-align:top">comment</td><td valign="top">:</td><td><div></div></td></tr><tr><td style="font-weight:bold;vertical-align:top">domain</td><td valign="top">:</td><td><div></div></td></tr><tr><td style="font-weight:bold;vertical-align:top">expires</td><td valign="top">:</td><td><div></div></td></tr><tr><td style="font-weight:bold;vertical-align:top">httponly</td><td valign="top">:</td><td><div></div></td></tr><tr><td style="font-weight:bold;vertical-align:top">max-age</td><td valign="top">:</td><td><div></div></td></tr><tr><td style="font-weight:bold;vertical-align:top">path</td><td valign="top">:</td><td><div>/</div></td></tr><tr><td style="font-weight:bold;vertical-align:top">secure</td><td valign="top">:</td><td><div></div></td></tr><tr><td style="font-weight:bold;vertical-align:top">version</td><td valign="top">:</td><td><div></div></td></tr></table></div></td></tr></table></div></td></tr><tr><td style="font-weight:bold;vertical-align:top">delimiters</td><td valign="top">:</td><td><div><table><tr><td><div>{{</div></td></tr><tr><td><div>}}</div></td></tr></table></div></td></tr><tr><td style="font-weight:bold;vertical-align:top">files</td><td valign="top">:</td><td><div><table></table></div></td></tr><tr><td style="font-weight:bold;vertical-align:top">flash</td><td valign="top">:</td><td><div>Success!</div></td></tr><tr><td style="font-weight:bold;vertical-align:top">generic_patterns</td><td valign="top">:</td><td><div><table></table></div></td></tr><tr><td style="font-weight:bold;vertical-align:top">google_analytics_id</td><td valign="top">:</td><td><div>None</div></td></tr><tr><td style="font-weight:bold;vertical-align:top">headers</td><td valign="top">:</td><td><div><table><tr><td style="font-weight:bold;vertical-align:top">X-Powered-By</td><td valign="top">:</td><td><div>web2py</div></td></tr></table></div></td></tr><tr><td style="font-weight:bold;vertical-align:top">logo</td><td valign="top">:</td><td><div><a class="brand" href="http://www.web2py.com/"><b>web<span>2</span>py</b>&trade;&nbsp;</a></div></td></tr><tr><td style="font-weight:bold;vertical-align:top">menu</td><td valign="top">:</td><td><div><table><tr><td><div><table><tr><td><div>Home</div></td></tr><tr><td><div>False</div></td></tr><tr><td><div>/testapp/default/index</div></td></tr><tr><td><div><table></table></div></td></tr></table></div></td></tr><tr><td><div><table><tr><td><div><span class="highlighted">web2py</span></div></td></tr><tr><td><div>False</div></td></tr><tr><td><div>http://web2py.com</div></td></tr><tr><td><div><table><tr><td><div><table><tr><td><div>My Sites</div></td></tr><tr><td><div>False</div></td></tr><tr><td><div>/admin/default/site</div></td></tr></table></div></td></tr><tr><td><div><table><tr><td><div>This App</div></td></tr><tr><td><div>False</div></td></tr><tr><td><div>/admin/default/design/testapp</div></td></tr><tr><td><div>[(&lt;lazyT &#x27;Controller&#x27;&gt;, False, &#x27;/admin/default/edit/testapp/controllers/default.py&#x27;), (&lt;lazyT &#x27;View&#x27;&gt;, False, &#x27;/admin/default/edit/testapp/views/default/unit_testing.html&#x27;), (&lt;lazyT &#x27;Layout&#x27;&gt;, False, &#x27;/admin/default/edit/testapp/views/layout.html&#x27;), (&lt;lazyT &#x27;Stylesheet&#x27;&gt;, False, &#x27;/admin/default/edit/testapp/static/css/web2py.css&#x27;), (&lt;lazyT &#x27;DB Model&#x27;&gt;, False, &#x27;/admin/default/edit/testapp/models/db.py&#x27;), (&lt;lazyT &#x27;Menu Model&#x27;&gt;, False, &#x27;/admin/default/edit/testapp/models/menu.py&#x27;), (&lt;lazyT &#x27;Database&#x27;&gt;, False, &#x27;/testapp/appadmin/index&#x27;), (&lt;lazyT &#x27;Errors&#x27;&gt;, False, &#x27;/admin/default/errors/testapp&#x27;), (&lt;lazyT &#x27;About&#x27;&gt;, False, &#x27;/admin/default/about/testapp&#x27;)]</div></td></tr></table></div></td></tr><tr><td><div><table><tr><td><div>web2py.com</div></td></tr><tr><td><div>False</div></td></tr><tr><td><div>http://www.web2py.com</div></td></tr><tr><td><div>[(&lt;lazyT &#x27;Download&#x27;&gt;, False, &#x27;http://www.web2py.com/examples/default/download&#x27;), (&lt;lazyT &#x27;Support&#x27;&gt;, False, &#x27;http://www.web2py.com/examples/default/support&#x27;), (&lt;lazyT &#x27;Demo&#x27;&gt;, False, &#x27;http://web2py.com/demo_admin&#x27;), (&lt;lazyT &#x27;Quick Examples&#x27;&gt;, False, &#x27;http://web2py.com/examples/default/examples&#x27;), (&lt;lazyT &#x27;FAQ&#x27;&gt;, False, &#x27;http://web2py.com/AlterEgo&#x27;), (&lt;lazyT &#x27;Videos&#x27;&gt;, False, &#x27;http://www.web2py.com/examples/default/videos/&#x27;), (&lt;lazyT &#x27;Free Applications&#x27;&gt;, False, &#x27;http://web2py.com/appliances&#x27;), (&lt;lazyT &#x27;Plugins&#x27;&gt;, False, &#x27;http://web2py.com/plugins&#x27;), (&lt;lazyT &#x27;Layouts&#x27;&gt;, False, &#x27;http://web2py.com/layouts&#x27;), (&lt;lazyT &#x27;Recipes&#x27;&gt;, False, &#x27;http://web2pyslices.com/&#x27;), (&lt;lazyT &#x27;Semantic&#x27;&gt;, False, &#x27;http://web2py.com/semantic&#x27;)]</div></td></tr></table></div></td></tr><tr><td><div><table><tr><td><div>Documentation</div></td></tr><tr><td><div>False</div></td></tr><tr><td><div>http://www.web2py.com/book</div></td></tr><tr><td><div>[(&lt;lazyT &#x27;Preface&#x27;&gt;, False, &#x27;http://www.web2py.com/book/default/chapter/00&#x27;), (&lt;lazyT &#x27;Introduction&#x27;&gt;, False, &#x27;http://www.web2py.com/book/default/chapter/01&#x27;), (&lt;lazyT &#x27;Python&#x27;&gt;, False, &#x27;http://www.web2py.com/book/default/chapter/02&#x27;), (&lt;lazyT &#x27;Overview&#x27;&gt;, False, &#x27;http://www.web2py.com/book/default/chapter/03&#x27;), (&lt;lazyT &#x27;The Core&#x27;&gt;, False, &#x27;http://www.web2py.com/book/default/chapter/04&#x27;), (&lt;lazyT &#x27;The Views&#x27;&gt;, False, &#x27;http://www.web2py.com/book/default/chapter/05&#x27;), (&lt;lazyT &#x27;Database&#x27;&gt;, False, &#x27;http://www.web2py.com/book/default/chapter/06&#x27;), (&lt;lazyT &#x27;Forms and Validators&#x27;&gt;, False, &#x27;http://www.web2py.com/book/default/chapter/07&#x27;), (&lt;lazyT &#x27;Email and SMS&#x27;&gt;, False, &#x27;http://www.web2py.com/book/default/chapter/08&#x27;), (&lt;lazyT &#x27;Access Control&#x27;&gt;, False, &#x27;http://www.web2py.com/book/default/chapter/09&#x27;), (&lt;lazyT &#x27;Services&#x27;&gt;, False, &#x27;http://www.web2py.com/book/default/chapter/10&#x27;), (&lt;lazyT &#x27;Ajax Recipes&#x27;&gt;, False, &#x27;http://www.web2py.com/book/default/chapter/11&#x27;), (&lt;lazyT &#x27;Components and Plugins&#x27;&gt;, False, &#x27;http://www.web2py.com/book/default/chapter/12&#x27;), (&lt;lazyT &#x27;Deployment Recipes&#x27;&gt;, False, &#x27;http://www.web2py.com/book/default/chapter/13&#x27;), (&lt;lazyT &#x27;Other Recipes&#x27;&gt;, False, &#x27;http://www.web2py.com/book/default/chapter/14&#x27;), (&lt;lazyT &#x27;Buy this book&#x27;&gt;, False, &#x27;http://stores.lulu.com/web2py&#x27;)]</div></td></tr></table></div></td></tr><tr><td><div><table><tr><td><div>Community</div></td></tr><tr><td><div>False</div></td></tr><tr><td><div>None</div></td></tr><tr><td><div>[(&lt;lazyT &#x27;Groups&#x27;&gt;, False, &#x27;http://www.web2py.com/examples/default/usergroups&#x27;), (&lt;lazyT &#x27;Twitter&#x27;&gt;, False, &#x27;http://twitter.com/web2py&#x27;), (&lt;lazyT &#x27;Live Chat&#x27;&gt;, False, &#x27;http://webchat.freenode.net/?channels=web2py&#x27;)]</div></td></tr></table></div></td></tr><tr><td><div><table><tr><td><div>Plugins</div></td></tr><tr><td><div>False</div></td></tr><tr><td><div>None</div></td></tr><tr><td><div>[(&#x27;plugin_wiki&#x27;, False, &#x27;http://web2py.com/examples/default/download&#x27;), (&lt;lazyT &#x27;Other Plugins&#x27;&gt;, False, &#x27;http://web2py.com/plugins&#x27;), (&lt;lazyT &#x27;Layout Plugins&#x27;&gt;, False, &#x27;http://web2py.com/layouts&#x27;)]</div></td></tr></table></div></td></tr></table></div></td></tr></table></div></td></tr></table></div></td></tr><tr><td style="font-weight:bold;vertical-align:top">meta</td><td valign="top">:</td><td><div><table><tr><td style="font-weight:bold;vertical-align:top">author</td><td valign="top">:</td><td><div>Your Name &lt;you@example.com&gt;</div></td></tr><tr><td style="font-weight:bold;vertical-align:top">description</td><td valign="top">:</td><td><div>a cool new app</div></td></tr><tr><td style="font-weight:bold;vertical-align:top">generator</td><td valign="top">:</td><td><div>Web2py Web Framework</div></td></tr><tr><td style="font-weight:bold;vertical-align:top">keywords</td><td valign="top">:</td><td><div>web2py, python, framework</div></td></tr></table></div></td></tr><tr><td style="font-weight:bold;vertical-align:top">models_to_run</td><td valign="top">:</td><td><div><table><tr><td><div>^\\w+\\.py$</div></td></tr><tr><td><div>^default/\\w+\\.py$</div></td></tr><tr><td><div>^default/unit_testing/\\w+\\.py$</div></td></tr></table></div></td></tr><tr><td style="font-weight:bold;vertical-align:top">postprocessing</td><td valign="top">:</td><td><div><table></table></div></td></tr><tr><td style="font-weight:bold;vertical-align:top">session_cookie_expires</td><td valign="top">:</td><td><div>None</div></td></tr><tr><td style="font-weight:bold;vertical-align:top">session_data_name</td><td valign="top">:</td><td><div>session_data_testapp</div></td></tr><tr><td style="font-weight:bold;vertical-align:top">session_file</td><td valign="top">:</td><td><div>&lt;open file &#x27;/home/baadalvm/Desktop/web2py/applications/testapp/sessions/127.0.0.1-6a3d0021-f0d7-44c0-9410-74aa38cd4103&#x27;, mode &#x27;rb+&#x27; at 0x7f9a4453d930&gt;</div></td></tr><tr><td style="font-weight:bold;vertical-align:top">session_filename</td><td valign="top">:</td><td><div>/home/baadalvm/Desktop/web2py/applications/testapp/sessions/127.0.0.1-6a3d0021-f0d7-44c0-9410-74aa38cd4103</div></td></tr><tr><td style="font-weight:bold;vertical-align:top">session_id</td><td valign="top">:</td><td><div>127.0.0.1-6a3d0021-f0d7-44c0-9410-74aa38cd4103</div></td></tr><tr><td style="font-weight:bold;vertical-align:top">session_id_name</td><td valign="top">:</td><td><div>session_id_testapp</div></td></tr><tr><td style="font-weight:bold;vertical-align:top">session_locked</td><td valign="top">:</td><td><div>True</div></td></tr><tr><td style="font-weight:bold;vertical-align:top">session_new</td><td valign="top">:</td><td><div>False</div></td></tr><tr><td style="font-weight:bold;vertical-align:top">session_storage_type</td><td valign="top">:</td><td><div>file</div></td></tr><tr><td style="font-weight:bold;vertical-align:top">status</td><td valign="top">:</td><td><div>200</div></td></tr><tr><td style="font-weight:bold;vertical-align:top">subtitle</td><td valign="top">:</td><td><div>customize me!</div></td></tr><tr><td style="font-weight:bold;vertical-align:top">title</td><td valign="top">:</td><td><div>Testapp</div></td></tr><tr><td style="font-weight:bold;vertical-align:top">view</td><td valign="top">:</td><td><div>default/unit_testing.html</div></td></tr></table></div>'
tRp550
sS'locals'
p551
(dp552
S'err'
p553
S"error(111, 'Connection refused')"
p554
sS'h'
S'<httplib.HTTPConnection instance>'
p555
sS'self'
p556
S'<urllib2.HTTPHandler instance>'
p557
sS'req'
p558
S'<selenium.webdriver.remote.remote_connection.Request instance>'
p559
sS'headers'
p560
S"{'Accept': 'application/json', 'Connection': 'close', 'Content-Length': '92', 'Content-Type': 'application/json;charset=UTF-8', 'Host': u'127.0.0.1:50627', 'User-Agent': 'Python-urllib/2.7'}"
p561
sS'host'
p562
S"u'127.0.0.1:50627'"
p563
sS'http_class'
p564
S'<class httplib.HTTPConnection>'
p565
sssS'traceback'
p566
S'Traceback (most recent call last):\n  File "/home/baadalvm/Desktop/web2py/gluon/restricted.py", line 212, in restricted\n    exec ccode in environment\n  File "/home/baadalvm/Desktop/web2py/applications/testapp/controllers/default.py", line 224, in <module>\n  File "/home/baadalvm/Desktop/web2py/gluon/globals.py", line 194, in <lambda>\n    self._caller = lambda f: f()\n  File "/home/baadalvm/Desktop/web2py/applications/testapp/controllers/default.py", line 134, in unit_testing\n    test_script(test_case_no)\n  File "/home/baadalvm/Desktop/web2py/applications/testapp/models/test.py", line 167, in test_script\n    vm_name2=isImage(driver,xml_child,xml_sub_child,table_path)\n  File "/home/baadalvm/Desktop/web2py/applications/testapp/models/test.py", line 691, in isImage\n    vm_running(xml_child,xml_sub_child,driver)\n  File "/home/baadalvm/Desktop/web2py/applications/testapp/models/test.py", line 426, in vm_running\n    operation_name=check_operation(driver,xml_child,xml_sub_child,vm_name,vm_id)\n  File "/home/baadalvm/Desktop/web2py/applications/testapp/models/test.py", line 305, in check_operation\n    operation_name=click_on_operation(driver,xml_sub_child,xml_child,vm_name,vm_id)\n  File "/home/baadalvm/Desktop/web2py/applications/testapp/models/test.py", line 383, in click_on_operation\n    add_user(driver,xml_sub_child,xml_child,vm_name,vm_id)\n  File "/home/baadalvm/Desktop/web2py/applications/testapp/models/test.py", line 290, in add_user\n    isInput_add(driver, xml_sub_child)\n  File "/home/baadalvm/Desktop/web2py/applications/testapp/models/test.py", line 629, in isInput_add\n    field = driver.find_element_by_id(xml_sub_child.get("user_id"))\n  File "/usr/local/lib/python2.7/dist-packages/selenium/webdriver/remote/webdriver.py", line 198, in find_element_by_id\n    return self.find_element(by=By.ID, value=id_)\n  File "/usr/local/lib/python2.7/dist-packages/selenium/webdriver/remote/webdriver.py", line 680, in find_element\n    {\'using\': by, \'value\': value})[\'value\']\n  File "/usr/local/lib/python2.7/dist-packages/selenium/webdriver/remote/webdriver.py", line 163, in execute\n    response = self.command_executor.execute(driver_command, params)\n  File "/usr/local/lib/python2.7/dist-packages/selenium/webdriver/remote/remote_connection.py", line 349, in execute\n    return self._request(url, method=command_info[0], data=data)\n  File "/usr/local/lib/python2.7/dist-packages/selenium/webdriver/remote/remote_connection.py", line 396, in _request\n    response = opener.open(request)\n  File "/usr/lib/python2.7/urllib2.py", line 400, in open\n    response = self._open(req, data)\n  File "/usr/lib/python2.7/urllib2.py", line 418, in _open\n    \'_open\', req)\n  File "/usr/lib/python2.7/urllib2.py", line 378, in _call_chain\n    result = func(*args)\n  File "/usr/lib/python2.7/urllib2.py", line 1207, in http_open\n    return self.do_open(httplib.HTTPConnection, req)\n  File "/usr/lib/python2.7/urllib2.py", line 1177, in do_open\n    raise URLError(err)\nURLError: <urlopen error [Errno 111] Connection refused>\n'
p567
s.