(dp1
S'output'
p2
S"<class 'httplib.BadStatusLine'> ''"
p3
sS'layer'
p4
S'/home/monika/Desktop/web2py/applications/testapp/controllers/default.py'
p5
sS'code'
p6
S'54# -*- coding: utf-8 -*-\n# this file is released under public domain and you can use without limitations\n\n#########################################################################\n## This is a sample controller\n## - index is the default action of any application\n## - user is required for authentication and authorization\n## - download is for downloading files uploaded in the db (does streaming)\n## - call exposes all registered services (none by default)\n#########################################################################\ndef user():\n    """\n    exposes:\n    http://..../[app]/default/user/login\n    http://..../[app]/default/user/logout\n    http://..../[app]/default/user/register\n    http://..../[app]/default/user/profile\n    http://..../[app]/default/user/retrieve_password\n    http://..../[app]/default/user/change_password\n    http://..../[app]/default/user/manage_users (requires membership in \n    use @auth.requires_login()\n        @auth.requires_membership(\'group name\')\n        @auth.requires_permission(\'read\',\'table name\',record_id)\n    to decorate functions that need access control\n    """\n    return dict(form=auth())\n\n#@cache.action()\ndef download():\n    """\n    allows downloading of uploaded files\n    http://..../[app]/default/download/[filename]\n    """\n    return response.download(request, db)\n\n\ndef call():\n    """\n    exposes services. for example:\n    http://..../[app]/default/call/jsonrpc\n    decorate with @services.jsonrpc the functions to expose\n    supports xml, json, xmlrpc, jsonrpc, amfrpc, rss, csv\n    """\n    return service()\n\n\n@auth.requires_signature()\ndef data():\n    """\n    http://..../[app]/default/data/tables\n    http://..../[app]/default/data/create/[table]\n    http://..../[app]/default/data/read/[table]/[id]\n    http://..../[app]/default/data/update/[table]/[id]\n    http://..../[app]/default/data/delete/[table]/[id]\n    http://..../[app]/default/data/select/[table]\n    http://..../[app]/default/data/search/[table]\n    but URLs must be signed, i.e. linked with\n      A(\'table\',_href=URL(\'data/tables\',user_signature=True))\n    or with the signed load operator\n      LOAD(\'default\',\'data.load\',args=\'tables\',ajax=True,user_signature=True)\n    """\n    return dict(form=crud())\n    \n    \n    \ndef unit_testing():\n    import commands\n    form = FORM(  TABLE\n         ( \n            TR(INPUT(_name=\'testcase1\', _type=\'checkbox\', _value="1"),\'Login\'),\n            TR(INPUT(_name=\'testcase2\', _type=\'checkbox\', _value="2"),\'Request VM\'),\n            TR(INPUT(_name=\'testcase3\', _type=\'checkbox\', _value="3"),\'My VMs\'),\n            TR(INPUT(_name=\'testcase4\', _type=\'checkbox\', _value="4"),\'My Pending Tasks\'),\n            TR(INPUT(_name=\'testcase5\', _type=\'checkbox\', _value="5"),\'My Completed Tasks\'),\n            TR(INPUT(_name=\'testcase6\', _type=\'checkbox\', _value="6"),\'My Failed Taskss\'),\n            TR(INPUT(_name=\'testcase7\', _type=\'checkbox\', _value="7"),\'Pending Faculty-Level VM Approvals(Install VM)\'),\n            TR(INPUT(_name=\'testcase46\', _type=\'checkbox\', _value="46"),\'Pending Faculty-Level VM Approvals(Clone VM)\'),\n            TR(INPUT(_name=\'testcase49\', _type=\'checkbox\', _value="49"),\'Pending Faculty-Level VM Approvals(Attach Disk)\'),\n            TR(INPUT(_name=\'testcase50\', _type=\'checkbox\', _value="50"),\'Pending Faculty-Level VM Approvals(Edit Configuration)\'),\n            TR(INPUT(_name=\'testcase8\', _type=\'checkbox\', _value="8"),\'Pending Org-Level VM Approvals(Install VM)\'),\n            TR(INPUT(_name=\'testcase51\', _type=\'checkbox\', _value="51"),\'Pending Org-Level VM Approvals(Clone VM)\'),\n            TR(INPUT(_name=\'testcase52\', _type=\'checkbox\', _value="52"),\'Pending Org-Level VM Approvals(Attach Disk)\'),\n            TR(INPUT(_name=\'testcase53\', _type=\'checkbox\', _value="53"),\'Pending Org-Level VM Approvals(Edit Configuration)\'),\n           TR(INPUT(_name=\'testcase9\', _type=\'checkbox\', _value="9"),\'List All Org-Level VMs\',),\n           TR(INPUT(_name=\'testcase10\', _type=\'checkbox\', _value="10"),\'All VMs\'),\n           TR(INPUT(_name=\'testcase19\', _type=\'checkbox\', _value="19"),\'Pending VM Requests(Install VM)\'),\n           TR(INPUT(_name=\'testcase54\', _type=\'checkbox\', _value="54"),\'Pending VM Requests(Clone VM)\'),\n           TR(INPUT(_name=\'testcase55\', _type=\'checkbox\', _value="55"),\'Pending VM Requests(Attach Disk)\'),\n           TR(INPUT(_name=\'testcase56\', _type=\'checkbox\', _value="56"),\'Pending VM Requests(Edit Configuration)\'),\n           TR(INPUT(_name=\'testcase11\', _type=\'checkbox\', _value="11"),\'Host and VMs\',),\n           TR(INPUT(_name=\'testcase12\', _type=\'checkbox\', _value="12"),\'Pending Tasks\'),\n           TR(INPUT(_name=\'testcase13\', _type=\'checkbox\', _value="13"),\'Completed Tasks\'),\n           TR(INPUT(_name=\'testcase14\', _type=\'checkbox\', _value="14"),\'Failed Tasks\'),\n           TR(INPUT(_name=\'testcase15\', _type=\'checkbox\', _value="15"),\'Configure System: Add Host\'),\n           TR(INPUT(_name=\'testcase16\', _type=\'checkbox\', _value="16"),\'Configure System: Add Template\'),\n           TR(INPUT(_name=\'testcase17\', _type=\'checkbox\', _value="17"),\'Configure System: Add Datastore\'),\n           TR(INPUT(_name=\'testcase18\', _type=\'checkbox\', _value="18"),\'Take VM snapshot    (Running )\'),\n           \n           \n           TR(INPUT(_name=\'testcase20\', _type=\'checkbox\', _value="20"),\'Pause VM    (Running )\'),\n           \n           TR(INPUT(_name=\'testcase21\', _type=\'checkbox\', _value="21"),\'Add User to VM   (Running )\'),\n           \n           TR(INPUT(_name=\'testcase22\', _type=\'checkbox\', _value="22"),\'Delete VM    (Running)\'),\n           TR(INPUT(_name=\'testcase23\', _type=\'checkbox\', _value="23"),\'Gracefully shut down VM    (Running )\'),\n           TR(INPUT(_name=\'testcase24\', _type=\'checkbox\', _value="24"),\'Forcefully power off VM   (Running )\'),\n            TR(INPUT(_name=\'testcase25\', _type=\'checkbox\', _value="25"),\'Attach Extra Disk to VM   (Running )\'),\n          TR(INPUT(_name=\'testcase57\', _type=\'checkbox\', _value="57"),\'Migrate VM(Runnig)\'),\n           TR(INPUT(_name=\'testcase26\', _type=\'checkbox\', _value="26"),\'Take VM snapshot   (Paused )\'),\n           TR(INPUT(_name=\'testcase27\', _type=\'checkbox\', _value="27"),\'Migrate VM(Paused)\'),\n           TR(INPUT(_name=\'testcase28\', _type=\'checkbox\', _value="28"),\'Unpause VM   (Paused )\'),\n           TR(INPUT(_name=\'testcase29\', _type=\'checkbox\', _value="29"),\'Add User to VM  (Paused )\'),\n           TR(INPUT(_name=\'testcase30\', _type=\'checkbox\', _value="30"),\'Delete VM   (Paused )\'),\n           TR(INPUT(_name=\'testcase31\', _type=\'checkbox\', _value="31"),\'Adjust VM Resources Utilization   (Paused )\'),\n           TR(INPUT(_name=\'testcase32\', _type=\'checkbox\', _value="32"),\'Forcefully power off VM   (Paused)\'),\n           TR(INPUT(_name=\'testcase33\', _type=\'checkbox\', _value="33"),\'Delete Addtional User   (Paused )\'), \n           TR(INPUT(_name=\'testcase47\', _type=\'checkbox\', _value="47"),\'Revert Snapshot    (Paused )\'),\n           TR(INPUT(_name=\'testcase42\', _type=\'checkbox\', _value="42"),\'Delete Snapshot    (Paused )\'),\n           TR(INPUT(_name=\'testcase34\', _type=\'checkbox\', _value="34"),\'Edit VM Config   (Running )\'),\n           TR(INPUT(_name=\'testcase35\', _type=\'checkbox\', _value="35"),\'Turn on VM   (Shutdown )\'),\n           TR(INPUT(_name=\'testcase36\', _type=\'checkbox\', _value="36"),\'Add User to VM  (Shutdown)\'),\n           TR(INPUT(_name=\'testcase37\', _type=\'checkbox\', _value="37"),\'Delete VM   (Shutdown )\'),\n           TR(INPUT(_name=\'testcase38\', _type=\'checkbox\', _value="38"),\'Attach Extra Disk  (Shutdown )\'),\n           TR(INPUT(_name=\'testcase39\', _type=\'checkbox\', _value="39"),\'Request Clone VM   (Shutdown )\'),\n            TR(INPUT(_name=\'testcase40\', _type=\'checkbox\', _value="40"),\'Edit VM Config   (Shutdown )\'),\n           TR(INPUT(_name=\'testcase41\', _type=\'checkbox\', _value="41"),\'Assign VNC   (Shutdown )\'),\n           TR(INPUT(_name=\'testcase58\', _type=\'checkbox\', _value="58"),\'Migrate VM(Shutdown)\'),\n           TR(INPUT(_name=\'testcase43\', _type=\'checkbox\', _value="43"),\'Take VM snapshot   (Shutdown )\'),\n\n            TR(INPUT(_name=\'testcase44\', _type=\'checkbox\', _value="44"),\'Approve VM\'),\n           TR(INPUT(_name=\'testcase45\', _type=\'checkbox\', _value="45"),\'Reject VM\'),  \n           TR(INPUT(_name=\'testcase48\', _type=\'checkbox\', _value="48"),\'Sanity Table\'),\n           \n           BR(),\n           TR(INPUT(_type=\'submit\',_value=\'submit\'))\n          )\n      )\n    if form.process().accepted:\n        for i in range(1,59):\n            test_case_no=request.vars[\'testcase\'+str(i)]\n            if test_case_no!=None:\n                test_script(test_case_no)\n    elif form.errors:\n        response.flash = \'form has errors\'\n    else:\n        response.flash = \'please fill the form\'\n    return dict(form=form)\n    \n\ndef index():\n    try:\n        import commands\n        form = FORM( TABLE\n                  (  TR(INPUT(_name=\'testcase1\', _type=\'radio\', _value="1"),\'Unit Testing\'),\n                     TR(INPUT(_name=\'testcase2\', _type=\'radio\', _value="2"),\'Integration Testing\'),\n                     TR(INPUT(_name=\'testcase3\', _type=\'radio\', _value="3"),\'Stress Testing\'),\n                     TR(INPUT(_name=\'testcase4\', _type=\'radio\', _value="4"),\'Network Testing\'),\n                     BR(),\n                     TR(INPUT(_type=\'submit\',_value=\'submit\'))\n                  )\n                )        \n        if form.process().accepted:\n            if request.vars[\'testcase1\']!=None:\n                redirect(URL(\'unit_testing\'))\n            if request.vars[\'testcase2\']!=None:\n                redirect(URL(\'integration_testing\')) \n            if request.vars[\'testcase3\']!=None:\n                redirect(URL(\'stress_testing\'))  \n            if request.vars[\'testcase4\']!=None:\n                redirect(URL(\'network_testing\'))        \n        elif form.errors:\n            response.flash = \'form has errors\'\n        else:\n            response.flash = \'please fill the form\'\n        return dict(form=form)\n    except Exception as e:\n        print e\n\n\ndef network_testing():\n    print "ion" \n    import commands\n    form = FORM(TABLE\n             (   \n              \n    TR(INPUT(_name=\'testcase79\', _type=\'checkbox\', _value="79"),\'Packages Install on Host \'),\n   \n     TR(INPUT(_name=\'testcase78\', _type=\'checkbox\', _value="78"),\'Packages Install on Baadal \'),\n    \n    TR(INPUT(_name=\'testcase80\', _type=\'checkbox\', _value="80"),\'VM status on Host \'),\n    BR(),\n    TR(INPUT(_type=\'submit\',_value=\'submit\'))\n            )\n            )\n    if form.process().accepted:\n        if request.vars[\'testcase78\']!=None:\n            packages_install_test(78)\n        if request.vars[\'testcase79\']!=None:\n            packages_install_host(79) \n        if request.vars[\'testcase80\']!=None:\n            check_stat_on_host()    \n    elif form.errors:\n        response.flash = \'form has errors\'\n    else:\n        response.flash = \'please fill the form\'\n    return dict(form=form)\n    \n    \ndef stress_testing(): \n\n    import commands\n    form = FORM(  TABLE\n        (   TR(INPUT(_name=\'testcase0\', _type=\'checkbox\', _value="0"),\'All\'), \n            BR(),\n            TR(INPUT(_type=\'submit\',_value=\'submit\'))\n        )\n        )\n              \n    if form.process().accepted:\n        test_case_no=request.vars[\'testcase0\']\n        if test_case_no!=None:\n            stress_test_script()\n    elif form.errors:\n        response.flash = \'form has errors\'\n    else:\n        response.flash = \'please fill the form\'\n    return dict(form=form)\n    \n   \ndef integration_testing(): \n    import commands\n    form = FORM(  TABLE\n                  (    TR(INPUT(_name=\'testcase86\', _type=\'checkbox\', _value="86"),\'VM Performance(Memory)\'),\n                       TR(INPUT(_name=\'testcase87\', _type=\'checkbox\', _value="87"),\'VM Performance(CPU)\'),\n                       TR(INPUT(_name=\'testcase88\', _type=\'checkbox\', _value="88"),\'VM Performance(Network)\'),\n                       TR(INPUT(_name=\'testcase89\', _type=\'checkbox\', _value="89"),\'VM Performance(Disk)\'),\n                       TR(INPUT(_name=\'testcase52\', _type=\'checkbox\', _value="52"),\'Take VM snapshot    (Running )\'),\n           \n           TR(INPUT(_name=\'testcase54\', _type=\'checkbox\', _value="54"),\'Pause VM    (Running )\'),\n           \n           TR(INPUT(_name=\'testcase55\', _type=\'checkbox\', _value="55"),\'Add User to VM   (Running )\'),\n           \n           TR(INPUT(_name=\'testcase56\', _type=\'checkbox\', _value="56"),\'Delete VM    (Running)\'),\n           TR(INPUT(_name=\'testcase57\', _type=\'checkbox\', _value="57"),\'Gracefully shut down VM    (Running )\'),\n           TR(INPUT(_name=\'testcase58\', _type=\'checkbox\', _value="58"),\'Forcefully power off VM   (Running )\'),\n            TR(INPUT(_name=\'testcase59\', _type=\'checkbox\', _value="59"),\'Attach Extra Disk to VM   (Running )\'),\n                      TR(INPUT(_name=\'testcase60\', _type=\'checkbox\', _value="60"),\'Take VM snapshot   (Paused )\'),\n                      TR(INPUT(_name=\'testcase61\', _type=\'checkbox\', _value="61"),\'Unpause VM   (Paused )\'),\n                      TR(INPUT(_name=\'testcase62\', _type=\'checkbox\', _value="62"),\'Add User to VM  (Paused )\'),\n                      TR(INPUT(_name=\'testcase63\', _type=\'checkbox\', _value="63"),\'Delete VM   (Paused )\'),\n                      TR(INPUT(_name=\'testcase64\', _type=\'checkbox\', _value="64"),\'Adjust VM Resources Utilization   (Paused )\'),\n                      TR(INPUT(_name=\'testcase65\', _type=\'checkbox\', _value="65"),\'Forcefully power off VM   (Paused)\'),\n                      TR(INPUT(_name=\'testcase66\', _type=\'checkbox\', _value="66"),\'Faculty Request VM(Approved by org-admin)\'),\n                      TR(INPUT(_name=\'testcase67\', _type=\'checkbox\', _value="67"),\'Turn on VM   (Shutdown )\'),\n                      TR(INPUT(_name=\'testcase68\', _type=\'checkbox\', _value="68"),\'Add User to VM  (Shutdown)\'),\n                      TR(INPUT(_name=\'testcase69\', _type=\'checkbox\', _value="69"),\'Delete VM   (Shutdown )\'),\n                      TR(INPUT(_name=\'testcase70\', _type=\'checkbox\', _value="70"),\'Attach Extra Disk  (Shutdown )\'),\n                       TR(INPUT(_name=\'testcase71\', _type=\'checkbox\', _value="71"),\'Request Clone VM   (Shutdown )\'),\n                       TR(INPUT(_name=\'testcase72\', _type=\'checkbox\', _value="72"),\'Edit VM Config   (Shutdown )\'),\n                       TR(INPUT(_name=\'testcase73\', _type=\'checkbox\', _value="73"),\'Assign VNC   (Shutdown )\'),\n                       TR(INPUT(_name=\'testcase74\', _type=\'checkbox\', _value="74"),\'Delete VM snapshot   (Shutdown )\'),\n                       TR(INPUT(_name=\'testcase75\', _type=\'checkbox\', _value="75"),\'Take VM snapshot   (Shutdown )\'),\n                       TR(INPUT(_name=\'testcase85\', _type=\'checkbox\', _value="85"),\'Faculty Request VM(Rejected by org-admin)\'),\n                       TR(INPUT(_name=\'testcase86\', _type=\'checkbox\', _value="86"),\'Faculty Request VM(Approved by org-admin)\'),\n                       TR(INPUT(_name=\'testcase84\', _type=\'checkbox\', _value="84"),\'Admin Request VM(Approved by org-admin)\'),\n                       TR(INPUT(_name=\'testcase78\', _type=\'checkbox\', _value="78"), \'Admin Request VM(Rejected by org-admin)\'),\n                       TR(INPUT(_name=\'testcase79\', _type=\'checkbox\', _value="79"),\'User Request VM(Approved by Faculty and org-admin)\'),\n                       TR(INPUT(_name=\'testcase80\', _type=\'checkbox\', _value="80"),\'User Request VM(Rejected by Faculty)\'),\n                       TR(INPUT(_name=\'testcase81\', _type=\'checkbox\', _value="81"),\'User Request VM(Approved by Faculty and Rejected by org-admin)\'),\n                       TR(INPUT(_name=\'testcase82\', _type=\'checkbox\', _value="82"),\'Configure Template\'),\n                       TR(INPUT(_name=\'testcase83\', _type=\'checkbox\', _value="83"),\'Configure Host\'),\n                        TR(INPUT(_name=\'testcase53\', _type=\'checkbox\', _value="53"),\'Configure Datastore\'),\n                       TR(INPUT(_name=\'testcase76\', _type=\'checkbox\', _value="76"),\'Reject Attach Disk\'),\n           \n                       TR(INPUT(_name=\'testcase77\', _type=\'checkbox\', _value="77"),\'Reject Clone VM\'),\n                      \n                      BR(),\n                      TR(INPUT(_type=\'submit\',_value=\'submit\'))\n            )\n     )\n    if form.process().accepted:\n        for i in range(52,90):\n            test_case_no=request.vars[\'testcase\'+str(i)]\n            if i<=85:\n                if test_case_no!=None:\n                    test_script(test_case_no)\n            else :\n                if test_case_no!=None:\n                    graph_test(test_case_no)\n            \n    elif form.errors:\n        response.flash = \'form has errors\'\n    else:\n        response.flash = \'please fill the form\'\n    return dict(form=form)\n\nresponse._vars=response._caller(unit_testing)\n'
p7
sS'snapshot'
p8
(dp9
S'exception'
p10
(dp11
S'__module__'
p12
S"'httplib'"
p13
sS'__getslice__'
p14
S"<method-wrapper '__getslice__' of BadStatusLine object>"
p15
sS'__str__'
p16
S"<method-wrapper '__str__' of BadStatusLine object>"
p17
sS'__reduce__'
p18
S'<built-in method __reduce__ of BadStatusLine object>'
p19
sS'__dict__'
p20
S'{\'line\': "\'\'"}'
p21
sS'__sizeof__'
p22
S'<built-in method __sizeof__ of BadStatusLine object>'
p23
sS'__weakref__'
p24
S'None'
p25
sS'__init__'
p26
S'<bound method BadStatusLine.__init__ of BadStatusLine("\'\'",)>'
p27
sS'__setattr__'
p28
S"<method-wrapper '__setattr__' of BadStatusLine object>"
p29
sS'__reduce_ex__'
p30
S'<built-in method __reduce_ex__ of BadStatusLine object>'
p31
sS'__new__'
p32
S'<built-in method __new__ of type object>'
p33
sS'__format__'
p34
S'<built-in method __format__ of BadStatusLine object>'
p35
sS'__class__'
p36
S"<class 'httplib.BadStatusLine'>"
p37
sS'__doc__'
p38
S'None'
p39
sS'__getitem__'
p40
S"<method-wrapper '__getitem__' of BadStatusLine object>"
p41
sS'__setstate__'
p42
S'<built-in method __setstate__ of BadStatusLine object>'
p43
sS'__getattribute__'
p44
S"<method-wrapper '__getattribute__' of BadStatusLine object>"
p45
sS'args'
p46
S'("\'\'",)'
p47
sS'__subclasshook__'
p48
S'<built-in method __subclasshook__ of type object>'
p49
sS'line'
p50
S'"\'\'"'
p51
sS'__unicode__'
p52
S'<built-in method __unicode__ of BadStatusLine object>'
p53
sS'__delattr__'
p54
S"<method-wrapper '__delattr__' of BadStatusLine object>"
p55
sS'__repr__'
p56
S"<method-wrapper '__repr__' of BadStatusLine object>"
p57
sS'__hash__'
p58
S"<method-wrapper '__hash__' of BadStatusLine object>"
p59
ssS'evalue'
p60
S"''"
p61
sS'request'
p62
cgluon.html
XML_unpickle
p63
(S's\x08U\x00\x00<div><table><tr><td style="font-weight:bold;vertical-align:top">ajax</td><td valign="top">:</td><td><div>False</div></td></tr><tr><td style="font-weight:bold;vertical-align:top">application</td><td valign="top">:</td><td><div>testapp</div></td></tr><tr><td style="font-weight:bold;vertical-align:top">args</td><td valign="top">:</td><td><div><table></table></div></td></tr><tr><td style="font-weight:bold;vertical-align:top">body</td><td valign="top">:</td><td><div>&lt;open file &#x27;&lt;fdopen&gt;&#x27;, mode &#x27;w+b&#x27; at 0x7f2c787b3e40&gt;</div></td></tr><tr><td style="font-weight:bold;vertical-align:top">cid</td><td valign="top">:</td><td><div>None</div></td></tr><tr><td style="font-weight:bold;vertical-align:top">client</td><td valign="top">:</td><td><div>127.0.0.1</div></td></tr><tr><td style="font-weight:bold;vertical-align:top">controller</td><td valign="top">:</td><td><div>default</div></td></tr><tr><td style="font-weight:bold;vertical-align:top">cookies</td><td valign="top">:</td><td><div><table><tr><td style="font-weight:bold;vertical-align:top">session_id_admin</td><td valign="top">:</td><td><div>127.0.0.1-815706e3-563a-4555-9f32-ea0b6e9d20e2<table><tr><td style="font-weight:bold;vertical-align:top">comment</td><td valign="top">:</td><td><div></div></td></tr><tr><td style="font-weight:bold;vertical-align:top">domain</td><td valign="top">:</td><td><div></div></td></tr><tr><td style="font-weight:bold;vertical-align:top">expires</td><td valign="top">:</td><td><div></div></td></tr><tr><td style="font-weight:bold;vertical-align:top">httponly</td><td valign="top">:</td><td><div></div></td></tr><tr><td style="font-weight:bold;vertical-align:top">max-age</td><td valign="top">:</td><td><div></div></td></tr><tr><td style="font-weight:bold;vertical-align:top">path</td><td valign="top">:</td><td><div></div></td></tr><tr><td style="font-weight:bold;vertical-align:top">secure</td><td valign="top">:</td><td><div></div></td></tr><tr><td style="font-weight:bold;vertical-align:top">version</td><td valign="top">:</td><td><div></div></td></tr></table></div></td></tr><tr><td style="font-weight:bold;vertical-align:top">session_id_testapp</td><td valign="top">:</td><td><div>127.0.0.1-e30269ff-7366-41d8-85d0-ce56f4dc05d2<table><tr><td style="font-weight:bold;vertical-align:top">comment</td><td valign="top">:</td><td><div></div></td></tr><tr><td style="font-weight:bold;vertical-align:top">domain</td><td valign="top">:</td><td><div></div></td></tr><tr><td style="font-weight:bold;vertical-align:top">expires</td><td valign="top">:</td><td><div></div></td></tr><tr><td style="font-weight:bold;vertical-align:top">httponly</td><td valign="top">:</td><td><div></div></td></tr><tr><td style="font-weight:bold;vertical-align:top">max-age</td><td valign="top">:</td><td><div></div></td></tr><tr><td style="font-weight:bold;vertical-align:top">path</td><td valign="top">:</td><td><div></div></td></tr><tr><td style="font-weight:bold;vertical-align:top">secure</td><td valign="top">:</td><td><div></div></td></tr><tr><td style="font-weight:bold;vertical-align:top">version</td><td valign="top">:</td><td><div></div></td></tr></table></div></td></tr></table></div></td></tr><tr><td style="font-weight:bold;vertical-align:top">env</td><td valign="top">:</td><td><div><table><tr><td style="font-weight:bold;vertical-align:top">app_folders</td><td valign="top">:</td><td><div>set([&#x27;/home/monika/Desktop/web2py/applications/admin/&#x27;, &#x27;/home/monika/Desktop/web2py/applications/testapp/&#x27;])</div></td></tr><tr><td style="font-weight:bold;vertical-align:top">applications_parent</td><td valign="top">:</td><td><div>/home/monika/Desktop/web2py</div></td></tr><tr><td style="font-weight:bold;vertical-align:top">cmd_args</td><td valign="top">:</td><td><div><table></table></div></td></tr><tr><td style="font-weight:bold;vertical-align:top">cmd_options</td><td valign="top">:</td><td><div>&lt;Values at 0x173ffc8: {&#x27;verbose&#x27;: False, &#x27;ip&#x27;: &#x27;127.0.0.1&#x27;, &#x27;with_scheduler&#x27;: False, &#x27;ips&#x27;: [], &#x27;shutdown_timeout&#x27;: 5, &#x27;taskbar&#x27;: False, &#x27;port&#x27;: 8000, &#x27;maxthreads&#x27;: None, &#x27;softcron&#x27;: False, &#x27;server_name&#x27;: &#x27;dell-OptiPlex-7010&#x27;, &#x27;bpython&#x27;: False, &#x27;nogui&#x27;: False, &#x27;pid_filename&#x27;: &#x27;httpserver.pid&#x27;, &#x27;extcron&#x27;: False, &#x27;runcron&#x27;: False, &#x27;run_system_tests&#x27;: False, &#x27;test&#x27;: None, &#x27;folder&#x27;: &#x27;/home/monika/Desktop/web2py&#x27;, &#x27;config&#x27;: &#x27;&#x27;, &#x27;minthreads&#x27;: None, &#x27;winservice&#x27;: &#x27;&#x27;, &#x27;shell&#x27;: None, &#x27;run&#x27;: &#x27;&#x27;, &#x27;log_filename&#x27;: &#x27;httpserver.log&#x27;, &#x27;debuglevel&#x27;: 30, &#x27;args&#x27;: [&#x27;&#x27;], &#x27;socket_timeout&#x27;: 5, &#x27;ssl_ca_certificate&#x27;: None, &#x27;scheduler&#x27;: None, &#x27;profiler_filename&#x27;: None, &#x27;ssl_private_key&#x27;: &#x27;&#x27;, &#x27;scheduler_groups&#x27;: None, &#x27;password&#x27;: &#x27;&lt;ask&gt;&#x27;, &#x27;request_queue_size&#x27;: 5, &#x27;ssl_certificate&#x27;: &#x27;&#x27;, &#x27;cronjob&#x27;: False, &#x27;numthreads&#x27;: None, &#x27;quiet&#x27;: False, &#x27;interfaces&#x27;: None, &#x27;import_models&#x27;: False, &#x27;timeout&#x27;: 10, &#x27;plain&#x27;: False, &#x27;nobanner&#x27;: False}&gt;</div></td></tr><tr><td style="font-weight:bold;vertical-align:top">content_length</td><td valign="top">:</td><td><div>451</div></td></tr><tr><td style="font-weight:bold;vertical-align:top">content_type</td><td valign="top">:</td><td><div>multipart/form-data; boundary=---------------------------189777494420382996821196303799</div></td></tr><tr><td style="font-weight:bold;vertical-align:top">db_sessions</td><td valign="top">:</td><td><div>set([])</div></td></tr><tr><td style="font-weight:bold;vertical-align:top">debugging</td><td valign="top">:</td><td><div>False</div></td></tr><tr><td style="font-weight:bold;vertical-align:top">gluon_parent</td><td valign="top">:</td><td><div>/home/monika/Desktop/web2py</div></td></tr><tr><td style="font-weight:bold;vertical-align:top">http_accept</td><td valign="top">:</td><td><div>text/html,application/xhtml+xml,application/xml;q=0.9,*/*;q=0.8</div></td></tr><tr><td style="font-weight:bold;vertical-align:top">http_accept_encoding</td><td valign="top">:</td><td><div>gzip, deflate</div></td></tr><tr><td style="font-weight:bold;vertical-align:top">http_accept_language</td><td valign="top">:</td><td><div>en-US,en;q=0.5</div></td></tr><tr><td style="font-weight:bold;vertical-align:top">http_connection</td><td valign="top">:</td><td><div>keep-alive</div></td></tr><tr><td style="font-weight:bold;vertical-align:top">http_content_length</td><td valign="top">:</td><td><div>451</div></td></tr><tr><td style="font-weight:bold;vertical-align:top">http_content_type</td><td valign="top">:</td><td><div>multipart/form-data; boundary=---------------------------189777494420382996821196303799</div></td></tr><tr><td style="font-weight:bold;vertical-align:top">http_cookie</td><td valign="top">:</td><td><div>session_id_testapp=127.0.0.1-e30269ff-7366-41d8-85d0-ce56f4dc05d2; session_id_admin=127.0.0.1-815706e3-563a-4555-9f32-ea0b6e9d20e2</div></td></tr><tr><td style="font-weight:bold;vertical-align:top">http_host</td><td valign="top">:</td><td><div>127.0.0.1:8000</div></td></tr><tr><td style="font-weight:bold;vertical-align:top">http_referer</td><td valign="top">:</td><td><div>http://127.0.0.1:8000/testapp/default/unit_testing</div></td></tr><tr><td style="font-weight:bold;vertical-align:top">http_user_agent</td><td valign="top">:</td><td><div>Mozilla/5.0 (X11; Ubuntu; Linux x86_64; rv:21.0) Gecko/20100101 Firefox/21.0</div></td></tr><tr><td style="font-weight:bold;vertical-align:top">is_jython</td><td valign="top">:</td><td><div>False</div></td></tr><tr><td style="font-weight:bold;vertical-align:top">is_pypy</td><td valign="top">:</td><td><div>False</div></td></tr><tr><td style="font-weight:bold;vertical-align:top">local_hosts</td><td valign="top">:</td><td><div><table><tr><td><div>127.0.1.1</div></td></tr><tr><td><div>::1</div></td></tr><tr><td><div>dell-OptiPlex-7010</div></td></tr><tr><td><div>::ffff:127.0.0.1</div></td></tr><tr><td><div>127.0.0.1</div></td></tr></table></div></td></tr><tr><td style="font-weight:bold;vertical-align:top">path_info</td><td valign="top">:</td><td><div>/testapp/default/unit_testing</div></td></tr><tr><td style="font-weight:bold;vertical-align:top">query_string</td><td valign="top">:</td><td><div></div></td></tr><tr><td style="font-weight:bold;vertical-align:top">remote_addr</td><td valign="top">:</td><td><div>127.0.0.1</div></td></tr><tr><td style="font-weight:bold;vertical-align:top">remote_port</td><td valign="top">:</td><td><div>43187</div></td></tr><tr><td style="font-weight:bold;vertical-align:top">request_method</td><td valign="top">:</td><td><div>POST</div></td></tr><tr><td style="font-weight:bold;vertical-align:top">request_uri</td><td valign="top">:</td><td><div>/testapp/default/unit_testing</div></td></tr><tr><td style="font-weight:bold;vertical-align:top">script_name</td><td valign="top">:</td><td><div></div></td></tr><tr><td style="font-weight:bold;vertical-align:top">server_name</td><td valign="top">:</td><td><div>dell-OptiPlex-7010</div></td></tr><tr><td style="font-weight:bold;vertical-align:top">server_port</td><td valign="top">:</td><td><div>8000</div></td></tr><tr><td style="font-weight:bold;vertical-align:top">server_protocol</td><td valign="top">:</td><td><div>HTTP/1.1</div></td></tr><tr><td style="font-weight:bold;vertical-align:top">server_software</td><td valign="top">:</td><td><div>Rocket 1.2.6</div></td></tr><tr><td style="font-weight:bold;vertical-align:top">web2py_path</td><td valign="top">:</td><td><div>/home/monika/Desktop/web2py</div></td></tr><tr><td style="font-weight:bold;vertical-align:top">web2py_version</td><td valign="top">:</td><td><div>2.4.4-stable+timestamp.2013.03.11.20.32.00</div></td></tr><tr><td style="font-weight:bold;vertical-align:top">wsgi_errors</td><td valign="top">:</td><td><div>&lt;open file &#x27;&lt;stderr&gt;&#x27;, mode &#x27;w&#x27; at 0x7f2c967de270&gt;</div></td></tr><tr><td style="font-weight:bold;vertical-align:top">wsgi_file_wrapper</td><td valign="top">:</td><td><div>&lt;class wsgiref.util.FileWrapper at 0x16b1ce8&gt;</div></td></tr><tr><td style="font-weight:bold;vertical-align:top">wsgi_input</td><td valign="top">:</td><td><div>&lt;socket._fileobject object at 0x7f2c702a4850&gt;</div></td></tr><tr><td style="font-weight:bold;vertical-align:top">wsgi_multiprocess</td><td valign="top">:</td><td><div>False</div></td></tr><tr><td style="font-weight:bold;vertical-align:top">wsgi_multithread</td><td valign="top">:</td><td><div>True</div></td></tr><tr><td style="font-weight:bold;vertical-align:top">wsgi_run_once</td><td valign="top">:</td><td><div>False</div></td></tr><tr><td style="font-weight:bold;vertical-align:top">wsgi_url_scheme</td><td valign="top">:</td><td><div>http</div></td></tr><tr><td style="font-weight:bold;vertical-align:top">wsgi_version</td><td valign="top">:</td><td><div><table><tr><td><div>1</div></td></tr><tr><td><div>0</div></td></tr></table></div></td></tr></table></div></td></tr><tr><td style="font-weight:bold;vertical-align:top">extension</td><td valign="top">:</td><td><div>html</div></td></tr><tr><td style="font-weight:bold;vertical-align:top">folder</td><td valign="top">:</td><td><div>/home/monika/Desktop/web2py/applications/testapp/</div></td></tr><tr><td style="font-weight:bold;vertical-align:top">function</td><td valign="top">:</td><td><div>unit_testing</div></td></tr><tr><td style="font-weight:bold;vertical-align:top">get_vars</td><td valign="top">:</td><td><div><table></table></div></td></tr><tr><td style="font-weight:bold;vertical-align:top">global_settings</td><td valign="top">:</td><td><div><table><tr><td style="font-weight:bold;vertical-align:top">app_folders</td><td valign="top">:</td><td><div>set([&#x27;/home/monika/Desktop/web2py/applications/admin/&#x27;, &#x27;/home/monika/Desktop/web2py/applications/testapp/&#x27;])</div></td></tr><tr><td style="font-weight:bold;vertical-align:top">applications_parent</td><td valign="top">:</td><td><div>/home/monika/Desktop/web2py</div></td></tr><tr><td style="font-weight:bold;vertical-align:top">cmd_args</td><td valign="top">:</td><td><div><table></table></div></td></tr><tr><td style="font-weight:bold;vertical-align:top">cmd_options</td><td valign="top">:</td><td><div>&lt;Values at 0x173ffc8: {&#x27;verbose&#x27;: False, &#x27;ip&#x27;: &#x27;127.0.0.1&#x27;, &#x27;with_scheduler&#x27;: False, &#x27;ips&#x27;: [], &#x27;shutdown_timeout&#x27;: 5, &#x27;taskbar&#x27;: False, &#x27;port&#x27;: 8000, &#x27;maxthreads&#x27;: None, &#x27;softcron&#x27;: False, &#x27;server_name&#x27;: &#x27;dell-OptiPlex-7010&#x27;, &#x27;bpython&#x27;: False, &#x27;nogui&#x27;: False, &#x27;pid_filename&#x27;: &#x27;httpserver.pid&#x27;, &#x27;extcron&#x27;: False, &#x27;runcron&#x27;: False, &#x27;run_system_tests&#x27;: False, &#x27;test&#x27;: None, &#x27;folder&#x27;: &#x27;/home/monika/Desktop/web2py&#x27;, &#x27;config&#x27;: &#x27;&#x27;, &#x27;minthreads&#x27;: None, &#x27;winservice&#x27;: &#x27;&#x27;, &#x27;shell&#x27;: None, &#x27;run&#x27;: &#x27;&#x27;, &#x27;log_filename&#x27;: &#x27;httpserver.log&#x27;, &#x27;debuglevel&#x27;: 30, &#x27;args&#x27;: [&#x27;&#x27;], &#x27;socket_timeout&#x27;: 5, &#x27;ssl_ca_certificate&#x27;: None, &#x27;scheduler&#x27;: None, &#x27;profiler_filename&#x27;: None, &#x27;ssl_private_key&#x27;: &#x27;&#x27;, &#x27;scheduler_groups&#x27;: None, &#x27;password&#x27;: &#x27;&lt;ask&gt;&#x27;, &#x27;request_queue_size&#x27;: 5, &#x27;ssl_certificate&#x27;: &#x27;&#x27;, &#x27;cronjob&#x27;: False, &#x27;numthreads&#x27;: None, &#x27;quiet&#x27;: False, &#x27;interfaces&#x27;: None, &#x27;import_models&#x27;: False, &#x27;timeout&#x27;: 10, &#x27;plain&#x27;: False, &#x27;nobanner&#x27;: False}&gt;</div></td></tr><tr><td style="font-weight:bold;vertical-align:top">db_sessions</td><td valign="top">:</td><td><div>set([])</div></td></tr><tr><td style="font-weight:bold;vertical-align:top">debugging</td><td valign="top">:</td><td><div>False</div></td></tr><tr><td style="font-weight:bold;vertical-align:top">gluon_parent</td><td valign="top">:</td><td><div>/home/monika/Desktop/web2py</div></td></tr><tr><td style="font-weight:bold;vertical-align:top">is_jython</td><td valign="top">:</td><td><div>False</div></td></tr><tr><td style="font-weight:bold;vertical-align:top">is_pypy</td><td valign="top">:</td><td><div>False</div></td></tr><tr><td style="font-weight:bold;vertical-align:top">local_hosts</td><td valign="top">:</td><td><div><table><tr><td><div>127.0.1.1</div></td></tr><tr><td><div>::1</div></td></tr><tr><td><div>dell-OptiPlex-7010</div></td></tr><tr><td><div>::ffff:127.0.0.1</div></td></tr><tr><td><div>127.0.0.1</div></td></tr></table></div></td></tr><tr><td style="font-weight:bold;vertical-align:top">web2py_version</td><td valign="top">:</td><td><div>2.4.4-stable+timestamp.2013.03.11.20.32.00</div></td></tr></table></div></td></tr><tr><td style="font-weight:bold;vertical-align:top">is_https</td><td valign="top">:</td><td><div>False</div></td></tr><tr><td style="font-weight:bold;vertical-align:top">is_local</td><td valign="top">:</td><td><div>True</div></td></tr><tr><td style="font-weight:bold;vertical-align:top">is_restful</td><td valign="top">:</td><td><div>False</div></td></tr><tr><td style="font-weight:bold;vertical-align:top">now</td><td valign="top">:</td><td><div>datetime.datetime(2013, 11, 25, 14, 56, 25, 587923)</div></td></tr><tr><td style="font-weight:bold;vertical-align:top">post_vars</td><td valign="top">:</td><td><div><table><tr><td style="font-weight:bold;vertical-align:top">testcase2</td><td valign="top">:</td><td><div>2</div></td></tr></table></div></td></tr><tr><td style="font-weight:bold;vertical-align:top">raw_args</td><td valign="top">:</td><td><div></div></td></tr><tr><td style="font-weight:bold;vertical-align:top">raw_extension</td><td valign="top">:</td><td><div>None</div></td></tr><tr><td style="font-weight:bold;vertical-align:top">url</td><td valign="top">:</td><td><div>/testapp/default/unit_testing</div></td></tr><tr><td style="font-weight:bold;vertical-align:top">utcnow</td><td valign="top">:</td><td><div>datetime.datetime(2013, 11, 25, 9, 26, 25, 587943)</div></td></tr><tr><td style="font-weight:bold;vertical-align:top">uuid</td><td valign="top">:</td><td><div>testapp/127.0.0.1.2013-11-25.14-56-25.56478049-3a45-4fdb-8420-c555112c4f14</div></td></tr><tr><td style="font-weight:bold;vertical-align:top">vars</td><td valign="top">:</td><td><div><table><tr><td style="font-weight:bold;vertical-align:top">testcase2</td><td valign="top">:</td><td><div>2</div></td></tr></table></div></td></tr><tr><td style="font-weight:bold;vertical-align:top">wsgi</td><td valign="top">:</td><td><div><table><tr><td style="font-weight:bold;vertical-align:top">environ</td><td valign="top">:</td><td><div><table><tr><td style="font-weight:bold;vertical-align:top">CONTENT_LENGTH</td><td valign="top">:</td><td><div>451</div></td></tr><tr><td style="font-weight:bold;vertical-align:top">CONTENT_TYPE</td><td valign="top">:</td><td><div>multipart/form-data; boundary=---------------------------189777494420382996821196303799</div></td></tr><tr><td style="font-weight:bold;vertical-align:top">HTTP_ACCEPT</td><td valign="top">:</td><td><div>text/html,application/xhtml+xml,application/xml;q=0.9,*/*;q=0.8</div></td></tr><tr><td style="font-weight:bold;vertical-align:top">HTTP_ACCEPT_ENCODING</td><td valign="top">:</td><td><div>gzip, deflate</div></td></tr><tr><td style="font-weight:bold;vertical-align:top">HTTP_ACCEPT_LANGUAGE</td><td valign="top">:</td><td><div>en-US,en;q=0.5</div></td></tr><tr><td style="font-weight:bold;vertical-align:top">HTTP_CONNECTION</td><td valign="top">:</td><td><div>keep-alive</div></td></tr><tr><td style="font-weight:bold;vertical-align:top">HTTP_CONTENT_LENGTH</td><td valign="top">:</td><td><div>451</div></td></tr><tr><td style="font-weight:bold;vertical-align:top">HTTP_CONTENT_TYPE</td><td valign="top">:</td><td><div>multipart/form-data; boundary=---------------------------189777494420382996821196303799</div></td></tr><tr><td style="font-weight:bold;vertical-align:top">HTTP_COOKIE</td><td valign="top">:</td><td><div>session_id_testapp=127.0.0.1-e30269ff-7366-41d8-85d0-ce56f4dc05d2; session_id_admin=127.0.0.1-815706e3-563a-4555-9f32-ea0b6e9d20e2</div></td></tr><tr><td style="font-weight:bold;vertical-align:top">HTTP_HOST</td><td valign="top">:</td><td><div>127.0.0.1:8000</div></td></tr><tr><td style="font-weight:bold;vertical-align:top">HTTP_REFERER</td><td valign="top">:</td><td><div>http://127.0.0.1:8000/testapp/default/unit_testing</div></td></tr><tr><td style="font-weight:bold;vertical-align:top">HTTP_USER_AGENT</td><td valign="top">:</td><td><div>Mozilla/5.0 (X11; Ubuntu; Linux x86_64; rv:21.0) Gecko/20100101 Firefox/21.0</div></td></tr><tr><td style="font-weight:bold;vertical-align:top">PATH_INFO</td><td valign="top">:</td><td><div>/testapp/default/unit_testing</div></td></tr><tr><td style="font-weight:bold;vertical-align:top">QUERY_STRING</td><td valign="top">:</td><td><div></div></td></tr><tr><td style="font-weight:bold;vertical-align:top">REMOTE_ADDR</td><td valign="top">:</td><td><div>127.0.0.1</div></td></tr><tr><td style="font-weight:bold;vertical-align:top">REMOTE_PORT</td><td valign="top">:</td><td><div>43187</div></td></tr><tr><td style="font-weight:bold;vertical-align:top">REQUEST_METHOD</td><td valign="top">:</td><td><div>POST</div></td></tr><tr><td style="font-weight:bold;vertical-align:top">REQUEST_URI</td><td valign="top">:</td><td><div>/testapp/default/unit_testing</div></td></tr><tr><td style="font-weight:bold;vertical-align:top">SCRIPT_NAME</td><td valign="top">:</td><td><div></div></td></tr><tr><td style="font-weight:bold;vertical-align:top">SERVER_NAME</td><td valign="top">:</td><td><div>dell-OptiPlex-7010</div></td></tr><tr><td style="font-weight:bold;vertical-align:top">SERVER_PORT</td><td valign="top">:</td><td><div>8000</div></td></tr><tr><td style="font-weight:bold;vertical-align:top">SERVER_PROTOCOL</td><td valign="top">:</td><td><div>HTTP/1.1</div></td></tr><tr><td style="font-weight:bold;vertical-align:top">SERVER_SOFTWARE</td><td valign="top">:</td><td><div>Rocket 1.2.6</div></td></tr><tr><td style="font-weight:bold;vertical-align:top">wsgi.errors</td><td valign="top">:</td><td><div>&lt;open file &#x27;&lt;stderr&gt;&#x27;, mode &#x27;w&#x27; at 0x7f2c967de270&gt;</div></td></tr><tr><td style="font-weight:bold;vertical-align:top">wsgi.file_wrapper</td><td valign="top">:</td><td><div>&lt;class wsgiref.util.FileWrapper at 0x16b1ce8&gt;</div></td></tr><tr><td style="font-weight:bold;vertical-align:top">wsgi.input</td><td valign="top">:</td><td><div>&lt;open file &#x27;&lt;fdopen&gt;&#x27;, mode &#x27;w+b&#x27; at 0x7f2c787b3e40&gt;</div></td></tr><tr><td style="font-weight:bold;vertical-align:top">wsgi.multiprocess</td><td valign="top">:</td><td><div>False</div></td></tr><tr><td style="font-weight:bold;vertical-align:top">wsgi.multithread</td><td valign="top">:</td><td><div>True</div></td></tr><tr><td style="font-weight:bold;vertical-align:top">wsgi.run_once</td><td valign="top">:</td><td><div>False</div></td></tr><tr><td style="font-weight:bold;vertical-align:top">wsgi.url_scheme</td><td valign="top">:</td><td><div>http</div></td></tr><tr><td style="font-weight:bold;vertical-align:top">wsgi.version</td><td valign="top">:</td><td><div>1</div></td></tr></table></div></td></tr></table></div></td></tr></table></div>'
tRp64
sS'frames'
p65
(lp66
(dp67
S'file'
p68
S'/home/monika/Desktop/web2py/gluon/restricted.py'
p69
sS'dump'
p70
(dp71
S'environment'
p72
S"{'A': <class 'gluon.html.A'>, 'Auth': <class 'gluon.tools.Auth'>, 'B': <class 'gluon.html.B'>, 'BEAUTIFY': <class 'gluon.html.BEAUTIFY'>, 'BODY': <class 'gluon.html.BODY'>, 'BR': <class 'gluon.html.BR'>, 'BUTTON': <class 'gluon.html.BUTTON'>, 'CAT': <class 'gluon.html.CAT'>, 'CENTER': <class 'gluon.html.CENTER'>, 'CLEANUP': <class 'gluon.validators.CLEANUP'>, ...}"
p73
sS'ccode'
p74
S'<code object <module> at 0x7f2c784f7330, file "/...cations/testapp/controllers/default.py", line 11>'
p75
ssS'lnum'
p76
I212
sS'lines'
p77
(dp78
I207
S'    try:'
p79
sI208
S'        if isinstance(code, types.CodeType):'
p80
sI209
S'            ccode = code'
p81
sI210
S'        else:'
p82
sI211
S'            ccode = compile2(code, layer)'
p83
sI212
S'        exec ccode in environment'
p84
sI213
S'    except HTTP:'
p85
sI214
S'        raise'
p86
sI215
S'    except RestrictedError:'
p87
sI216
S'        # do not encapsulate (obfuscate) the original RestrictedError'
p88
ssS'call'
p89
S"(code='54# -*- coding: utf-8 -*-\\n# this file is release...)\\n\\nresponse._vars=response._caller(unit_testing)\\n', environment={'A': <class 'gluon.html.A'>, 'Auth': <class 'gluon.tools.Auth'>, 'B': <class 'gluon.html.B'>, 'BEAUTIFY': <class 'gluon.html.BEAUTIFY'>, 'BODY': <class 'gluon.html.BODY'>, 'BR': <class 'gluon.html.BR'>, 'BUTTON': <class 'gluon.html.BUTTON'>, 'CAT': <class 'gluon.html.CAT'>, 'CENTER': <class 'gluon.html.CENTER'>, 'CLEANUP': <class 'gluon.validators.CLEANUP'>, ...}, layer='/home/monika/Desktop/web2py/applications/testapp/controllers/default.py')"
p90
sS'func'
p91
S'restricted'
p92
sa(dp93
g68
S'/home/monika/Desktop/web2py/applications/testapp/controllers/default.py'
p94
sg70
(dp95
sg76
I297
sg77
(dp96
I288
S'                if test_case_no!=None:'
p97
sI289
S'                    graph_test(test_case_no)'
p98
sI290
S''
sI291
S'    elif form.errors:'
p99
sI292
S"        response.flash = 'form has errors'"
p100
sI293
S'    else:'
p101
sI294
S"        response.flash = 'please fill the form'"
p102
sI295
S'    return dict(form=form)'
p103
sI286
S'                    test_script(test_case_no)'
p104
sI287
S'            else :'
p105
ssg89
S'()'
p106
sg91
S'<module>'
p107
sa(dp108
g68
S'/home/monika/Desktop/web2py/gluon/globals.py'
p109
sg70
(dp110
S'self'
p111
S'undefined'
p112
sS'f'
S'<function unit_testing>'
p113
ssg76
I194
sg77
(dp114
I192
S"        self.delimiters = ('{{', '}}')"
p115
sI193
S'        self._vars = None'
p116
sI194
S'        self._caller = lambda f: f()'
p117
sI195
S'        self._view_environment = None'
p118
sI196
S'        self._custom_commit = None'
p119
sI197
S'        self._custom_rollback = None'
p120
sI198
S''
sI189
S'        self.menu = []             # used by the default view layout'
p121
sI190
S'        self.files = []            # used by web2py_ajax.html'
p122
sI191
S'        self.generic_patterns = []  # patterns to allow generic views'
p123
ssg89
S'(f=<function unit_testing>)'
p124
sg91
S'<lambda>'
p125
sa(dp126
g68
S'/home/monika/Desktop/web2py/applications/testapp/controllers/default.py'
p127
sg70
(dp128
S'test_case_no'
p129
S"'2'"
p130
sS'global test_script'
p131
S'<function test_script>'
p132
ssg76
I142
sg77
(dp133
I137
S'      )'
p134
sI138
S'    if form.process().accepted:'
p135
sI139
S'        for i in range(1,59):'
p136
sI140
S"            test_case_no=request.vars['testcase'+str(i)]"
p137
sI141
S'            if test_case_no!=None:'
p138
sI142
S'                test_script(test_case_no)'
p139
sI143
S'    elif form.errors:'
p140
sI144
S"        response.flash = 'form has errors'"
p141
sI145
S'    else:'
p142
sI146
S"        response.flash = 'please fill the form'"
p143
ssg89
S'()'
p144
sg91
S'unit_testing'
p145
sa(dp146
g68
S'/home/monika/Desktop/web2py/applications/testapp/models/test.py'
p147
sg70
(dp148
S'root'
p149
S"<Element 'test_scripts'>"
p150
sS'root.get'
p151
S"<bound method Element.get of <Element 'test_scripts'>>"
p152
sS'driver'
p153
S'<selenium.webdriver.firefox.webdriver.WebDriver object>'
p154
sS'driver.get'
p155
S'<bound method WebDriver.get of <selenium.webdriver.firefox.webdriver.WebDriver object>>'
p156
ssg76
I184
sg77
(dp157
I179
S'        i=num-1'
p158
sI180
S'        vm_name=""'
p159
sI181
S'        for j in xrange(0,len(root[i])):'
p160
sI182
S'            driver = webdriver.Firefox()#connect to selenium server'
p161
sI183
S'            driver.implicitly_wait(10)'
p162
sI184
S'            driver.get(root.get("url")) #url of the page to be hit'
p163
sI185
S''
sI186
S'            driver.find_element_by_link_text(root.get("href")).click()'
p164
sI187
S'            image=0'
p165
sI188
S'            for k in xrange(0,len(root[i][j])):'
p166
ssg89
S"(test_case_no='2')"
p167
sg91
S'test_script'
p168
sa(dp169
g68
S'/usr/local/lib/python2.7/dist-packages/selenium/webdriver/remote/webdriver.py'
p170
sg70
(dp171
S'global Command'
p172
S"<class 'selenium.webdriver.remote.command.Command'>"
p173
sS'url'
p174
S"'http://10.208.21.111/baadal'"
p175
sS'self'
p176
S'<selenium.webdriver.firefox.webdriver.WebDriver object>'
p177
sS'self.execute'
p178
S'<bound method WebDriver.execute of <selenium.webdriver.firefox.webdriver.WebDriver object>>'
p179
sS'Command.GET'
p180
S"'get'"
p181
ssg76
I177
sg77
(dp182
I172
S''
sI173
S'    def get(self, url):'
p183
sI174
S'        """'
p184
sI175
S'        Loads a web page in the current browser session.'
p185
sI176
S'        """'
p186
sI177
S"        self.execute(Command.GET, {'url': url})"
p187
sI178
S''
sI179
S'    @property'
p188
sI180
S'    def title(self):'
p189
sI181
S'        """Returns the title of the current page.'
p190
ssg89
S"(self=<selenium.webdriver.firefox.webdriver.WebDriver object>, url='http://10.208.21.111/baadal')"
p191
sg91
S'get'
p192
sa(dp193
g68
S'/usr/local/lib/python2.7/dist-packages/selenium/webdriver/remote/webdriver.py'
p194
sg70
(dp195
S'self.command_executor'
p196
S'<selenium.webdriver.firefox.extension_connection.ExtensionConnection object>'
p197
sS'self'
p198
S'<selenium.webdriver.firefox.webdriver.WebDriver object>'
p199
sS'params'
p200
S"{'sessionId': u'2daaa99b-b05d-461e-bd31-24678f20034f', 'url': 'http://10.208.21.111/baadal'}"
p201
sS'self.command_executor.execute'
p202
S'<bound method ExtensionConnection.execute of <se...extension_connection.ExtensionConnection object>>'
p203
sS'response'
p204
g112
sS'driver_command'
p205
S"'get'"
p206
ssg76
I163
sg77
(dp207
I160
S"            params['sessionId'] = self.session_id"
p208
sI161
S''
sI162
S'        params = self._wrap_value(params)'
p209
sI163
S'        response = self.command_executor.execute(driver_command, params)'
p210
sI164
S'        if response:'
p211
sI165
S'            self.error_handler.check_response(response)'
p212
sI166
S"            response['value'] = self._unwrap_value("
p213
sI167
S"                response.get('value', None))"
p214
sI158
S"            params = {'sessionId': self.session_id}"
p215
sI159
S"        elif 'sessionId' not in params:"
p216
ssg89
S"(self=<selenium.webdriver.firefox.webdriver.WebDriver object>, driver_command='get', params={'sessionId': u'2daaa99b-b05d-461e-bd31-24678f20034f', 'url': 'http://10.208.21.111/baadal'})"
p217
sg91
S'execute'
p218
sa(dp219
g68
S'/usr/local/lib/python2.7/dist-packages/selenium/webdriver/remote/remote_connection.py'
p220
sg70
(dp221
S'url'
p222
S"u'http://127.0.0.1:38695/hub/session/2daaa99b-b05d-461e-bd31-24678f20034f/url'"
p223
sS'self'
p224
S'<selenium.webdriver.firefox.extension_connection.ExtensionConnection object>'
p225
sS'command_info'
p226
S"('POST', '/session/$sessionId/url')"
p227
sS'self._request'
p228
S'<bound method ExtensionConnection._request of <s...extension_connection.ExtensionConnection object>>'
p229
sS'data'
p230
S'\'{"url": "http://10.208.21.111/baadal", "sessionId": "2daaa99b-b05d-461e-bd31-24678f20034f"}\''
p231
sS'method'
p232
g112
ssg76
I349
sg77
(dp233
I352
S'        """'
p234
sI353
S'        Send an HTTP request to the remote server.'
p235
sI344
S'        command_info = self._commands[command]'
p236
sI345
S"        assert command_info is not None, 'Unrecognised command %s' % command"
p237
sI346
S'        data = utils.dump_json(params)'
p238
sI347
S'        path = string.Template(command_info[1]).substitute(params)'
p239
sI348
S"        url = '%s%s' % (self._url, path)"
p240
sI349
S'        return self._request(url, method=command_info[0], data=data)'
p241
sI350
S''
sI351
S'    def _request(self, url, data=None, method=None):'
p242
ssg89
S"(self=<selenium.webdriver.firefox.extension_connection.ExtensionConnection object>, command='get', params={'sessionId': u'2daaa99b-b05d-461e-bd31-24678f20034f', 'url': 'http://10.208.21.111/baadal'})"
p243
sg91
g218
sa(dp244
g68
S'/usr/local/lib/python2.7/dist-packages/selenium/webdriver/remote/remote_connection.py'
p245
sg70
(dp246
S'opener'
p247
S'<urllib2.OpenerDirector instance>'
p248
sS'request'
p249
S'<selenium.webdriver.remote.remote_connection.Request instance>'
p250
sS'response'
p251
g112
sS'opener.open'
p252
S'<bound method OpenerDirector.open of <urllib2.OpenerDirector instance>>'
p253
ssg76
I396
sg77
(dp254
I391
S'                                          HttpErrorHandler(),'
p255
sI392
S'                                          url_request.HTTPBasicAuthHandler(password_manager))'
p256
sI393
S'        else:'
p257
sI394
S'            opener = url_request.build_opener(url_request.HTTPRedirectHandler(),'
p258
sI395
S'                                          HttpErrorHandler())'
p259
sI396
S'        response = opener.open(request)'
p260
sI397
S'        try:'
p261
sI398
S'            if response.code > 399 and response.code < 500:'
p262
sI399
S"                return {'status': response.code, 'value': response.read()}"
p263
sI400
S"            body = response.read().decode('utf-8').replace('\\x00', '').strip()"
p264
ssg89
S'(self=<selenium.webdriver.firefox.extension_connection.ExtensionConnection object>, url=u\'http://127.0.0.1:38695/hub/session/2daaa99b-b05d-461e-bd31-24678f20034f/url\', data=\'{"url": "http://10.208.21.111/baadal", "sessionId": "2daaa99b-b05d-461e-bd31-24678f20034f"}\', method=\'POST\')'
p265
sg91
S'_request'
p266
sa(dp267
g68
S'/usr/lib/python2.7/urllib2.py'
p268
sg70
(dp269
S'self'
p270
S'<urllib2.OpenerDirector instance>'
p271
sS'req'
p272
S'<selenium.webdriver.remote.remote_connection.Request instance>'
p273
sS'data'
p274
S'None'
p275
sS'response'
p276
g112
sS'self._open'
p277
S'<bound method OpenerDirector._open of <urllib2.OpenerDirector instance>>'
p278
ssg76
I400
sg77
(dp279
I395
S'        meth_name = protocol+"_request"'
p280
sI396
S'        for processor in self.process_request.get(protocol, []):'
p281
sI397
S'            meth = getattr(processor, meth_name)'
p282
sI398
S'            req = meth(req)'
p283
sI399
S''
sI400
S'        response = self._open(req, data)'
p284
sI401
S''
sI402
S'        # post-process response'
p285
sI403
S'        meth_name = protocol+"_response"'
p286
sI404
S'        for processor in self.process_response.get(protocol, []):'
p287
ssg89
S'(self=<urllib2.OpenerDirector instance>, fullurl=<selenium.webdriver.remote.remote_connection.Request instance>, data=None, timeout=<object object>)'
p288
sg91
S'open'
p289
sa(dp290
g68
S'/usr/lib/python2.7/urllib2.py'
p291
sg70
(dp292
S'req'
p293
S'<selenium.webdriver.remote.remote_connection.Request instance>'
p294
ssg76
I418
sg77
(dp295
I416
S'        protocol = req.get_type()'
p296
sI417
S'        result = self._call_chain(self.handle_open, protocol, protocol +'
p297
sI418
S"                                  '_open', req)"
p298
sI419
S'        if result:'
p299
sI420
S'            return result'
p300
sI421
S''
sI422
S"        return self._call_chain(self.handle_open, 'unknown',"
p301
sI413
S'        if result:'
p302
sI414
S'            return result'
p303
sI415
S''
ssg89
S'(self=<urllib2.OpenerDirector instance>, req=<selenium.webdriver.remote.remote_connection.Request instance>, data=None)'
p304
sg91
S'_open'
p305
sa(dp306
g68
S'/usr/lib/python2.7/urllib2.py'
p307
sg70
(dp308
S'args'
p309
S'(<selenium.webdriver.remote.remote_connection.Request instance>,)'
p310
sS'result'
p311
g112
sS'func'
p312
S'<bound method HTTPHandler.http_open of <urllib2.HTTPHandler instance>>'
p313
ssg76
I378
sg77
(dp314
I373
S'        # could.  Otherwise, they return the response.'
p315
sI374
S'        handlers = chain.get(kind, ())'
p316
sI375
S'        for handler in handlers:'
p317
sI376
S'            func = getattr(handler, meth_name)'
p318
sI377
S''
sI378
S'            result = func(*args)'
p319
sI379
S'            if result is not None:'
p320
sI380
S'                return result'
p321
sI381
S''
sI382
S'    def open(self, fullurl, data=None, timeout=socket._GLOBAL_DEFAULT_TIMEOUT):'
p322
ssg89
S"(self=<urllib2.OpenerDirector instance>, chain={'file': [<urllib2.FileHandler instance>], 'ftp': [<urllib2.FTPHandler instance>], 'http': [<urllib2.HTTPHandler instance>], 'https': [<urllib2.HTTPSHandler instance>], 'unknown': [<urllib2.UnknownHandler instance>]}, kind=u'http', meth_name=u'http_open', *args=(<selenium.webdriver.remote.remote_connection.Request instance>,))"
p323
sg91
S'_call_chain'
p324
sa(dp325
g68
S'/usr/lib/python2.7/urllib2.py'
p326
sg70
(dp327
S'self'
p328
S'<urllib2.HTTPHandler instance>'
p329
sS'req'
p330
S'<selenium.webdriver.remote.remote_connection.Request instance>'
p331
sS'global httplib'
p332
S"<module 'httplib' from '/usr/lib/python2.7/httplib.pyc'>"
p333
sS'self.do_open'
p334
S'<bound method HTTPHandler.do_open of <urllib2.HTTPHandler instance>>'
p335
sS'httplib.HTTPConnection'
p336
S'<class httplib.HTTPConnection>'
p337
ssg76
I1207
sg77
(dp338
I1202
S''
sI1203
S''
sI1204
S'class HTTPHandler(AbstractHTTPHandler):'
p339
sI1205
S''
sI1206
S'    def http_open(self, req):'
p340
sI1207
S'        return self.do_open(httplib.HTTPConnection, req)'
p341
sI1208
S''
sI1209
S'    http_request = AbstractHTTPHandler.do_request_'
p342
sI1210
S''
sI1211
S"if hasattr(httplib, 'HTTPS'):"
p343
ssg89
S'(self=<urllib2.HTTPHandler instance>, req=<selenium.webdriver.remote.remote_connection.Request instance>)'
p344
sg91
S'http_open'
p345
sa(dp346
g68
S'/usr/lib/python2.7/urllib2.py'
p347
sg70
(dp348
S'h'
S'<httplib.HTTPConnection instance>'
p349
sS'buffering'
p350
g112
sS'r'
g112
sS'builtinTrue'
p351
S'True'
p352
sS'h.getresponse'
p353
S'<bound method HTTPConnection.getresponse of <httplib.HTTPConnection instance>>'
p354
ssg76
I1180
sg77
(dp355
I1184
S'        # Pick apart the HTTPResponse object to get the addinfourl'
p356
sI1175
S'        except socket.error, err: # XXX what error?'
p357
sI1176
S'            h.close()'
p358
sI1177
S'            raise URLError(err)'
p359
sI1178
S'        else:'
p360
sI1179
S'            try:'
p361
sI1180
S'                r = h.getresponse(buffering=True)'
p362
sI1181
S'            except TypeError: # buffering kw not supported'
p363
sI1182
S'                r = h.getresponse()'
p364
sI1183
S''
ssg89
S'(self=<urllib2.HTTPHandler instance>, http_class=<class httplib.HTTPConnection>, req=<selenium.webdriver.remote.remote_connection.Request instance>)'
p365
sg91
S'do_open'
p366
sa(dp367
g68
S'/usr/lib/python2.7/httplib.py'
p368
sg70
(dp369
S'response.begin'
p370
S'<bound method HTTPResponse.begin of <httplib.HTTPResponse instance>>'
p371
sS'response'
p372
S'<httplib.HTTPResponse instance>'
p373
ssg76
I1030
sg77
(dp374
I1025
S'            #only add this keyword if non-default, for compatibility with'
p375
sI1026
S'            #other response_classes.'
p376
sI1027
S'            kwds["buffering"] = True;'
p377
sI1028
S'        response = self.response_class(*args, **kwds)'
p378
sI1029
S''
sI1030
S'        response.begin()'
p379
sI1031
S'        assert response.will_close != _UNKNOWN'
p380
sI1032
S'        self.__state = _CS_IDLE'
p381
sI1033
S''
sI1034
S'        if response.will_close:'
p382
ssg89
S'(self=<httplib.HTTPConnection instance>, buffering=True)'
p383
sg91
S'getresponse'
p384
sa(dp385
g68
S'/usr/lib/python2.7/httplib.py'
p386
sg70
(dp387
S'status'
p388
g112
sS'reason'
p389
g112
sS'version'
p390
g112
sS'self'
p391
S'<httplib.HTTPResponse instance>'
p392
sS'self._read_status'
p393
S'<bound method HTTPResponse._read_status of <httplib.HTTPResponse instance>>'
p394
ssg76
I407
sg77
(dp395
I402
S"            # we've already started reading the response"
p396
sI403
S'            return'
p397
sI404
S''
sI405
S'        # read until we get a non-100 response'
p398
sI406
S'        while True:'
p399
sI407
S'            version, status, reason = self._read_status()'
p400
sI408
S'            if status != CONTINUE:'
p401
sI409
S'                break'
p402
sI410
S'            # skip the header from the 100 response'
p403
sI411
S'            while True:'
p404
ssg89
S'(self=<httplib.HTTPResponse instance>)'
p405
sg91
S'begin'
p406
sa(dp407
g68
S'/usr/lib/python2.7/httplib.py'
p408
sg70
(dp409
S'line'
p410
S"''"
p411
sS'global BadStatusLine'
p412
S"<class 'httplib.BadStatusLine'>"
p413
ssg76
I371
sg77
(dp414
I366
S'        if self.debuglevel > 0:'
p415
sI367
S'            print "reply:", repr(line)'
p416
sI368
S'        if not line:'
p417
sI369
S'            # Presumably, the server closed the connection before'
p418
sI370
S'            # sending a valid response.'
p419
sI371
S'            raise BadStatusLine(line)'
p420
sI372
S'        try:'
p421
sI373
S'            [version, status, reason] = line.split(None, 2)'
p422
sI374
S'        except ValueError:'
p423
sI375
S'            try:'
p424
ssg89
S'(self=<httplib.HTTPResponse instance>)'
p425
sg91
S'_read_status'
p426
sasS'pyver'
p427
S'Python 2.7.3: /usr/bin/python (prefix: /usr)'
p428
sS'session'
p429
g63
(S's\x1a\x00\x00\x00<div><table></table></div>'
tRp430
sS'etype'
p431
S"<class 'httplib.BadStatusLine'>"
p432
sS'date'
p433
S'Mon Nov 25 14:57:25 2013'
p434
sS'response'
p435
g63
(S's\xa8,\x00\x00<div><table><tr><td style="font-weight:bold;vertical-align:top">body</td><td valign="top">:</td><td><div>&lt;cStringIO.StringO object at 0x7f2c68146378&gt;</div></td></tr><tr><td style="font-weight:bold;vertical-align:top">cookies</td><td valign="top">:</td><td><div><table><tr><td style="font-weight:bold;vertical-align:top">session_id_testapp</td><td valign="top">:</td><td><div>127.0.0.1-e30269ff-7366-41d8-85d0-ce56f4dc05d2<table><tr><td style="font-weight:bold;vertical-align:top">comment</td><td valign="top">:</td><td><div></div></td></tr><tr><td style="font-weight:bold;vertical-align:top">domain</td><td valign="top">:</td><td><div></div></td></tr><tr><td style="font-weight:bold;vertical-align:top">expires</td><td valign="top">:</td><td><div></div></td></tr><tr><td style="font-weight:bold;vertical-align:top">httponly</td><td valign="top">:</td><td><div></div></td></tr><tr><td style="font-weight:bold;vertical-align:top">max-age</td><td valign="top">:</td><td><div></div></td></tr><tr><td style="font-weight:bold;vertical-align:top">path</td><td valign="top">:</td><td><div>/</div></td></tr><tr><td style="font-weight:bold;vertical-align:top">secure</td><td valign="top">:</td><td><div></div></td></tr><tr><td style="font-weight:bold;vertical-align:top">version</td><td valign="top">:</td><td><div></div></td></tr></table></div></td></tr></table></div></td></tr><tr><td style="font-weight:bold;vertical-align:top">delimiters</td><td valign="top">:</td><td><div><table><tr><td><div>{{</div></td></tr><tr><td><div>}}</div></td></tr></table></div></td></tr><tr><td style="font-weight:bold;vertical-align:top">files</td><td valign="top">:</td><td><div><table></table></div></td></tr><tr><td style="font-weight:bold;vertical-align:top">flash</td><td valign="top">:</td><td><div>Success!</div></td></tr><tr><td style="font-weight:bold;vertical-align:top">generic_patterns</td><td valign="top">:</td><td><div><table></table></div></td></tr><tr><td style="font-weight:bold;vertical-align:top">google_analytics_id</td><td valign="top">:</td><td><div>None</div></td></tr><tr><td style="font-weight:bold;vertical-align:top">headers</td><td valign="top">:</td><td><div><table><tr><td style="font-weight:bold;vertical-align:top">X-Powered-By</td><td valign="top">:</td><td><div>web2py</div></td></tr></table></div></td></tr><tr><td style="font-weight:bold;vertical-align:top">logo</td><td valign="top">:</td><td><div><a class="brand" href="http://www.web2py.com/"><b>web<span>2</span>py</b>&trade;&nbsp;</a></div></td></tr><tr><td style="font-weight:bold;vertical-align:top">menu</td><td valign="top">:</td><td><div><table><tr><td><div><table><tr><td><div>Home</div></td></tr><tr><td><div>False</div></td></tr><tr><td><div>/testapp/default/index</div></td></tr><tr><td><div><table></table></div></td></tr></table></div></td></tr><tr><td><div><table><tr><td><div><span class="highlighted">web2py</span></div></td></tr><tr><td><div>False</div></td></tr><tr><td><div>http://web2py.com</div></td></tr><tr><td><div><table><tr><td><div><table><tr><td><div>My Sites</div></td></tr><tr><td><div>False</div></td></tr><tr><td><div>/admin/default/site</div></td></tr></table></div></td></tr><tr><td><div><table><tr><td><div>This App</div></td></tr><tr><td><div>False</div></td></tr><tr><td><div>/admin/default/design/testapp</div></td></tr><tr><td><div>[(&lt;lazyT &#x27;Controller&#x27;&gt;, False, &#x27;/admin/default/edit/testapp/controllers/default.py&#x27;), (&lt;lazyT &#x27;View&#x27;&gt;, False, &#x27;/admin/default/edit/testapp/views/default/unit_testing.html&#x27;), (&lt;lazyT &#x27;Layout&#x27;&gt;, False, &#x27;/admin/default/edit/testapp/views/layout.html&#x27;), (&lt;lazyT &#x27;Stylesheet&#x27;&gt;, False, &#x27;/admin/default/edit/testapp/static/css/web2py.css&#x27;), (&lt;lazyT &#x27;DB Model&#x27;&gt;, False, &#x27;/admin/default/edit/testapp/models/db.py&#x27;), (&lt;lazyT &#x27;Menu Model&#x27;&gt;, False, &#x27;/admin/default/edit/testapp/models/menu.py&#x27;), (&lt;lazyT &#x27;Database&#x27;&gt;, False, &#x27;/testapp/appadmin/index&#x27;), (&lt;lazyT &#x27;Errors&#x27;&gt;, False, &#x27;/admin/default/errors/testapp&#x27;), (&lt;lazyT &#x27;About&#x27;&gt;, False, &#x27;/admin/default/about/testapp&#x27;)]</div></td></tr></table></div></td></tr><tr><td><div><table><tr><td><div>web2py.com</div></td></tr><tr><td><div>False</div></td></tr><tr><td><div>http://www.web2py.com</div></td></tr><tr><td><div>[(&lt;lazyT &#x27;Download&#x27;&gt;, False, &#x27;http://www.web2py.com/examples/default/download&#x27;), (&lt;lazyT &#x27;Support&#x27;&gt;, False, &#x27;http://www.web2py.com/examples/default/support&#x27;), (&lt;lazyT &#x27;Demo&#x27;&gt;, False, &#x27;http://web2py.com/demo_admin&#x27;), (&lt;lazyT &#x27;Quick Examples&#x27;&gt;, False, &#x27;http://web2py.com/examples/default/examples&#x27;), (&lt;lazyT &#x27;FAQ&#x27;&gt;, False, &#x27;http://web2py.com/AlterEgo&#x27;), (&lt;lazyT &#x27;Videos&#x27;&gt;, False, &#x27;http://www.web2py.com/examples/default/videos/&#x27;), (&lt;lazyT &#x27;Free Applications&#x27;&gt;, False, &#x27;http://web2py.com/appliances&#x27;), (&lt;lazyT &#x27;Plugins&#x27;&gt;, False, &#x27;http://web2py.com/plugins&#x27;), (&lt;lazyT &#x27;Layouts&#x27;&gt;, False, &#x27;http://web2py.com/layouts&#x27;), (&lt;lazyT &#x27;Recipes&#x27;&gt;, False, &#x27;http://web2pyslices.com/&#x27;), (&lt;lazyT &#x27;Semantic&#x27;&gt;, False, &#x27;http://web2py.com/semantic&#x27;)]</div></td></tr></table></div></td></tr><tr><td><div><table><tr><td><div>Documentation</div></td></tr><tr><td><div>False</div></td></tr><tr><td><div>http://www.web2py.com/book</div></td></tr><tr><td><div>[(&lt;lazyT &#x27;Preface&#x27;&gt;, False, &#x27;http://www.web2py.com/book/default/chapter/00&#x27;), (&lt;lazyT &#x27;Introduction&#x27;&gt;, False, &#x27;http://www.web2py.com/book/default/chapter/01&#x27;), (&lt;lazyT &#x27;Python&#x27;&gt;, False, &#x27;http://www.web2py.com/book/default/chapter/02&#x27;), (&lt;lazyT &#x27;Overview&#x27;&gt;, False, &#x27;http://www.web2py.com/book/default/chapter/03&#x27;), (&lt;lazyT &#x27;The Core&#x27;&gt;, False, &#x27;http://www.web2py.com/book/default/chapter/04&#x27;), (&lt;lazyT &#x27;The Views&#x27;&gt;, False, &#x27;http://www.web2py.com/book/default/chapter/05&#x27;), (&lt;lazyT &#x27;Database&#x27;&gt;, False, &#x27;http://www.web2py.com/book/default/chapter/06&#x27;), (&lt;lazyT &#x27;Forms and Validators&#x27;&gt;, False, &#x27;http://www.web2py.com/book/default/chapter/07&#x27;), (&lt;lazyT &#x27;Email and SMS&#x27;&gt;, False, &#x27;http://www.web2py.com/book/default/chapter/08&#x27;), (&lt;lazyT &#x27;Access Control&#x27;&gt;, False, &#x27;http://www.web2py.com/book/default/chapter/09&#x27;), (&lt;lazyT &#x27;Services&#x27;&gt;, False, &#x27;http://www.web2py.com/book/default/chapter/10&#x27;), (&lt;lazyT &#x27;Ajax Recipes&#x27;&gt;, False, &#x27;http://www.web2py.com/book/default/chapter/11&#x27;), (&lt;lazyT &#x27;Components and Plugins&#x27;&gt;, False, &#x27;http://www.web2py.com/book/default/chapter/12&#x27;), (&lt;lazyT &#x27;Deployment Recipes&#x27;&gt;, False, &#x27;http://www.web2py.com/book/default/chapter/13&#x27;), (&lt;lazyT &#x27;Other Recipes&#x27;&gt;, False, &#x27;http://www.web2py.com/book/default/chapter/14&#x27;), (&lt;lazyT &#x27;Buy this book&#x27;&gt;, False, &#x27;http://stores.lulu.com/web2py&#x27;)]</div></td></tr></table></div></td></tr><tr><td><div><table><tr><td><div>Community</div></td></tr><tr><td><div>False</div></td></tr><tr><td><div>None</div></td></tr><tr><td><div>[(&lt;lazyT &#x27;Groups&#x27;&gt;, False, &#x27;http://www.web2py.com/examples/default/usergroups&#x27;), (&lt;lazyT &#x27;Twitter&#x27;&gt;, False, &#x27;http://twitter.com/web2py&#x27;), (&lt;lazyT &#x27;Live Chat&#x27;&gt;, False, &#x27;http://webchat.freenode.net/?channels=web2py&#x27;)]</div></td></tr></table></div></td></tr><tr><td><div><table><tr><td><div>Plugins</div></td></tr><tr><td><div>False</div></td></tr><tr><td><div>None</div></td></tr><tr><td><div>[(&#x27;plugin_wiki&#x27;, False, &#x27;http://web2py.com/examples/default/download&#x27;), (&lt;lazyT &#x27;Other Plugins&#x27;&gt;, False, &#x27;http://web2py.com/plugins&#x27;), (&lt;lazyT &#x27;Layout Plugins&#x27;&gt;, False, &#x27;http://web2py.com/layouts&#x27;)]</div></td></tr></table></div></td></tr></table></div></td></tr></table></div></td></tr></table></div></td></tr><tr><td style="font-weight:bold;vertical-align:top">meta</td><td valign="top">:</td><td><div><table><tr><td style="font-weight:bold;vertical-align:top">author</td><td valign="top">:</td><td><div>Your Name &lt;you@example.com&gt;</div></td></tr><tr><td style="font-weight:bold;vertical-align:top">description</td><td valign="top">:</td><td><div>a cool new app</div></td></tr><tr><td style="font-weight:bold;vertical-align:top">generator</td><td valign="top">:</td><td><div>Web2py Web Framework</div></td></tr><tr><td style="font-weight:bold;vertical-align:top">keywords</td><td valign="top">:</td><td><div>web2py, python, framework</div></td></tr></table></div></td></tr><tr><td style="font-weight:bold;vertical-align:top">models_to_run</td><td valign="top">:</td><td><div><table><tr><td><div>^\\w+\\.py$</div></td></tr><tr><td><div>^default/\\w+\\.py$</div></td></tr><tr><td><div>^default/unit_testing/\\w+\\.py$</div></td></tr></table></div></td></tr><tr><td style="font-weight:bold;vertical-align:top">postprocessing</td><td valign="top">:</td><td><div><table></table></div></td></tr><tr><td style="font-weight:bold;vertical-align:top">session_cookie_expires</td><td valign="top">:</td><td><div>None</div></td></tr><tr><td style="font-weight:bold;vertical-align:top">session_data_name</td><td valign="top">:</td><td><div>session_data_testapp</div></td></tr><tr><td style="font-weight:bold;vertical-align:top">session_file</td><td valign="top">:</td><td><div>&lt;open file &#x27;/home/monika/Desktop/web2py/applications/testapp/sessions/127.0.0.1-e30269ff-7366-41d8-85d0-ce56f4dc05d2&#x27;, mode &#x27;rb+&#x27; at 0x7f2c702761e0&gt;</div></td></tr><tr><td style="font-weight:bold;vertical-align:top">session_filename</td><td valign="top">:</td><td><div>/home/monika/Desktop/web2py/applications/testapp/sessions/127.0.0.1-e30269ff-7366-41d8-85d0-ce56f4dc05d2</div></td></tr><tr><td style="font-weight:bold;vertical-align:top">session_id</td><td valign="top">:</td><td><div>127.0.0.1-e30269ff-7366-41d8-85d0-ce56f4dc05d2</div></td></tr><tr><td style="font-weight:bold;vertical-align:top">session_id_name</td><td valign="top">:</td><td><div>session_id_testapp</div></td></tr><tr><td style="font-weight:bold;vertical-align:top">session_locked</td><td valign="top">:</td><td><div>True</div></td></tr><tr><td style="font-weight:bold;vertical-align:top">session_new</td><td valign="top">:</td><td><div>False</div></td></tr><tr><td style="font-weight:bold;vertical-align:top">session_storage_type</td><td valign="top">:</td><td><div>file</div></td></tr><tr><td style="font-weight:bold;vertical-align:top">status</td><td valign="top">:</td><td><div>200</div></td></tr><tr><td style="font-weight:bold;vertical-align:top">subtitle</td><td valign="top">:</td><td><div>customize me!</div></td></tr><tr><td style="font-weight:bold;vertical-align:top">title</td><td valign="top">:</td><td><div>Testapp</div></td></tr><tr><td style="font-weight:bold;vertical-align:top">view</td><td valign="top">:</td><td><div>default/unit_testing.html</div></td></tr></table></div>'
tRp436
sS'locals'
p437
(dp438
g50
S"''"
p439
sS'self'
p440
S'<httplib.HTTPResponse instance>'
p441
sssS'traceback'
p442
S'Traceback (most recent call last):\n  File "/home/monika/Desktop/web2py/gluon/restricted.py", line 212, in restricted\n    exec ccode in environment\n  File "/home/monika/Desktop/web2py/applications/testapp/controllers/default.py", line 297, in <module>\n  File "/home/monika/Desktop/web2py/gluon/globals.py", line 194, in <lambda>\n    self._caller = lambda f: f()\n  File "/home/monika/Desktop/web2py/applications/testapp/controllers/default.py", line 142, in unit_testing\n    test_script(test_case_no)\n  File "/home/monika/Desktop/web2py/applications/testapp/models/test.py", line 184, in test_script\n    driver.get(root.get("url")) #url of the page to be hit\n  File "/usr/local/lib/python2.7/dist-packages/selenium/webdriver/remote/webdriver.py", line 177, in get\n    self.execute(Command.GET, {\'url\': url})\n  File "/usr/local/lib/python2.7/dist-packages/selenium/webdriver/remote/webdriver.py", line 163, in execute\n    response = self.command_executor.execute(driver_command, params)\n  File "/usr/local/lib/python2.7/dist-packages/selenium/webdriver/remote/remote_connection.py", line 349, in execute\n    return self._request(url, method=command_info[0], data=data)\n  File "/usr/local/lib/python2.7/dist-packages/selenium/webdriver/remote/remote_connection.py", line 396, in _request\n    response = opener.open(request)\n  File "/usr/lib/python2.7/urllib2.py", line 400, in open\n    response = self._open(req, data)\n  File "/usr/lib/python2.7/urllib2.py", line 418, in _open\n    \'_open\', req)\n  File "/usr/lib/python2.7/urllib2.py", line 378, in _call_chain\n    result = func(*args)\n  File "/usr/lib/python2.7/urllib2.py", line 1207, in http_open\n    return self.do_open(httplib.HTTPConnection, req)\n  File "/usr/lib/python2.7/urllib2.py", line 1180, in do_open\n    r = h.getresponse(buffering=True)\n  File "/usr/lib/python2.7/httplib.py", line 1030, in getresponse\n    response.begin()\n  File "/usr/lib/python2.7/httplib.py", line 407, in begin\n    version, status, reason = self._read_status()\n  File "/usr/lib/python2.7/httplib.py", line 371, in _read_status\n    raise BadStatusLine(line)\nBadStatusLine: \'\'\n'
p443
s.