(dp1
S'output'
p2
S"<type 'exceptions.ImportError'> No module named selenium.webdriver.common.desired_capabilities"
p3
sS'layer'
p4
S'/home/baadalvm/Desktop/web2py/applications/testapp/models/test.py'
p5
sS'code'
p6
S'# coding: utf8\nimport os\nimport thread\nimport logging\nimport datetime\nimport logging.config\nfrom selenium.webdriver.common.desired_capabilities import DesiredCapabilities\nfrom helper import xml_connect\nfrom helper import db_connection\nfrom selenium import webdriver\nfrom selenium.webdriver.common.keys import Keys\nimport sys\nimport time\n#creating a logger for logging the records\nlogger = logging.getLogger("web2py.app.testapp")\n\n#creating connection to remote database\nbaadal_db=db_connection() \n\n\n\n#################################################################################################################\n#                             The main test function for stress\n                                           #\n#################################################################################################################\ndef stress_script(m):\n    \n    \n    logging.debug("inside thread: "+str(m))\n    \n    root = xml_connect()\n    i=m\n    for j in xrange(0,len(root[i])): \n        driver = webdriver.Remote(\n       command_executor=\'http://127.0.0.1:4444/wd/hub\',\n       desired_capabilities=DesiredCapabilities.FIREFOX)#connect to selenium server\n        driver.implicitly_wait(10)\n        driver.get(root.get("url")) #url of the page to be hit \n        driver.find_element_by_link_text(root.get("href")).click()\n        \n        for k in xrange(0,len(root[i][j])):\n            field_type=root[i][j][k].get("type")\n            xml_parent=root[i]\n            xml_child=root[i][j]\n            xml_sub_child=root[i][j][k]\n\t\t\t\t\t\n            if field_type=="input": #checking for text fields\n                vm_name1=isInput(driver,xml_sub_child)\n                      \n            elif field_type=="read_only": #checking for submit button\n                isReadOnly(driver, xml_parent,xml_child,xml_sub_child)\n\t\t\t\t\t\t\n            elif field_type=="submit": #checking for submit button\n                isSubmit(driver, xml_parent,xml_child,xml_sub_child)\n                driver.implicitly_wait(10)\n\t\t\t\t\t\t\n            elif field_type=="button":#checking for button\n                time.sleep(3)\n                isButton(driver,xml_sub_child)\n\t\t\t\t\t\n            elif field_type=="scroll":#scrolling the page up/down\n                isScroll(driver,xml_sub_child)\n\t\t\t\t \t\t\n            elif field_type=="href":\n                isHref(driver,xml_sub_child)#clicking on the hyper link\n                        \n            elif field_type=="select":\n                isSelect(driver,xml_sub_child)# selecting from dropdown menu\n\t\t\t \t\n            elif field_type=="table":\n                isTable(driver,xml_parent,xml_child,xml_sub_child)#checking for data in table\n                         \n            elif field_type=="img":#checking for setting image\n                table_path=xml_sub_child.get("path")\n                isImage(driver,xml_child,xml_sub_child,table_path)\n\t\t\t\t\t\t\t\t\n            elif field_type=="check_tables":#cheking for host table\n                isCheckTable(driver,xml_parent,xml_child,xml_sub_child)\n                \n            elif field_type=="wait":\n                isWait(driver,xml_parent,xml_child,xml_sub_child)#checking for data in table\n                    \n            elif field_type=="check_data":\n                isCheckdata(driver,vm_name,xml_parent,xml_child,xml_sub_child)#checking for data in table\n                        \t\t\t\t\n            else:\n                logging.debug("report problem") #logging the report\n                \n            if k==5:\n                vm_name=vm_name1\n        driver.close()#disconnect from server\n\n\ndef stress_test_script():\n    for m in range(0,9):\n        root = xml_connect()\n        total_scripts=root.get("total_scripts")\n        test_no=m%(int(total_scripts)-1)\n        thread.start_new_thread( stress_script,(test_no,) )\n        \n        logging.debug("Thread: "+str(m))\n        \n    return\n\n\n    \n\n#################################################################################################################\n#                                       The main test function  for unit testing                                            #\n#################################################################################################################\n\t\t\ndef test_script(test_case_no):\n    print test_case_no\n    root = xml_connect()\n    num=int(test_case_no)\n    if root[num-1].get("id")==test_case_no:\n        i=num-1\n        vm_name=""\n        for j in xrange(0,len(root[i])):\n            driver = webdriver.Remote(command_executor=\'http://127.0.0.1:4444/wd/hub\', desired_capabilities=DesiredCapabilities.FIREFOX)#connect to selenium server#connect to selenium server\n            driver.implicitly_wait(10)\n            driver.get(root.get("url")) #url of the page to be hit \n            driver.find_element_by_link_text(root.get("href")).click()\n            for k in xrange(0,len(root[i][j])):\n                field_type=root[i][j][k].get("type")\n                xml_parent=root[i]\n                xml_child=root[i][j]\n                xml_sub_child=root[i][j][k]\n\t\t\t\t\t\n                if field_type=="input": #checking for text fields\n                    vm_name1=isInput(driver,xml_sub_child)\n                      \n                elif field_type=="read_only": #checking for submit button\n                    isReadOnly(driver, xml_parent,xml_child,xml_sub_child)\n\t\t\t\t\t\t\n                elif field_type=="submit": #checking for submit button\n                    isSubmit(driver, xml_parent,xml_child,xml_sub_child)\n\t\t\t\t\t\t\n                elif field_type=="button":#checking for button\n                    time.sleep(3)\n                    isButton(driver,xml_sub_child)\n\t\t\t\t\t\n                elif field_type=="scroll":#scrolling the page up/down\n                    isScroll(driver,xml_sub_child)\n\t\t\t\t \t\t\n                elif field_type=="href":\n                    isHref(driver,xml_sub_child)#clicking on the hyper link\n                    \n                elif field_type=="select":\n                    isSelect(driver,xml_sub_child)# selecting from dropdown menu\n\t\t\t \t\n                elif field_type=="table":\n                    isTable(driver,xml_parent,xml_child,xml_sub_child)#checking for data in table\n                         \n                elif field_type=="img":#checking for setting image\n                    print "qwerty"\n                    table_path=xml_sub_child.get("path")\n                    isImage(driver,xml_child,xml_sub_child,table_path)\n\t\t\t\t\t\t\t\t\n                elif field_type=="check_tables":#cheking for host table\n                    isCheckTable(driver,xml_parent,xml_child,xml_sub_child)\n                \n                elif field_type=="wait":\n                    isWait(driver,xml_parent,xml_child,xml_sub_child)#checking for data in table\n                    \n                elif field_type=="check_data":\n                    isCheckdata(driver,vm_name,xml_parent,xml_child,xml_sub_child)#checking for data in table\n                        \t\t\t\t\n                else:\n                    logging.debug("report problem") #logging the report\n                \n                if k==5:\n                    vm_name=vm_name1\n            driver.close()#disconnect from server\n           \n###############################################################################################################\n#                             Functions used by the input field functions                                     #\n###############################################################################################################\t\t\n\n# checking whether an element is present on the webpage\ndef isElementPresent(driver,xml_child, xpath):\n\ttry:\n\t\tdriver.find_element_by_xpath(xpath)\n\t\treturn 1\n\texcept:\n\t\tlogger.debug(xml_child.get("value") +\': Result:no table exists\')\n\t\treturn 0\t\n\t\t\n#checking whether front end data and daatabase entries are equal and printing the result \t\t\ndef print_result(field_text,result,xml_child):\n\tquery_result=str(result)\n\tprint "screen=          "+str(field_text)\n\tprint "db=              "+query_result\n\tif field_text ==query_result:\n\t\tlogger.debug(xml_child.get("value") +\': Result:correct input\') \n\telse:\n\t\tlogger.debug(xml_child.get("value") +\': Result:Incorrect input\')\n\treturn \n\t\ndef open_error_page(driver,xml_parent,text,row_count):#open error link on differnet page\n\t(driver.find_elements_by_link_text(text))[row_count].click()\n\tfield=driver.find_element_by_xpath(xml_parent.get("error_page"))\n\terror_message=field.text\n\tdriver.find_element_by_link_text(xml_parent.get("error_page_close_text")).click()\n\treturn error_message\n\t\ndef host_status(status):#converting host status bits into status text\n\thost_status={0:"Down",1:"Up",2:"Maintenance"}\t\n\tif status==0:\n\t\tresult=host_status[0]\n\tif status==1:\n\t\tresult=host_status[1]\n\tif status==2:\n\t\tresult=host_status[2]\n\treturn result\n\t\ndef org_task_status(status,name):#converting vm status bits into status text\n    task_status={0:"Approve  |  Reject",1:"Installation In Progress",2:"Remind Faculty"}\n    if\t(status==0 | status==2) & (name=="org_admin_pending_tasks") :\n        result=task_status[0]\n    if (status==3) & (name=="org_admin_pending_tasks"):\n        result=task_status[1]\n    if (status==0) & (name=="faculty_pending_tasks"):\n        result=task_status[2]\n    return result\n\t\ndef execute_query(sql_query,arg=None):\n    cursor=baadal_db.cursor()\n    if arg==None:\n        cursor.execute(sql_query)\n    else:\n        cursor.execute(sql_query,arg)\n    return cursor\n    \ndef click_on_dialogbox(driver):\n    alert = driver.switch_to_alert()\n    alert.accept()\n    return\n    \t\n##############################################################################################################\n#  \t\t\t\t\t           functions for various types of input fields  \t\t\t\t          \t     #\n##############################################################################################################\n\t\t\ndef isInput(driver, xml_sub_child):\n    current_time=datetime.datetime.now().strftime("%Y-%m-%d_%H:%M:%S")\n    field = driver.find_element_by_id(xml_sub_child.get("id"))\n    if xml_sub_child.text!=None:\n        field.send_keys(xml_sub_child.text) # sending the user name/password/vm name/purpose etc\n    else:\n        if not (xml_sub_child.get("id") in ["user_password","user_username"]):\n            field.send_keys(str(current_time))\t\n    return current_time\n\t\ndef isReadOnly(driver, xml_parent,xml_child,xml_sub_child):\n    current_time=datetime.datetime.now().strftime("%Y-%m-%d_%H:%M:%S")\n    field = driver.find_element_by_id(xml_sub_child.get("id"))\n    if field.get_attribute("value")!=\'\':\n        field.send_keys(xml_sub_child.text) # sending the user name/password/vm name/purpose etc\n        if field.get_attribute("value")==xml_sub_child.text:\n            logger.debug(xml_child.get("value")  +\': Result:error\') #logging the report\n        else:\n            logger.debug(xml_child.get("value")  +\': Result:no error\') #logging the report\n    else:\n        logger.debug(xml_child.get("value")  +\': Result:empty\') #logging the report\n    return \n\ndef isWait( driver, xml_parent, xml_child, xml_sub_child):\n    time.sleep(3)\n    return\n\ndef isSubmit( driver, xml_parent, xml_child, xml_sub_child):\n    current_time=datetime.datetime.now()\n    user_name=xml_child.find(\'user_name\').text\n    driver.find_element_by_xpath(xml_sub_child.text).click()\n    xpath=xml_parent.get("xpath")\n    status=isElementPresent(driver,xml_child, xpath)\n    field=driver.find_element_by_xpath(xpath)\n    if status==1:\n        if ("Logout" in field.get_attribute("innerHTML")):\n             logger.debug(xml_child.get("value")  +\': Result:Valid Login\') #logging the report\n        else:\n            logger.debug(xml_child.get("value")  +\': Result:Invalid Login\') #logging the report \n    else:\n        logger.debug(xml_child.get("value") +\': Result:error\') #logging the report\n    return\n\t\ndef isButton(driver, xml_sub_child):\n\tdriver.find_element_by_xpath(xml_sub_child.text).click()\n\treturn\n\t\t\t\ndef isScroll(driver, xml_sub_child):\n\tfield=driver.find_element_by_tag_name("html")\n\tfield.send_keys(xml_sub_child.text)\n\tdriver.execute_script("window.scrollBy(0,200)", "")\n\treturn\n\t\ndef isHref(driver, xml_sub_child):\n\tdriver.find_element_by_partial_link_text(xml_sub_child.text).click()\n\treturn\n\ndef isSelect(driver, xml_sub_child):\n\tdriver.find_element_by_xpath(xml_sub_child.text).click()\n\treturn\n\t\ndef isImage(driver,xml_child,xml_sub_child,a):\t\n    print "a"\n    if isElementPresent(driver,xml_child,a):\n        if xml_sub_child.get("name") in ["Pause","Gracefully","Forcefully","Migrate","Request","Lock","Edit","Setting","Setting_with_dialogbox","Resume"]:\n            driver.find_element_by_xpath(xml_sub_child.text).click()\n            if xml_sub_child.get("name")=="Setting_with_dialogbox":\n                click_on_dialogbox(driver)\n    return\n    \ndef isTable(driver,xml_parent,xml_child,xml_sub_child):\n    status_list={0:"Error",1:"failed_tasks",2:"TRY AGAIN | IGNORE",3:"my_pending_vm",4:"Waiting for admin approval",5:"faculty_pending_tasks",6:"Add_host",7:"org_admin_pending_tasks",8:"org_admin_all_tasks"}\n    table_path=xml_sub_child.text\n    if isElementPresent(driver,xml_child,table_path):\n        query_result=execute_query( xml_parent.get("query3")).fetchall()\n        length=len(query_result[0])#calculate number of columns of query\n        row_count=0 #number of rows in the table\n        col_count=0 #number of columns in the table\n        field=driver.find_elements_by_xpath(xml_sub_child.text)#data from gui\n        for col in field:\n            field_text=col.text\n            if field_text!="":\n                if field_text==status_list[0]:\n                    text=open_error_page(driver,xml_parent,field_text,row_count)\n                    result=query_result[row_count][col_count]#data form query\n                    print_result(text,result,xml_child)\n                    \n                elif (query_result[row_count][col_count]==4) & (xml_parent.get("name")==status_list[1]):\n                    result=status_list[2]\n                    print_result(field_text,result,xml_child)\n\n                elif (query_result[row_count][col_count]==2) & (xml_parent.get("name")==status_list[3]):\n                    result=status_list[4]\n                    print_result(field_text,result,xml_child)\n\n                elif (col_count%int(length)==6) & ((xml_parent.get("name")==status_list[5]) | (xml_parent.get("name")==status_list[7]) | (xml_parent.get("name")==status_list[8])):\n                    status=query_result[row_count][col_count]\n                    result=org_task_status(status,xml_parent.get("name"))\n                    print_result(field_text,result,xml_child)\n\n                elif (col_count%int(length)==2) & (xml_parent.get("name")==status_list[6]):\n                    status=query_result[row_count][col_count]\n                    result=host_status(status)\n                    print_result(field_text,result,xml_child)\n\t\t\t\t\t\t\n                else:\n                    result=query_result[row_count][col_count]\n                    print_result(field_text,result,xml_child)\n                col_count+=1\n                if col_count%int(length)==0:\n                    row_count+=1\n                    col_count=0\t\n    return\n\ndef isCheckTable(driver, xml_parent, xml_child, xml_sub_child):\n    field=driver.find_elements_by_xpath(xml_sub_child.get("path"))\n    query_result=execute_query(xml_parent.get("query3")).fetchall()\n    table=0\n    for header in field:\n        if query_result[table][0] in header.text:\n            table_path=xml_sub_child.text\n            if isElementPresent(driver,xml_child,table_path):\n                result_fetch=execute_query(xml_parent.get("query4")).fetchall()\n                no_of_cols=len(result_fetch[0])#calculate number of columns of query\n                field=driver.find_elements_by_xpath(xml_sub_child.text)\n                #print field.text\n                row_count=0\n                col_count=0\n                for col in field:\n                    field_text=col.text\n                    if field_text!="":\n                        result=result_fetch[row_count][col_count]\n                        print_result(field_text,result,xml_child)\n                        col_count+=1\n                        if col_count%int(no_of_cols)==0:\n                            row_count+=1\n                            col_count=0\t\t\n        table=table+1\n    return\n\n   \ndef isCheckdata(driver,vm_name,xml_parent, xml_child, xml_sub_child):\n    table_path=xml_sub_child.text\n    if isElementPresent(driver,xml_child,table_path):\n        driver.refresh()\n        field=driver.find_elements_by_xpath(xml_sub_child.text)#data from gui\n        query_result=execute_query( xml_sub_child.get("query3")).fetchone()\n        result=query_result[1]\n        for a in field:\n            row=a.text\n            if (str(vm_name) in row) | (str(query_result[0]) in row):\n                logger.debug("report"  +\': Result:Correct Flow\') #logging the report\n                if "Approve  |  Reject" in row:\n                    id=xml_sub_child.get("id")\n                    if xml_sub_child.get("click")=="Approve":\n                        print "in1"\n                        driver.find_element_by_xpath("//*[@href=\'/baadal/"+ str(id) +"/approve_request/"+ str(result) +"\']").click()\n                    else:\n                        driver.find_element_by_xpath("//*[@href=\'/baadal/"+ str(id) +"/reject_request/"+ str(result) +"\']").click()\n    return\n'
p7
sS'snapshot'
p8
(dp9
S'exception'
p10
(dp11
S'__hash__'
p12
S"<method-wrapper '__hash__' of exceptions.ImportError object>"
p13
sS'__setattr__'
p14
S"<method-wrapper '__setattr__' of exceptions.ImportError object>"
p15
sS'__reduce_ex__'
p16
S'<built-in method __reduce_ex__ of exceptions.ImportError object>'
p17
sS'__getslice__'
p18
S"<method-wrapper '__getslice__' of exceptions.ImportError object>"
p19
sS'__getitem__'
p20
S"<method-wrapper '__getitem__' of exceptions.ImportError object>"
p21
sS'__setstate__'
p22
S'<built-in method __setstate__ of exceptions.ImportError object>'
p23
sS'args'
p24
S"('No module named selenium.webdriver.common.desired_capabilities',)"
p25
sS'__reduce__'
p26
S'<built-in method __reduce__ of exceptions.ImportError object>'
p27
sS'__str__'
p28
S"<method-wrapper '__str__' of exceptions.ImportError object>"
p29
sS'__format__'
p30
S'<built-in method __format__ of exceptions.ImportError object>'
p31
sS'__getattribute__'
p32
S"<method-wrapper '__getattribute__' of exceptions.ImportError object>"
p33
sS'__class__'
p34
S"<type 'exceptions.ImportError'>"
p35
sS'__unicode__'
p36
S'<built-in method __unicode__ of exceptions.ImportError object>'
p37
sS'__delattr__'
p38
S"<method-wrapper '__delattr__' of exceptions.ImportError object>"
p39
sS'__subclasshook__'
p40
S'<built-in method __subclasshook__ of type object>'
p41
sS'__repr__'
p42
S"<method-wrapper '__repr__' of exceptions.ImportError object>"
p43
sS'__dict__'
p44
S'{}'
p45
sS'__sizeof__'
p46
S'<built-in method __sizeof__ of exceptions.ImportError object>'
p47
sS'__doc__'
p48
S'"Import can\'t find module, or can\'t find name in module."'
p49
sS'__init__'
p50
S"<method-wrapper '__init__' of exceptions.ImportError object>"
p51
sS'__new__'
p52
S'<built-in method __new__ of type object>'
p53
ssS'evalue'
p54
S'No module named selenium.webdriver.common.desired_capabilities'
p55
sS'request'
p56
cgluon.html
XML_unpickle
p57
(S's\x86H\x00\x00<div><table><tr><td style="font-weight:bold;vertical-align:top">ajax</td><td valign="top">:</td><td><div>False</div></td></tr><tr><td style="font-weight:bold;vertical-align:top">application</td><td valign="top">:</td><td><div>testapp</div></td></tr><tr><td style="font-weight:bold;vertical-align:top">args</td><td valign="top">:</td><td><div><table></table></div></td></tr><tr><td style="font-weight:bold;vertical-align:top">body</td><td valign="top">:</td><td><div>&lt;cStringIO.StringO object at 0x7f1e14279ab0&gt;</div></td></tr><tr><td style="font-weight:bold;vertical-align:top">cid</td><td valign="top">:</td><td><div>None</div></td></tr><tr><td style="font-weight:bold;vertical-align:top">client</td><td valign="top">:</td><td><div>127.0.0.1</div></td></tr><tr><td style="font-weight:bold;vertical-align:top">controller</td><td valign="top">:</td><td><div>default</div></td></tr><tr><td style="font-weight:bold;vertical-align:top">cookies</td><td valign="top">:</td><td><div><table><tr><td style="font-weight:bold;vertical-align:top">session_id_welcome</td><td valign="top">:</td><td><div>127.0.0.1-2fbd1444-ea69-4aa4-9429-400cee695684<table><tr><td style="font-weight:bold;vertical-align:top">comment</td><td valign="top">:</td><td><div></div></td></tr><tr><td style="font-weight:bold;vertical-align:top">domain</td><td valign="top">:</td><td><div></div></td></tr><tr><td style="font-weight:bold;vertical-align:top">expires</td><td valign="top">:</td><td><div></div></td></tr><tr><td style="font-weight:bold;vertical-align:top">httponly</td><td valign="top">:</td><td><div></div></td></tr><tr><td style="font-weight:bold;vertical-align:top">max-age</td><td valign="top">:</td><td><div></div></td></tr><tr><td style="font-weight:bold;vertical-align:top">path</td><td valign="top">:</td><td><div></div></td></tr><tr><td style="font-weight:bold;vertical-align:top">secure</td><td valign="top">:</td><td><div></div></td></tr><tr><td style="font-weight:bold;vertical-align:top">version</td><td valign="top">:</td><td><div></div></td></tr></table></div></td></tr></table></div></td></tr><tr><td style="font-weight:bold;vertical-align:top">env</td><td valign="top">:</td><td><div><table><tr><td style="font-weight:bold;vertical-align:top">app_folders</td><td valign="top">:</td><td><div>set([&#x27;/home/baadalvm/Desktop/web2py/applications/testapp/&#x27;, &#x27;/home/baadalvm/Desktop/web2py/applications/welcome/&#x27;])</div></td></tr><tr><td style="font-weight:bold;vertical-align:top">applications_parent</td><td valign="top">:</td><td><div>/home/baadalvm/Desktop/web2py</div></td></tr><tr><td style="font-weight:bold;vertical-align:top">cmd_args</td><td valign="top">:</td><td><div><table></table></div></td></tr><tr><td style="font-weight:bold;vertical-align:top">cmd_options</td><td valign="top">:</td><td><div>&lt;Values at 0x1781998: {&#x27;verbose&#x27;: False, &#x27;ip&#x27;: &#x27;127.0.0.1&#x27;, &#x27;with_scheduler&#x27;: False, &#x27;ips&#x27;: [&#x27;127.0.1.1&#x27;], &#x27;shutdown_timeout&#x27;: 5, &#x27;taskbar&#x27;: False, &#x27;with_coverage&#x27;: False, &#x27;port&#x27;: 8000, &#x27;maxthreads&#x27;: None, &#x27;softcron&#x27;: False, &#x27;server_name&#x27;: &#x27;baadalvm&#x27;, &#x27;bpython&#x27;: False, &#x27;nogui&#x27;: False, &#x27;pid_filename&#x27;: &#x27;httpserver.pid&#x27;, &#x27;extcron&#x27;: False, &#x27;runcron&#x27;: False, &#x27;run_system_tests&#x27;: False, &#x27;test&#x27;: None, &#x27;folder&#x27;: &#x27;/home/baadalvm/Desktop/web2py&#x27;, &#x27;config&#x27;: &#x27;&#x27;, &#x27;minthreads&#x27;: None, &#x27;winservice&#x27;: &#x27;&#x27;, &#x27;shell&#x27;: None, &#x27;run&#x27;: &#x27;&#x27;, &#x27;log_filename&#x27;: &#x27;httpserver.log&#x27;, &#x27;debuglevel&#x27;: 30, &#x27;args&#x27;: [&#x27;&#x27;], &#x27;socket_timeout&#x27;: 5, &#x27;ssl_ca_certificate&#x27;: None, &#x27;scheduler&#x27;: None, &#x27;profiler_filename&#x27;: None, &#x27;ssl_private_key&#x27;: &#x27;&#x27;, &#x27;scheduler_groups&#x27;: None, &#x27;password&#x27;: &#x27;&lt;ask&gt;&#x27;, &#x27;request_queue_size&#x27;: 5, &#x27;ssl_certificate&#x27;: &#x27;&#x27;, &#x27;cronjob&#x27;: False, &#x27;numthreads&#x27;: None, &#x27;quiet&#x27;: False, &#x27;interfaces&#x27;: None, &#x27;import_models&#x27;: False, &#x27;timeout&#x27;: 10, &#x27;plain&#x27;: False, &#x27;nobanner&#x27;: False}&gt;</div></td></tr><tr><td style="font-weight:bold;vertical-align:top">db_sessions</td><td valign="top">:</td><td><div>set([])</div></td></tr><tr><td style="font-weight:bold;vertical-align:top">debugging</td><td valign="top">:</td><td><div>False</div></td></tr><tr><td style="font-weight:bold;vertical-align:top">gluon_parent</td><td valign="top">:</td><td><div>/home/baadalvm/Desktop/web2py</div></td></tr><tr><td style="font-weight:bold;vertical-align:top">http_accept</td><td valign="top">:</td><td><div>text/html,application/xhtml+xml,application/xml;q=0.9,*/*;q=0.8</div></td></tr><tr><td style="font-weight:bold;vertical-align:top">http_accept_encoding</td><td valign="top">:</td><td><div>gzip, deflate</div></td></tr><tr><td style="font-weight:bold;vertical-align:top">http_accept_language</td><td valign="top">:</td><td><div>en-US,en;q=0.5</div></td></tr><tr><td style="font-weight:bold;vertical-align:top">http_connection</td><td valign="top">:</td><td><div>keep-alive</div></td></tr><tr><td style="font-weight:bold;vertical-align:top">http_cookie</td><td valign="top">:</td><td><div>session_id_welcome=127.0.0.1-2fbd1444-ea69-4aa4-9429-400cee695684</div></td></tr><tr><td style="font-weight:bold;vertical-align:top">http_host</td><td valign="top">:</td><td><div>127.0.0.1:8000</div></td></tr><tr><td style="font-weight:bold;vertical-align:top">http_user_agent</td><td valign="top">:</td><td><div>Mozilla/5.0 (X11; Ubuntu; Linux x86_64; rv:20.0) Gecko/20100101 Firefox/20.0</div></td></tr><tr><td style="font-weight:bold;vertical-align:top">is_jython</td><td valign="top">:</td><td><div>False</div></td></tr><tr><td style="font-weight:bold;vertical-align:top">is_pypy</td><td valign="top">:</td><td><div>False</div></td></tr><tr><td style="font-weight:bold;vertical-align:top">local_hosts</td><td valign="top">:</td><td><div><table><tr><td><div>::1</div></td></tr><tr><td><div>127.0.1.1</div></td></tr><tr><td><div>baadalvm</div></td></tr><tr><td><div>::ffff:127.0.0.1</div></td></tr><tr><td><div>127.0.0.1</div></td></tr></table></div></td></tr><tr><td style="font-weight:bold;vertical-align:top">path_info</td><td valign="top">:</td><td><div>/testapp</div></td></tr><tr><td style="font-weight:bold;vertical-align:top">query_string</td><td valign="top">:</td><td><div></div></td></tr><tr><td style="font-weight:bold;vertical-align:top">remote_addr</td><td valign="top">:</td><td><div>127.0.0.1</div></td></tr><tr><td style="font-weight:bold;vertical-align:top">remote_port</td><td valign="top">:</td><td><div>35578</div></td></tr><tr><td style="font-weight:bold;vertical-align:top">request_method</td><td valign="top">:</td><td><div>GET</div></td></tr><tr><td style="font-weight:bold;vertical-align:top">request_uri</td><td valign="top">:</td><td><div>/testapp</div></td></tr><tr><td style="font-weight:bold;vertical-align:top">script_name</td><td valign="top">:</td><td><div></div></td></tr><tr><td style="font-weight:bold;vertical-align:top">server_name</td><td valign="top">:</td><td><div>baadalvm</div></td></tr><tr><td style="font-weight:bold;vertical-align:top">server_port</td><td valign="top">:</td><td><div>8000</div></td></tr><tr><td style="font-weight:bold;vertical-align:top">server_protocol</td><td valign="top">:</td><td><div>HTTP/1.1</div></td></tr><tr><td style="font-weight:bold;vertical-align:top">server_software</td><td valign="top">:</td><td><div>Rocket 1.2.6</div></td></tr><tr><td style="font-weight:bold;vertical-align:top">web2py_path</td><td valign="top">:</td><td><div>/home/baadalvm/Desktop/web2py</div></td></tr><tr><td style="font-weight:bold;vertical-align:top">web2py_version</td><td valign="top">:</td><td><div>2.5.1-stable+timestamp.2013.06.06.15.39.19</div></td></tr><tr><td style="font-weight:bold;vertical-align:top">wsgi_errors</td><td valign="top">:</td><td><div>&lt;open file &#x27;&lt;stderr&gt;&#x27;, mode &#x27;w&#x27; at 0x7f1e272ea270&gt;</div></td></tr><tr><td style="font-weight:bold;vertical-align:top">wsgi_file_wrapper</td><td valign="top">:</td><td><div>&lt;class wsgiref.util.FileWrapper at 0x16f4390&gt;</div></td></tr><tr><td style="font-weight:bold;vertical-align:top">wsgi_input</td><td valign="top">:</td><td><div>&lt;socket._fileobject object at 0x7f1e14ad79d0&gt;</div></td></tr><tr><td style="font-weight:bold;vertical-align:top">wsgi_multiprocess</td><td valign="top">:</td><td><div>False</div></td></tr><tr><td style="font-weight:bold;vertical-align:top">wsgi_multithread</td><td valign="top">:</td><td><div>True</div></td></tr><tr><td style="font-weight:bold;vertical-align:top">wsgi_run_once</td><td valign="top">:</td><td><div>False</div></td></tr><tr><td style="font-weight:bold;vertical-align:top">wsgi_url_scheme</td><td valign="top">:</td><td><div>http</div></td></tr><tr><td style="font-weight:bold;vertical-align:top">wsgi_version</td><td valign="top">:</td><td><div><table><tr><td><div>1</div></td></tr><tr><td><div>0</div></td></tr></table></div></td></tr></table></div></td></tr><tr><td style="font-weight:bold;vertical-align:top">extension</td><td valign="top">:</td><td><div>html</div></td></tr><tr><td style="font-weight:bold;vertical-align:top">folder</td><td valign="top">:</td><td><div>/home/baadalvm/Desktop/web2py/applications/testapp/</div></td></tr><tr><td style="font-weight:bold;vertical-align:top">function</td><td valign="top">:</td><td><div>index</div></td></tr><tr><td style="font-weight:bold;vertical-align:top">get_vars</td><td valign="top">:</td><td><div><table></table></div></td></tr><tr><td style="font-weight:bold;vertical-align:top">global_settings</td><td valign="top">:</td><td><div><table><tr><td style="font-weight:bold;vertical-align:top">app_folders</td><td valign="top">:</td><td><div>set([&#x27;/home/baadalvm/Desktop/web2py/applications/testapp/&#x27;, &#x27;/home/baadalvm/Desktop/web2py/applications/welcome/&#x27;])</div></td></tr><tr><td style="font-weight:bold;vertical-align:top">applications_parent</td><td valign="top">:</td><td><div>/home/baadalvm/Desktop/web2py</div></td></tr><tr><td style="font-weight:bold;vertical-align:top">cmd_args</td><td valign="top">:</td><td><div><table></table></div></td></tr><tr><td style="font-weight:bold;vertical-align:top">cmd_options</td><td valign="top">:</td><td><div>&lt;Values at 0x1781998: {&#x27;verbose&#x27;: False, &#x27;ip&#x27;: &#x27;127.0.0.1&#x27;, &#x27;with_scheduler&#x27;: False, &#x27;ips&#x27;: [&#x27;127.0.1.1&#x27;], &#x27;shutdown_timeout&#x27;: 5, &#x27;taskbar&#x27;: False, &#x27;with_coverage&#x27;: False, &#x27;port&#x27;: 8000, &#x27;maxthreads&#x27;: None, &#x27;softcron&#x27;: False, &#x27;server_name&#x27;: &#x27;baadalvm&#x27;, &#x27;bpython&#x27;: False, &#x27;nogui&#x27;: False, &#x27;pid_filename&#x27;: &#x27;httpserver.pid&#x27;, &#x27;extcron&#x27;: False, &#x27;runcron&#x27;: False, &#x27;run_system_tests&#x27;: False, &#x27;test&#x27;: None, &#x27;folder&#x27;: &#x27;/home/baadalvm/Desktop/web2py&#x27;, &#x27;config&#x27;: &#x27;&#x27;, &#x27;minthreads&#x27;: None, &#x27;winservice&#x27;: &#x27;&#x27;, &#x27;shell&#x27;: None, &#x27;run&#x27;: &#x27;&#x27;, &#x27;log_filename&#x27;: &#x27;httpserver.log&#x27;, &#x27;debuglevel&#x27;: 30, &#x27;args&#x27;: [&#x27;&#x27;], &#x27;socket_timeout&#x27;: 5, &#x27;ssl_ca_certificate&#x27;: None, &#x27;scheduler&#x27;: None, &#x27;profiler_filename&#x27;: None, &#x27;ssl_private_key&#x27;: &#x27;&#x27;, &#x27;scheduler_groups&#x27;: None, &#x27;password&#x27;: &#x27;&lt;ask&gt;&#x27;, &#x27;request_queue_size&#x27;: 5, &#x27;ssl_certificate&#x27;: &#x27;&#x27;, &#x27;cronjob&#x27;: False, &#x27;numthreads&#x27;: None, &#x27;quiet&#x27;: False, &#x27;interfaces&#x27;: None, &#x27;import_models&#x27;: False, &#x27;timeout&#x27;: 10, &#x27;plain&#x27;: False, &#x27;nobanner&#x27;: False}&gt;</div></td></tr><tr><td style="font-weight:bold;vertical-align:top">db_sessions</td><td valign="top">:</td><td><div>set([])</div></td></tr><tr><td style="font-weight:bold;vertical-align:top">debugging</td><td valign="top">:</td><td><div>False</div></td></tr><tr><td style="font-weight:bold;vertical-align:top">gluon_parent</td><td valign="top">:</td><td><div>/home/baadalvm/Desktop/web2py</div></td></tr><tr><td style="font-weight:bold;vertical-align:top">is_jython</td><td valign="top">:</td><td><div>False</div></td></tr><tr><td style="font-weight:bold;vertical-align:top">is_pypy</td><td valign="top">:</td><td><div>False</div></td></tr><tr><td style="font-weight:bold;vertical-align:top">local_hosts</td><td valign="top">:</td><td><div><table><tr><td><div>::1</div></td></tr><tr><td><div>127.0.1.1</div></td></tr><tr><td><div>baadalvm</div></td></tr><tr><td><div>::ffff:127.0.0.1</div></td></tr><tr><td><div>127.0.0.1</div></td></tr></table></div></td></tr><tr><td style="font-weight:bold;vertical-align:top">web2py_version</td><td valign="top">:</td><td><div>2.5.1-stable+timestamp.2013.06.06.15.39.19</div></td></tr></table></div></td></tr><tr><td style="font-weight:bold;vertical-align:top">is_https</td><td valign="top">:</td><td><div>False</div></td></tr><tr><td style="font-weight:bold;vertical-align:top">is_local</td><td valign="top">:</td><td><div>True</div></td></tr><tr><td style="font-weight:bold;vertical-align:top">is_restful</td><td valign="top">:</td><td><div>False</div></td></tr><tr><td style="font-weight:bold;vertical-align:top">now</td><td valign="top">:</td><td><div>datetime.datetime(2013, 9, 2, 11, 54, 41, 67713)</div></td></tr><tr><td style="font-weight:bold;vertical-align:top">post_vars</td><td valign="top">:</td><td><div><table></table></div></td></tr><tr><td style="font-weight:bold;vertical-align:top">raw_args</td><td valign="top">:</td><td><div></div></td></tr><tr><td style="font-weight:bold;vertical-align:top">raw_extension</td><td valign="top">:</td><td><div>None</div></td></tr><tr><td style="font-weight:bold;vertical-align:top">url</td><td valign="top">:</td><td><div>/testapp</div></td></tr><tr><td style="font-weight:bold;vertical-align:top">utcnow</td><td valign="top">:</td><td><div>datetime.datetime(2013, 9, 2, 6, 24, 41, 67744)</div></td></tr><tr><td style="font-weight:bold;vertical-align:top">uuid</td><td valign="top">:</td><td><div>testapp/127.0.0.1.2013-09-02.11-54-41.9fe053ae-e4df-4b95-9cac-2cac7864494e</div></td></tr><tr><td style="font-weight:bold;vertical-align:top">vars</td><td valign="top">:</td><td><div><table></table></div></td></tr><tr><td style="font-weight:bold;vertical-align:top">wsgi</td><td valign="top">:</td><td><div><table><tr><td style="font-weight:bold;vertical-align:top">environ</td><td valign="top">:</td><td><div><table><tr><td style="font-weight:bold;vertical-align:top">HTTP_ACCEPT</td><td valign="top">:</td><td><div>text/html,application/xhtml+xml,application/xml;q=0.9,*/*;q=0.8</div></td></tr><tr><td style="font-weight:bold;vertical-align:top">HTTP_ACCEPT_ENCODING</td><td valign="top">:</td><td><div>gzip, deflate</div></td></tr><tr><td style="font-weight:bold;vertical-align:top">HTTP_ACCEPT_LANGUAGE</td><td valign="top">:</td><td><div>en-US,en;q=0.5</div></td></tr><tr><td style="font-weight:bold;vertical-align:top">HTTP_CONNECTION</td><td valign="top">:</td><td><div>keep-alive</div></td></tr><tr><td style="font-weight:bold;vertical-align:top">HTTP_COOKIE</td><td valign="top">:</td><td><div>session_id_welcome=127.0.0.1-2fbd1444-ea69-4aa4-9429-400cee695684</div></td></tr><tr><td style="font-weight:bold;vertical-align:top">HTTP_HOST</td><td valign="top">:</td><td><div>127.0.0.1:8000</div></td></tr><tr><td style="font-weight:bold;vertical-align:top">HTTP_USER_AGENT</td><td valign="top">:</td><td><div>Mozilla/5.0 (X11; Ubuntu; Linux x86_64; rv:20.0) Gecko/20100101 Firefox/20.0</div></td></tr><tr><td style="font-weight:bold;vertical-align:top">PATH_INFO</td><td valign="top">:</td><td><div>/testapp</div></td></tr><tr><td style="font-weight:bold;vertical-align:top">QUERY_STRING</td><td valign="top">:</td><td><div></div></td></tr><tr><td style="font-weight:bold;vertical-align:top">REMOTE_ADDR</td><td valign="top">:</td><td><div>127.0.0.1</div></td></tr><tr><td style="font-weight:bold;vertical-align:top">REMOTE_PORT</td><td valign="top">:</td><td><div>35578</div></td></tr><tr><td style="font-weight:bold;vertical-align:top">REQUEST_METHOD</td><td valign="top">:</td><td><div>GET</div></td></tr><tr><td style="font-weight:bold;vertical-align:top">REQUEST_URI</td><td valign="top">:</td><td><div>/testapp</div></td></tr><tr><td style="font-weight:bold;vertical-align:top">SCRIPT_NAME</td><td valign="top">:</td><td><div></div></td></tr><tr><td style="font-weight:bold;vertical-align:top">SERVER_NAME</td><td valign="top">:</td><td><div>baadalvm</div></td></tr><tr><td style="font-weight:bold;vertical-align:top">SERVER_PORT</td><td valign="top">:</td><td><div>8000</div></td></tr><tr><td style="font-weight:bold;vertical-align:top">SERVER_PROTOCOL</td><td valign="top">:</td><td><div>HTTP/1.1</div></td></tr><tr><td style="font-weight:bold;vertical-align:top">SERVER_SOFTWARE</td><td valign="top">:</td><td><div>Rocket 1.2.6</div></td></tr><tr><td style="font-weight:bold;vertical-align:top">wsgi.errors</td><td valign="top">:</td><td><div>&lt;open file &#x27;&lt;stderr&gt;&#x27;, mode &#x27;w&#x27; at 0x7f1e272ea270&gt;</div></td></tr><tr><td style="font-weight:bold;vertical-align:top">wsgi.file_wrapper</td><td valign="top">:</td><td><div>&lt;class wsgiref.util.FileWrapper at 0x16f4390&gt;</div></td></tr><tr><td style="font-weight:bold;vertical-align:top">wsgi.input</td><td valign="top">:</td><td><div>&lt;cStringIO.StringO object at 0x7f1e14279ab0&gt;</div></td></tr><tr><td style="font-weight:bold;vertical-align:top">wsgi.multiprocess</td><td valign="top">:</td><td><div>False</div></td></tr><tr><td style="font-weight:bold;vertical-align:top">wsgi.multithread</td><td valign="top">:</td><td><div>True</div></td></tr><tr><td style="font-weight:bold;vertical-align:top">wsgi.run_once</td><td valign="top">:</td><td><div>False</div></td></tr><tr><td style="font-weight:bold;vertical-align:top">wsgi.url_scheme</td><td valign="top">:</td><td><div>http</div></td></tr><tr><td style="font-weight:bold;vertical-align:top">wsgi.version</td><td valign="top">:</td><td><div>1</div></td></tr></table></div></td></tr></table></div></td></tr></table></div>'
tRp58
sS'frames'
p59
(lp60
(dp61
S'file'
p62
S'/home/baadalvm/Desktop/web2py/gluon/restricted.py'
p63
sS'dump'
p64
(dp65
S'environment'
p66
S"{'A': <class 'gluon.html.A'>, 'ANY_OF': <class 'gluon.validators.ANY_OF'>, 'Auth': <class 'gluon.tools.Auth'>, 'B': <class 'gluon.html.B'>, 'BEAUTIFY': <class 'gluon.html.BEAUTIFY'>, 'BODY': <class 'gluon.html.BODY'>, 'BR': <class 'gluon.html.BR'>, 'BUTTON': <class 'gluon.html.BUTTON'>, 'CAT': <class 'gluon.html.CAT'>, 'CENTER': <class 'gluon.html.CENTER'>, ...}"
p67
sS'ccode'
p68
S'<code object <module> at 0x7f1e14b958b0, file "/...2py/applications/testapp/models/test.py", line 2>'
p69
ssS'lnum'
p70
I212
sS'lines'
p71
(dp72
I207
S'    try:'
p73
sI208
S'        if isinstance(code, types.CodeType):'
p74
sI209
S'            ccode = code'
p75
sI210
S'        else:'
p76
sI211
S'            ccode = compile2(code, layer)'
p77
sI212
S'        exec ccode in environment'
p78
sI213
S'    except HTTP:'
p79
sI214
S'        raise'
p80
sI215
S'    except RestrictedError:'
p81
sI216
S'        # do not encapsulate (obfuscate) the original RestrictedError'
p82
ssS'call'
p83
S'(code=\'# coding: utf8\\nimport os\\nimport thread\\nimport lo...request/"+ str(result) +"\\\']").click()\\n    return\\n\', environment={\'A\': <class \'gluon.html.A\'>, \'ANY_OF\': <class \'gluon.validators.ANY_OF\'>, \'Auth\': <class \'gluon.tools.Auth\'>, \'B\': <class \'gluon.html.B\'>, \'BEAUTIFY\': <class \'gluon.html.BEAUTIFY\'>, \'BODY\': <class \'gluon.html.BODY\'>, \'BR\': <class \'gluon.html.BR\'>, \'BUTTON\': <class \'gluon.html.BUTTON\'>, \'CAT\': <class \'gluon.html.CAT\'>, \'CENTER\': <class \'gluon.html.CENTER\'>, ...}, layer=\'/home/baadalvm/Desktop/web2py/applications/testapp/models/test.py\')'
p84
sS'func'
p85
S'restricted'
p86
sa(dp87
g62
S'/home/baadalvm/Desktop/web2py/applications/testapp/models/test.py'
p88
sg64
(dp89
S'selenium'
p90
S'undefined'
p91
sS'DesiredCapabilities'
p92
g91
ssg70
I7
sg71
(dp93
I2
S'import os'
p94
sI3
S'import thread'
p95
sI4
S'import logging'
p96
sI5
S'import datetime'
p97
sI6
S'import logging.config'
p98
sI7
S'from selenium.webdriver.common.desired_capabilities import DesiredCapabilities'
p99
sI8
S'from helper import xml_connect'
p100
sI9
S'from helper import db_connection'
p101
sI10
S'from selenium import webdriver'
p102
sI11
S'from selenium.webdriver.common.keys import Keys'
p103
ssg83
S'()'
p104
sg85
S'<module>'
p105
sa(dp106
g62
S'/home/baadalvm/Desktop/web2py/gluon/custom_import.py'
p107
sg64
(dp108
S'fromlist'
p109
S"('DesiredCapabilities',)"
p110
sS'level'
p111
S'-1'
p112
sS'base_importer'
p113
S'<built-in function __import__>'
p114
sS'globals'
p115
S"{'A': <class 'gluon.html.A'>, 'ANY_OF': <class 'gluon.validators.ANY_OF'>, 'Auth': <class 'gluon.tools.Auth'>, 'B': <class 'gluon.html.B'>, 'BEAUTIFY': <class 'gluon.html.BEAUTIFY'>, 'BODY': <class 'gluon.html.BODY'>, 'BR': <class 'gluon.html.BR'>, 'BUTTON': <class 'gluon.html.BUTTON'>, 'CAT': <class 'gluon.html.CAT'>, 'CENTER': <class 'gluon.html.CENTER'>, ...}"
p116
sS'pname'
p117
S"'applications.testapp.modules.selenium.webdriver.common.desired_capabilities'"
p118
sS'locals'
p119
S"{'A': <class 'gluon.html.A'>, 'ANY_OF': <class 'gluon.validators.ANY_OF'>, 'Auth': <class 'gluon.tools.Auth'>, 'B': <class 'gluon.html.B'>, 'BEAUTIFY': <class 'gluon.html.BEAUTIFY'>, 'BODY': <class 'gluon.html.BODY'>, 'BR': <class 'gluon.html.BR'>, 'BUTTON': <class 'gluon.html.BUTTON'>, 'CAT': <class 'gluon.html.CAT'>, 'CENTER': <class 'gluon.html.CENTER'>, ...}"
p120
ssg70
I87
sg71
(dp121
I82
S'                        modules_prefix += "." + itemname'
p122
sI83
S'                    return result'
p123
sI84
S'                else:'
p124
sI85
S'                    # import like "from x import a, b, ..."'
p125
sI86
S'                    pname = modules_prefix + "." + name'
p126
sI87
S'                    return base_importer(pname, globals, locals, fromlist, level)'
p127
sI88
S'        except ImportError, e1:'
p128
sI89
S'            import_tb = sys.exc_info()[2]'
p129
sI90
S'            try:'
p130
sI91
S'                return NATIVE_IMPORTER(name, globals, locals, fromlist, level)'
p131
ssg83
S"(name='selenium.webdriver.common.desired_capabilities', globals={'A': <class 'gluon.html.A'>, 'ANY_OF': <class 'gluon.validators.ANY_OF'>, 'Auth': <class 'gluon.tools.Auth'>, 'B': <class 'gluon.html.B'>, 'BEAUTIFY': <class 'gluon.html.BEAUTIFY'>, 'BODY': <class 'gluon.html.BODY'>, 'BR': <class 'gluon.html.BR'>, 'BUTTON': <class 'gluon.html.BUTTON'>, 'CAT': <class 'gluon.html.CAT'>, 'CENTER': <class 'gluon.html.CENTER'>, ...}, locals={'A': <class 'gluon.html.A'>, 'ANY_OF': <class 'gluon.validators.ANY_OF'>, 'Auth': <class 'gluon.tools.Auth'>, 'B': <class 'gluon.html.B'>, 'BEAUTIFY': <class 'gluon.html.BEAUTIFY'>, 'BODY': <class 'gluon.html.BODY'>, 'BR': <class 'gluon.html.BR'>, 'BUTTON': <class 'gluon.html.BUTTON'>, 'CAT': <class 'gluon.html.CAT'>, 'CENTER': <class 'gluon.html.CENTER'>, ...}, fromlist=('DesiredCapabilities',), level=-1)"
p132
sg85
S'custom_importer'
p133
sasS'pyver'
p134
S'Python 2.7.3: /usr/bin/python (prefix: /usr)'
p135
sS'session'
p136
g57
(S's\x1a\x00\x00\x00<div><table></table></div>'
tRp137
sS'etype'
p138
S"<type 'exceptions.ImportError'>"
p139
sS'date'
p140
S'Mon Sep  2 11:54:41 2013'
p141
sS'response'
p142
g57
(S's\xee*\x00\x00<div><table><tr><td style="font-weight:bold;vertical-align:top">body</td><td valign="top">:</td><td><div>&lt;cStringIO.StringO object at 0x7f1e142792d0&gt;</div></td></tr><tr><td style="font-weight:bold;vertical-align:top">cookies</td><td valign="top">:</td><td><div><table><tr><td style="font-weight:bold;vertical-align:top">session_id_testapp</td><td valign="top">:</td><td><div>127.0.0.1-cc43915c-68a8-4508-bdeb-bfacfdfc47ef<table><tr><td style="font-weight:bold;vertical-align:top">comment</td><td valign="top">:</td><td><div></div></td></tr><tr><td style="font-weight:bold;vertical-align:top">domain</td><td valign="top">:</td><td><div></div></td></tr><tr><td style="font-weight:bold;vertical-align:top">expires</td><td valign="top">:</td><td><div></div></td></tr><tr><td style="font-weight:bold;vertical-align:top">httponly</td><td valign="top">:</td><td><div></div></td></tr><tr><td style="font-weight:bold;vertical-align:top">max-age</td><td valign="top">:</td><td><div></div></td></tr><tr><td style="font-weight:bold;vertical-align:top">path</td><td valign="top">:</td><td><div>/</div></td></tr><tr><td style="font-weight:bold;vertical-align:top">secure</td><td valign="top">:</td><td><div></div></td></tr><tr><td style="font-weight:bold;vertical-align:top">version</td><td valign="top">:</td><td><div></div></td></tr></table></div></td></tr></table></div></td></tr><tr><td style="font-weight:bold;vertical-align:top">delimiters</td><td valign="top">:</td><td><div><table><tr><td><div>{{</div></td></tr><tr><td><div>}}</div></td></tr></table></div></td></tr><tr><td style="font-weight:bold;vertical-align:top">files</td><td valign="top">:</td><td><div><table></table></div></td></tr><tr><td style="font-weight:bold;vertical-align:top">flash</td><td valign="top">:</td><td><div></div></td></tr><tr><td style="font-weight:bold;vertical-align:top">generic_patterns</td><td valign="top">:</td><td><div><table></table></div></td></tr><tr><td style="font-weight:bold;vertical-align:top">google_analytics_id</td><td valign="top">:</td><td><div>None</div></td></tr><tr><td style="font-weight:bold;vertical-align:top">headers</td><td valign="top">:</td><td><div><table><tr><td style="font-weight:bold;vertical-align:top">X-Powered-By</td><td valign="top">:</td><td><div>web2py</div></td></tr></table></div></td></tr><tr><td style="font-weight:bold;vertical-align:top">logo</td><td valign="top">:</td><td><div><a class="brand" href="http://www.web2py.com/"><b>web<span>2</span>py</b>&trade;&nbsp;</a></div></td></tr><tr><td style="font-weight:bold;vertical-align:top">menu</td><td valign="top">:</td><td><div><table><tr><td><div><table><tr><td><div>Home</div></td></tr><tr><td><div>False</div></td></tr><tr><td><div>/testapp/default/index</div></td></tr><tr><td><div><table></table></div></td></tr></table></div></td></tr><tr><td><div><table><tr><td><div><span class="highlighted">web2py</span></div></td></tr><tr><td><div>False</div></td></tr><tr><td><div>http://web2py.com</div></td></tr><tr><td><div><table><tr><td><div><table><tr><td><div>My Sites</div></td></tr><tr><td><div>False</div></td></tr><tr><td><div>/admin/default/site</div></td></tr></table></div></td></tr><tr><td><div><table><tr><td><div>This App</div></td></tr><tr><td><div>False</div></td></tr><tr><td><div>/admin/default/design/testapp</div></td></tr><tr><td><div>[(&lt;lazyT &#x27;Controller&#x27;&gt;, False, &#x27;/admin/default/edit/testapp/controllers/default.py&#x27;), (&lt;lazyT &#x27;View&#x27;&gt;, False, &#x27;/admin/default/edit/testapp/views/default/index.html&#x27;), (&lt;lazyT &#x27;Layout&#x27;&gt;, False, &#x27;/admin/default/edit/testapp/views/layout.html&#x27;), (&lt;lazyT &#x27;Stylesheet&#x27;&gt;, False, &#x27;/admin/default/edit/testapp/static/css/web2py.css&#x27;), (&lt;lazyT &#x27;DB Model&#x27;&gt;, False, &#x27;/admin/default/edit/testapp/models/db.py&#x27;), (&lt;lazyT &#x27;Menu Model&#x27;&gt;, False, &#x27;/admin/default/edit/testapp/models/menu.py&#x27;), (&lt;lazyT &#x27;Database&#x27;&gt;, False, &#x27;/testapp/appadmin/index&#x27;), (&lt;lazyT &#x27;Errors&#x27;&gt;, False, &#x27;/admin/default/errors/testapp&#x27;), (&lt;lazyT &#x27;About&#x27;&gt;, False, &#x27;/admin/default/about/testapp&#x27;)]</div></td></tr></table></div></td></tr><tr><td><div><table><tr><td><div>web2py.com</div></td></tr><tr><td><div>False</div></td></tr><tr><td><div>http://www.web2py.com</div></td></tr><tr><td><div>[(&lt;lazyT &#x27;Download&#x27;&gt;, False, &#x27;http://www.web2py.com/examples/default/download&#x27;), (&lt;lazyT &#x27;Support&#x27;&gt;, False, &#x27;http://www.web2py.com/examples/default/support&#x27;), (&lt;lazyT &#x27;Demo&#x27;&gt;, False, &#x27;http://web2py.com/demo_admin&#x27;), (&lt;lazyT &#x27;Quick Examples&#x27;&gt;, False, &#x27;http://web2py.com/examples/default/examples&#x27;), (&lt;lazyT &#x27;FAQ&#x27;&gt;, False, &#x27;http://web2py.com/AlterEgo&#x27;), (&lt;lazyT &#x27;Videos&#x27;&gt;, False, &#x27;http://www.web2py.com/examples/default/videos/&#x27;), (&lt;lazyT &#x27;Free Applications&#x27;&gt;, False, &#x27;http://web2py.com/appliances&#x27;), (&lt;lazyT &#x27;Plugins&#x27;&gt;, False, &#x27;http://web2py.com/plugins&#x27;), (&lt;lazyT &#x27;Layouts&#x27;&gt;, False, &#x27;http://web2py.com/layouts&#x27;), (&lt;lazyT &#x27;Recipes&#x27;&gt;, False, &#x27;http://web2pyslices.com/&#x27;), (&lt;lazyT &#x27;Semantic&#x27;&gt;, False, &#x27;http://web2py.com/semantic&#x27;)]</div></td></tr></table></div></td></tr><tr><td><div><table><tr><td><div>Documentation</div></td></tr><tr><td><div>False</div></td></tr><tr><td><div>http://www.web2py.com/book</div></td></tr><tr><td><div>[(&lt;lazyT &#x27;Preface&#x27;&gt;, False, &#x27;http://www.web2py.com/book/default/chapter/00&#x27;), (&lt;lazyT &#x27;Introduction&#x27;&gt;, False, &#x27;http://www.web2py.com/book/default/chapter/01&#x27;), (&lt;lazyT &#x27;Python&#x27;&gt;, False, &#x27;http://www.web2py.com/book/default/chapter/02&#x27;), (&lt;lazyT &#x27;Overview&#x27;&gt;, False, &#x27;http://www.web2py.com/book/default/chapter/03&#x27;), (&lt;lazyT &#x27;The Core&#x27;&gt;, False, &#x27;http://www.web2py.com/book/default/chapter/04&#x27;), (&lt;lazyT &#x27;The Views&#x27;&gt;, False, &#x27;http://www.web2py.com/book/default/chapter/05&#x27;), (&lt;lazyT &#x27;Database&#x27;&gt;, False, &#x27;http://www.web2py.com/book/default/chapter/06&#x27;), (&lt;lazyT &#x27;Forms and Validators&#x27;&gt;, False, &#x27;http://www.web2py.com/book/default/chapter/07&#x27;), (&lt;lazyT &#x27;Email and SMS&#x27;&gt;, False, &#x27;http://www.web2py.com/book/default/chapter/08&#x27;), (&lt;lazyT &#x27;Access Control&#x27;&gt;, False, &#x27;http://www.web2py.com/book/default/chapter/09&#x27;), (&lt;lazyT &#x27;Services&#x27;&gt;, False, &#x27;http://www.web2py.com/book/default/chapter/10&#x27;), (&lt;lazyT &#x27;Ajax Recipes&#x27;&gt;, False, &#x27;http://www.web2py.com/book/default/chapter/11&#x27;), (&lt;lazyT &#x27;Components and Plugins&#x27;&gt;, False, &#x27;http://www.web2py.com/book/default/chapter/12&#x27;), (&lt;lazyT &#x27;Deployment Recipes&#x27;&gt;, False, &#x27;http://www.web2py.com/book/default/chapter/13&#x27;), (&lt;lazyT &#x27;Other Recipes&#x27;&gt;, False, &#x27;http://www.web2py.com/book/default/chapter/14&#x27;), (&lt;lazyT &#x27;Buy this book&#x27;&gt;, False, &#x27;http://stores.lulu.com/web2py&#x27;)]</div></td></tr></table></div></td></tr><tr><td><div><table><tr><td><div>Community</div></td></tr><tr><td><div>False</div></td></tr><tr><td><div>None</div></td></tr><tr><td><div>[(&lt;lazyT &#x27;Groups&#x27;&gt;, False, &#x27;http://www.web2py.com/examples/default/usergroups&#x27;), (&lt;lazyT &#x27;Twitter&#x27;&gt;, False, &#x27;http://twitter.com/web2py&#x27;), (&lt;lazyT &#x27;Live Chat&#x27;&gt;, False, &#x27;http://webchat.freenode.net/?channels=web2py&#x27;)]</div></td></tr></table></div></td></tr><tr><td><div><table><tr><td><div>Plugins</div></td></tr><tr><td><div>False</div></td></tr><tr><td><div>None</div></td></tr><tr><td><div>[(&#x27;plugin_wiki&#x27;, False, &#x27;http://web2py.com/examples/default/download&#x27;), (&lt;lazyT &#x27;Other Plugins&#x27;&gt;, False, &#x27;http://web2py.com/plugins&#x27;), (&lt;lazyT &#x27;Layout Plugins&#x27;&gt;, False, &#x27;http://web2py.com/layouts&#x27;)]</div></td></tr></table></div></td></tr></table></div></td></tr></table></div></td></tr></table></div></td></tr><tr><td style="font-weight:bold;vertical-align:top">meta</td><td valign="top">:</td><td><div><table><tr><td style="font-weight:bold;vertical-align:top">author</td><td valign="top">:</td><td><div>Your Name &lt;you@example.com&gt;</div></td></tr><tr><td style="font-weight:bold;vertical-align:top">description</td><td valign="top">:</td><td><div>a cool new app</div></td></tr><tr><td style="font-weight:bold;vertical-align:top">generator</td><td valign="top">:</td><td><div>Web2py Web Framework</div></td></tr><tr><td style="font-weight:bold;vertical-align:top">keywords</td><td valign="top">:</td><td><div>web2py, python, framework</div></td></tr></table></div></td></tr><tr><td style="font-weight:bold;vertical-align:top">models_to_run</td><td valign="top">:</td><td><div><table><tr><td><div>^\\w+\\.py$</div></td></tr><tr><td><div>^default/\\w+\\.py$</div></td></tr><tr><td><div>^default/index/\\w+\\.py$</div></td></tr></table></div></td></tr><tr><td style="font-weight:bold;vertical-align:top">postprocessing</td><td valign="top">:</td><td><div><table></table></div></td></tr><tr><td style="font-weight:bold;vertical-align:top">session_cookie_expires</td><td valign="top">:</td><td><div>None</div></td></tr><tr><td style="font-weight:bold;vertical-align:top">session_data_name</td><td valign="top">:</td><td><div>session_data_testapp</div></td></tr><tr><td style="font-weight:bold;vertical-align:top">session_filename</td><td valign="top">:</td><td><div>/home/baadalvm/Desktop/web2py/applications/testapp/sessions/127.0.0.1-cc43915c-68a8-4508-bdeb-bfacfdfc47ef</div></td></tr><tr><td style="font-weight:bold;vertical-align:top">session_id</td><td valign="top">:</td><td><div>127.0.0.1-cc43915c-68a8-4508-bdeb-bfacfdfc47ef</div></td></tr><tr><td style="font-weight:bold;vertical-align:top">session_id_name</td><td valign="top">:</td><td><div>session_id_testapp</div></td></tr><tr><td style="font-weight:bold;vertical-align:top">session_new</td><td valign="top">:</td><td><div>True</div></td></tr><tr><td style="font-weight:bold;vertical-align:top">session_storage_type</td><td valign="top">:</td><td><div>file</div></td></tr><tr><td style="font-weight:bold;vertical-align:top">status</td><td valign="top">:</td><td><div>200</div></td></tr><tr><td style="font-weight:bold;vertical-align:top">subtitle</td><td valign="top">:</td><td><div>customize me!</div></td></tr><tr><td style="font-weight:bold;vertical-align:top">title</td><td valign="top">:</td><td><div>Testapp</div></td></tr><tr><td style="font-weight:bold;vertical-align:top">view</td><td valign="top">:</td><td><div>default/index.html</div></td></tr></table></div>'
tRp143
sS'locals'
p144
(dp145
S'fromlist'
p146
S"('DesiredCapabilities',)"
p147
sS'modules_prefix'
p148
S"'applications.testapp.modules'"
p149
sS'name'
p150
S"'selenium.webdriver.common.desired_capabilities'"
p151
sS'level'
p152
S'-1'
p153
sS'items'
p154
S"['', 'home', 'baadalvm', 'Desktop', 'web2py', 'applications', 'testapp']"
p155
sS'base_importer'
p156
S'<built-in function __import__>'
p157
sS'globals'
p158
S"{'A': <class 'gluon.html.A'>, 'ANY_OF': <class 'gluon.validators.ANY_OF'>, 'Auth': <class 'gluon.tools.Auth'>, 'B': <class 'gluon.html.B'>, 'BEAUTIFY': <class 'gluon.html.BEAUTIFY'>, 'BODY': <class 'gluon.html.BODY'>, 'BR': <class 'gluon.html.BR'>, 'BUTTON': <class 'gluon.html.BUTTON'>, 'CAT': <class 'gluon.html.CAT'>, 'CENTER': <class 'gluon.html.CENTER'>, ...}"
p159
sS'pname'
p160
S"'applications.testapp.modules.selenium.webdriver.common.desired_capabilities'"
p161
sS'e3'
p162
S"ImportError('No module named selenium.webdriver.common.desired_capabilities',)"
p163
sS'e1'
p164
S"ImportError('No module named selenium.webdriver.common.desired_capabilities',)"
p165
sS'import_tb'
p166
S'None'
p167
sg144
S"{'A': <class 'gluon.html.A'>, 'ANY_OF': <class 'gluon.validators.ANY_OF'>, 'Auth': <class 'gluon.tools.Auth'>, 'B': <class 'gluon.html.B'>, 'BEAUTIFY': <class 'gluon.html.BEAUTIFY'>, 'BODY': <class 'gluon.html.BODY'>, 'BR': <class 'gluon.html.BR'>, 'BUTTON': <class 'gluon.html.BUTTON'>, 'CAT': <class 'gluon.html.CAT'>, 'CENTER': <class 'gluon.html.CENTER'>, ...}"
p168
sS'oname'
p169
S"'selenium.webdriver.common.desired_capabilities'"
p170
sssS'traceback'
p171
S'Traceback (most recent call last):\n  File "/home/baadalvm/Desktop/web2py/gluon/restricted.py", line 212, in restricted\n    exec ccode in environment\n  File "/home/baadalvm/Desktop/web2py/applications/testapp/models/test.py", line 7, in <module>\n    from selenium.webdriver.common.desired_capabilities import DesiredCapabilities\n  File "/home/baadalvm/Desktop/web2py/gluon/custom_import.py", line 87, in custom_importer\n    return base_importer(pname, globals, locals, fromlist, level)\nImportError: No module named selenium.webdriver.common.desired_capabilities\n'
p172
s.