(dp1
S'output'
p2
S"<class 'httplib.BadStatusLine'> ''"
p3
sS'layer'
p4
S'/home/baadalvm/Desktop/web2py/applications/testapp/controllers/default.py'
p5
sS'code'
p6
S'# -*- coding: utf-8 -*-\n# this file is released under public domain and you can use without limitations\n\n#########################################################################\n## This is a sample controller\n## - index is the default action of any application\n## - user is required for authentication and authorization\n## - download is for downloading files uploaded in the db (does streaming)\n## - call exposes all registered services (none by default)\n#########################################################################\ndef user():\n    """\n    exposes:\n    http://..../[app]/default/user/login\n    http://..../[app]/default/user/logout\n    http://..../[app]/default/user/register\n    http://..../[app]/default/user/profile\n    http://..../[app]/default/user/retrieve_password\n    http://..../[app]/default/user/change_password\n    http://..../[app]/default/user/manage_users (requires membership in \n    use @auth.requires_login()\n        @auth.requires_membership(\'group name\')\n        @auth.requires_permission(\'read\',\'table name\',record_id)\n    to decorate functions that need access control\n    """\n    return dict(form=auth())\n\n#@cache.action()\ndef download():\n    """\n    allows downloading of uploaded files\n    http://..../[app]/default/download/[filename]\n    """\n    return response.download(request, db)\n\n\ndef call():\n    """\n    exposes services. for example:\n    http://..../[app]/default/call/jsonrpc\n    decorate with @services.jsonrpc the functions to expose\n    supports xml, json, xmlrpc, jsonrpc, amfrpc, rss, csv\n    """\n    return service()\n\n\n@auth.requires_signature()\ndef data():\n    """\n    http://..../[app]/default/data/tables\n    http://..../[app]/default/data/create/[table]\n    http://..../[app]/default/data/read/[table]/[id]\n    http://..../[app]/default/data/update/[table]/[id]\n    http://..../[app]/default/data/delete/[table]/[id]\n    http://..../[app]/default/data/select/[table]\n    http://..../[app]/default/data/search/[table]\n    but URLs must be signed, i.e. linked with\n      A(\'table\',_href=URL(\'data/tables\',user_signature=True))\n    or with the signed load operator\n      LOAD(\'default\',\'data.load\',args=\'tables\',ajax=True,user_signature=True)\n    """\n    return dict(form=crud())\n    \n    \n    \ndef unit_testing():\n    import commands\n    form = FORM(  TABLE\n         ( \n            TR(INPUT(_name=\'testcase1\', _type=\'checkbox\', _value="1"),\'Login\'),\n            TR(INPUT(_name=\'testcase2\', _type=\'checkbox\', _value="2"),\'Request VM\'),\n            TR(INPUT(_name=\'testcase3\', _type=\'checkbox\', _value="3"),\'My Pending VMs\'),\n            TR(INPUT(_name=\'testcase46\', _type=\'checkbox\', _value="46"),\'My VMs\'),\n            TR(INPUT(_name=\'testcase4\', _type=\'checkbox\', _value="4"),\'My Pending Tasks\'),\n            TR(INPUT(_name=\'testcase5\', _type=\'checkbox\', _value="5"),\'My Completed Tasks\'),\n            TR(INPUT(_name=\'testcase6\', _type=\'checkbox\', _value="6"),\'My Failed Taskss\'),\n            TR(INPUT(_name=\'testcase7\', _type=\'checkbox\', _value="7"),\'Pending Faculty-Level VM Approvals\'),\n            TR(INPUT(_name=\'testcase8\', _type=\'checkbox\', _value="8"),\'Pending Org-Level VM Approvals\'),\n           TR(INPUT(_name=\'testcase9\', _type=\'checkbox\', _value="9"),\'List All Org-Level VMs\',),\n           TR(INPUT(_name=\'testcase10\', _type=\'checkbox\', _value="10"),\'All VMs\'),\n            TR(INPUT(_name=\'testcase50\', _type=\'checkbox\', _value="50"),\'Pending VM Requests\'),\n           TR(INPUT(_name=\'testcase11\', _type=\'checkbox\', _value="11"),\'Host and VMs\',),\n           TR(INPUT(_name=\'testcase12\', _type=\'checkbox\', _value="12"),\'Pending Tasks\'),\n           TR(INPUT(_name=\'testcase13\', _type=\'checkbox\', _value="13"),\'Completed Tasks\'),\n           TR(INPUT(_name=\'testcase14\', _type=\'checkbox\', _value="14"),\'Failed Tasks\'),\n           TR(INPUT(_name=\'testcase15\', _type=\'checkbox\', _value="15"),\'Configure System: Add Host\'),\n           TR(INPUT(_name=\'testcase16\', _type=\'checkbox\', _value="16"),\'Configure System: Add Template\'),\n           TR(INPUT(_name=\'testcase17\', _type=\'checkbox\', _value="17"),\'Configure System: Add Datastore\'),\n           TR(INPUT(_name=\'testcase18\', _type=\'checkbox\', _value="18"),\'Take VM snapshot    (Running )\'),\n           \n           TR(INPUT(_name=\'testcase19\', _type=\'checkbox\', _value="19"),\'Check VM performance   (Running )\'),\n           TR(INPUT(_name=\'testcase20\', _type=\'checkbox\', _value="20"),\'Pause VM    (Running )\'),\n           \n           TR(INPUT(_name=\'testcase21\', _type=\'checkbox\', _value="21"),\'Add User to VM   (Running )\'),\n           \n           TR(INPUT(_name=\'testcase22\', _type=\'checkbox\', _value="22"),\'Delete VM    (Running)\'),\n           TR(INPUT(_name=\'testcase23\', _type=\'checkbox\', _value="23"),\'Gracefully shut down VM    (Running )\'),\n           TR(INPUT(_name=\'testcase24\', _type=\'checkbox\', _value="24"),\'Forcefully power off VM   (Running )\'),\n            TR(INPUT(_name=\'testcase25\', _type=\'checkbox\', _value="25"),\'Attach Extra Disk to VM   (Running )\'),\n          \n           TR(INPUT(_name=\'testcase26\', _type=\'checkbox\', _value="26"),\'Take VM snapshot   (Paused )\'),\n           TR(INPUT(_name=\'testcase27\', _type=\'checkbox\', _value="27"),\'Check VM performance   (Paused )\'),\n           TR(INPUT(_name=\'testcase28\', _type=\'checkbox\', _value="28"),\'Unpause VM   (Paused )\'),\n           TR(INPUT(_name=\'testcase29\', _type=\'checkbox\', _value="29"),\'Add User to VM  (Paused )\'),\n           TR(INPUT(_name=\'testcase30\', _type=\'checkbox\', _value="30"),\'Delete VM   (Paused )\'),\n           TR(INPUT(_name=\'testcase31\', _type=\'checkbox\', _value="31"),\'Adjust VM Resources Utilization   (Paused )\'),\n           TR(INPUT(_name=\'testcase32\', _type=\'checkbox\', _value="32"),\'Forcefully power off VM   (Paused)\'),\n           TR(INPUT(_name=\'testcase33\', _type=\'checkbox\', _value="33"),\'Delete Addtional User   (Paused )\'), \n           TR(INPUT(_name=\'testcase49\', _type=\'checkbox\', _value="49"),\'Revert Snapshot    (Paused )\'),\n           TR(INPUT(_name=\'testcase42\', _type=\'checkbox\', _value="42"),\'Delete Snapshot    (Paused )\'),\n           TR(INPUT(_name=\'testcase34\', _type=\'checkbox\', _value="34"),\'Check VM performance   (Shutdown )\'),\n           TR(INPUT(_name=\'testcase35\', _type=\'checkbox\', _value="35"),\'Turn on VM   (Shutdown )\'),\n           TR(INPUT(_name=\'testcase36\', _type=\'checkbox\', _value="36"),\'Add User to VM  (Shutdown)\'),\n           TR(INPUT(_name=\'testcase37\', _type=\'checkbox\', _value="37"),\'Delete VM   (Shutdown )\'),\n           TR(INPUT(_name=\'testcase38\', _type=\'checkbox\', _value="38"),\'Attach Extra Disk  (Shutdown )\'),\n           TR(INPUT(_name=\'testcase39\', _type=\'checkbox\', _value="39"),\'Request Clone VM   (Shutdown )\'),\n            TR(INPUT(_name=\'testcase40\', _type=\'checkbox\', _value="40"),\'Edit VM Config   (Shutdown )\'),\n           TR(INPUT(_name=\'testcase41\', _type=\'checkbox\', _value="41"),\'Assign VNC   (Shutdown )\'),\n           \n           TR(INPUT(_name=\'testcase43\', _type=\'checkbox\', _value="43"),\'Take VM snapshot   (Shutdown )\'),\n\n            TR(INPUT(_name=\'testcase44\', _type=\'checkbox\', _value="44"),\'Configure System: Host Setting\'),\n           TR(INPUT(_name=\'testcase45\', _type=\'checkbox\', _value="45"),\'Configure System: Host table\'),  \n           TR(INPUT(_name=\'testcase47\', _type=\'checkbox\', _value="47"),\'Approve VM\'),\n           TR(INPUT(_name=\'testcase48\', _type=\'checkbox\', _value="48"),\'Reject VM\'),\n           \n           BR(),\n           TR(INPUT(_type=\'submit\',_value=\'submit\'))\n          )\n      )\n    if form.process().accepted:\n        for i in range(1,52):\n            test_case_no=request.vars[\'testcase\'+str(i)]\n            if test_case_no!=None:\n                test_script(test_case_no)\n    elif form.errors:\n        response.flash = \'form has errors\'\n    else:\n        response.flash = \'please fill the form\'\n    return dict(form=form)\n    \n\ndef index():\n    try:\n        import commands\n        form = FORM( TABLE\n                  (  TR(INPUT(_name=\'testcase1\', _type=\'radio\', _value="1"),\'Unit Testing\'),\n                     TR(INPUT(_name=\'testcase2\', _type=\'radio\', _value="2"),\'Integration Testing\'),\n                     TR(INPUT(_name=\'testcase3\', _type=\'radio\', _value="3"),\'Stress Testing\'),\n                     BR(),\n                     TR(INPUT(_type=\'submit\',_value=\'submit\'))\n                  )\n                )        \n        if form.process().accepted:\n            if request.vars[\'testcase1\']!=None:\n                redirect(URL(\'unit_testing\'))\n            if request.vars[\'testcase2\']!=None:\n                redirect(URL(\'integration_testing\')) \n            if request.vars[\'testcase3\']!=None:\n                redirect(URL(\'stress_testing\'))          \n        elif form.errors:\n            response.flash = \'form has errors\'\n        else:\n            response.flash = \'please fill the form\'\n        return dict(form=form)\n    except Exception as e:\n        print e\n\n\ndef stress_testing(): \n\n    import commands\n    form = FORM(  TABLE\n        (   TR(INPUT(_name=\'testcase0\', _type=\'checkbox\', _value="0"),\'All\'), \n            BR(),\n            TR(INPUT(_type=\'submit\',_value=\'submit\'))\n        )\n        )\n              \n    if form.process().accepted:\n        test_case_no=request.vars[\'testcase0\']\n        if test_case_no!=None:\n            stress_test_script()\n    elif form.errors:\n        response.flash = \'form has errors\'\n    else:\n        response.flash = \'please fill the form\'\n    return dict(form=form)\n    \n   \ndef integration_testing(): \n    import commands\n    form = FORM(  TABLE\n                  (   \n                       TR(INPUT(_name=\'testcase52\', _type=\'checkbox\', _value="52"),\'Take VM snapshot    (Running )\'),\n           \n           TR(INPUT(_name=\'testcase53\', _type=\'checkbox\', _value="53"),\'Check VM performance   (Running )\'),\n           TR(INPUT(_name=\'testcase54\', _type=\'checkbox\', _value="54"),\'Pause VM    (Running )\'),\n           \n           TR(INPUT(_name=\'testcase55\', _type=\'checkbox\', _value="55"),\'Add User to VM   (Running )\'),\n           \n           TR(INPUT(_name=\'testcase56\', _type=\'checkbox\', _value="56"),\'Delete VM    (Running)\'),\n           TR(INPUT(_name=\'testcase57\', _type=\'checkbox\', _value="57"),\'Gracefully shut down VM    (Running )\'),\n           TR(INPUT(_name=\'testcase58\', _type=\'checkbox\', _value="58"),\'Forcefully power off VM   (Running )\'),\n            TR(INPUT(_name=\'testcase59\', _type=\'checkbox\', _value="59"),\'Attach Extra Disk to VM   (Running )\'),\n                      TR(INPUT(_name=\'testcase60\', _type=\'checkbox\', _value="60"),\'Faculty Request VM(Approved by org-admin)\'),\n                      TR(INPUT(_name=\'testcase61\', _type=\'checkbox\', _value="61"),\'Faculty Request VM(Rejected by org-admin)\'),\n                      TR(INPUT(_name=\'testcase62\', _type=\'checkbox\', _value="62"),\'Admin Request VM(Approved by org-admin)\'),\n                      TR(INPUT(_name=\'testcase63\', _type=\'checkbox\', _value="63"),\'Admin Request VM(Rejected by org-admin)\'),\n                      TR(INPUT(_name=\'testcase64\', _type=\'checkbox\', _value="64"),\'User Request VM(Approved by Faculty and org-admin)\'),\n                      TR(INPUT(_name=\'testcase65\', _type=\'checkbox\', _value="65"),\'User Request VM(Rejected by Faculty)\'),\n                      TR(INPUT(_name=\'testcase66\', _type=\'checkbox\', _value="66"),\'User Request VM(Approved by Faculty and Rejected by org-admin)\'),\n                      TR(INPUT(_name=\'testcase67\', _type=\'checkbox\', _value="67"),\'Configure Host\'),\n                      TR(INPUT(_name=\'testcase68\', _type=\'checkbox\', _value="68"),\'Configure Template\'),\n                      TR(INPUT(_name=\'testcase69\', _type=\'checkbox\', _value="69"),\'Configure Datastore\'),\n                      \n                      BR(),\n                      TR(INPUT(_type=\'submit\',_value=\'submit\'))\n                  )\n              )\n    if form.process().accepted:\n        for i in range(52,70):\n            test_case_no=request.vars[\'testcase\'+str(i)]\n            if test_case_no!=None:\n                test_script(test_case_no)\n    elif form.errors:\n        response.flash = \'form has errors\'\n    else:\n        response.flash = \'please fill the form\'\n    return dict(form=form)\n\nresponse._vars=response._caller(integration_testing)\n'
p7
sS'snapshot'
p8
(dp9
S'exception'
p10
(dp11
S'__module__'
p12
S"'httplib'"
p13
sS'__getslice__'
p14
S"<method-wrapper '__getslice__' of BadStatusLine object>"
p15
sS'__str__'
p16
S"<method-wrapper '__str__' of BadStatusLine object>"
p17
sS'__reduce__'
p18
S'<built-in method __reduce__ of BadStatusLine object>'
p19
sS'__dict__'
p20
S'{\'line\': "\'\'"}'
p21
sS'__sizeof__'
p22
S'<built-in method __sizeof__ of BadStatusLine object>'
p23
sS'__weakref__'
p24
S'None'
p25
sS'__init__'
p26
S'<bound method BadStatusLine.__init__ of BadStatusLine("\'\'",)>'
p27
sS'__setattr__'
p28
S"<method-wrapper '__setattr__' of BadStatusLine object>"
p29
sS'__reduce_ex__'
p30
S'<built-in method __reduce_ex__ of BadStatusLine object>'
p31
sS'__new__'
p32
S'<built-in method __new__ of type object>'
p33
sS'__format__'
p34
S'<built-in method __format__ of BadStatusLine object>'
p35
sS'__class__'
p36
S"<class 'httplib.BadStatusLine'>"
p37
sS'__doc__'
p38
S'None'
p39
sS'__getitem__'
p40
S"<method-wrapper '__getitem__' of BadStatusLine object>"
p41
sS'__setstate__'
p42
S'<built-in method __setstate__ of BadStatusLine object>'
p43
sS'__getattribute__'
p44
S"<method-wrapper '__getattribute__' of BadStatusLine object>"
p45
sS'args'
p46
S'("\'\'",)'
p47
sS'__subclasshook__'
p48
S'<built-in method __subclasshook__ of type object>'
p49
sS'line'
p50
S'"\'\'"'
p51
sS'__unicode__'
p52
S'<built-in method __unicode__ of BadStatusLine object>'
p53
sS'__delattr__'
p54
S"<method-wrapper '__delattr__' of BadStatusLine object>"
p55
sS'__repr__'
p56
S"<method-wrapper '__repr__' of BadStatusLine object>"
p57
sS'__hash__'
p58
S"<method-wrapper '__hash__' of BadStatusLine object>"
p59
ssS'evalue'
p60
S"''"
p61
sS'request'
p62
cgluon.html
XML_unpickle
p63
(S's\xbeZ\x00\x00<div><table><tr><td style="font-weight:bold;vertical-align:top">ajax</td><td valign="top">:</td><td><div>False</div></td></tr><tr><td style="font-weight:bold;vertical-align:top">application</td><td valign="top">:</td><td><div>testapp</div></td></tr><tr><td style="font-weight:bold;vertical-align:top">args</td><td valign="top">:</td><td><div><table></table></div></td></tr><tr><td style="font-weight:bold;vertical-align:top">body</td><td valign="top">:</td><td><div>&lt;open file &#x27;&lt;fdopen&gt;&#x27;, mode &#x27;w+b&#x27; at 0x7fc7b01d5a50&gt;</div></td></tr><tr><td style="font-weight:bold;vertical-align:top">cid</td><td valign="top">:</td><td><div>None</div></td></tr><tr><td style="font-weight:bold;vertical-align:top">client</td><td valign="top">:</td><td><div>127.0.0.1</div></td></tr><tr><td style="font-weight:bold;vertical-align:top">controller</td><td valign="top">:</td><td><div>default</div></td></tr><tr><td style="font-weight:bold;vertical-align:top">cookies</td><td valign="top">:</td><td><div><table><tr><td style="font-weight:bold;vertical-align:top">session_id_admin</td><td valign="top">:</td><td><div>127.0.0.1-e60d11ff-2e38-490b-afd5-247129cd840f<table><tr><td style="font-weight:bold;vertical-align:top">comment</td><td valign="top">:</td><td><div></div></td></tr><tr><td style="font-weight:bold;vertical-align:top">domain</td><td valign="top">:</td><td><div></div></td></tr><tr><td style="font-weight:bold;vertical-align:top">expires</td><td valign="top">:</td><td><div></div></td></tr><tr><td style="font-weight:bold;vertical-align:top">httponly</td><td valign="top">:</td><td><div></div></td></tr><tr><td style="font-weight:bold;vertical-align:top">max-age</td><td valign="top">:</td><td><div></div></td></tr><tr><td style="font-weight:bold;vertical-align:top">path</td><td valign="top">:</td><td><div></div></td></tr><tr><td style="font-weight:bold;vertical-align:top">secure</td><td valign="top">:</td><td><div></div></td></tr><tr><td style="font-weight:bold;vertical-align:top">version</td><td valign="top">:</td><td><div></div></td></tr></table></div></td></tr><tr><td style="font-weight:bold;vertical-align:top">session_id_testapp</td><td valign="top">:</td><td><div>127.0.0.1-09a6c6a2-67bb-4b2e-afa5-47a6d2c8b6b0<table><tr><td style="font-weight:bold;vertical-align:top">comment</td><td valign="top">:</td><td><div></div></td></tr><tr><td style="font-weight:bold;vertical-align:top">domain</td><td valign="top">:</td><td><div></div></td></tr><tr><td style="font-weight:bold;vertical-align:top">expires</td><td valign="top">:</td><td><div></div></td></tr><tr><td style="font-weight:bold;vertical-align:top">httponly</td><td valign="top">:</td><td><div></div></td></tr><tr><td style="font-weight:bold;vertical-align:top">max-age</td><td valign="top">:</td><td><div></div></td></tr><tr><td style="font-weight:bold;vertical-align:top">path</td><td valign="top">:</td><td><div></div></td></tr><tr><td style="font-weight:bold;vertical-align:top">secure</td><td valign="top">:</td><td><div></div></td></tr><tr><td style="font-weight:bold;vertical-align:top">version</td><td valign="top">:</td><td><div></div></td></tr></table></div></td></tr><tr><td style="font-weight:bold;vertical-align:top">session_id_welcome</td><td valign="top">:</td><td><div>127.0.0.1-2f9a3b1d-f5f1-4fe6-89c9-79b392f92553<table><tr><td style="font-weight:bold;vertical-align:top">comment</td><td valign="top">:</td><td><div></div></td></tr><tr><td style="font-weight:bold;vertical-align:top">domain</td><td valign="top">:</td><td><div></div></td></tr><tr><td style="font-weight:bold;vertical-align:top">expires</td><td valign="top">:</td><td><div></div></td></tr><tr><td style="font-weight:bold;vertical-align:top">httponly</td><td valign="top">:</td><td><div></div></td></tr><tr><td style="font-weight:bold;vertical-align:top">max-age</td><td valign="top">:</td><td><div></div></td></tr><tr><td style="font-weight:bold;vertical-align:top">path</td><td valign="top">:</td><td><div></div></td></tr><tr><td style="font-weight:bold;vertical-align:top">secure</td><td valign="top">:</td><td><div></div></td></tr><tr><td style="font-weight:bold;vertical-align:top">version</td><td valign="top">:</td><td><div></div></td></tr></table></div></td></tr></table></div></td></tr><tr><td style="font-weight:bold;vertical-align:top">env</td><td valign="top">:</td><td><div><table><tr><td style="font-weight:bold;vertical-align:top">app_folders</td><td valign="top">:</td><td><div>set([&#x27;/home/baadalvm/Desktop/web2py/applications/testapp/&#x27;, &#x27;/home/baadalvm/Desktop/web2py/applications/admin/&#x27;, &#x27;/home/baadalvm/Desktop/web2py/applications/welcome/&#x27;])</div></td></tr><tr><td style="font-weight:bold;vertical-align:top">applications_parent</td><td valign="top">:</td><td><div>/home/baadalvm/Desktop/web2py</div></td></tr><tr><td style="font-weight:bold;vertical-align:top">cmd_args</td><td valign="top">:</td><td><div><table></table></div></td></tr><tr><td style="font-weight:bold;vertical-align:top">cmd_options</td><td valign="top">:</td><td><div>&lt;Values at 0x3129998: {&#x27;verbose&#x27;: False, &#x27;ip&#x27;: &#x27;127.0.0.1&#x27;, &#x27;with_scheduler&#x27;: False, &#x27;ips&#x27;: [&#x27;127.0.1.1&#x27;], &#x27;shutdown_timeout&#x27;: 5, &#x27;taskbar&#x27;: False, &#x27;with_coverage&#x27;: False, &#x27;port&#x27;: 8000, &#x27;maxthreads&#x27;: None, &#x27;softcron&#x27;: False, &#x27;server_name&#x27;: &#x27;baadalvm&#x27;, &#x27;bpython&#x27;: False, &#x27;nogui&#x27;: False, &#x27;pid_filename&#x27;: &#x27;httpserver.pid&#x27;, &#x27;extcron&#x27;: False, &#x27;runcron&#x27;: False, &#x27;run_system_tests&#x27;: False, &#x27;test&#x27;: None, &#x27;folder&#x27;: &#x27;/home/baadalvm/Desktop/web2py&#x27;, &#x27;config&#x27;: &#x27;&#x27;, &#x27;minthreads&#x27;: None, &#x27;winservice&#x27;: &#x27;&#x27;, &#x27;shell&#x27;: None, &#x27;run&#x27;: &#x27;&#x27;, &#x27;log_filename&#x27;: &#x27;httpserver.log&#x27;, &#x27;debuglevel&#x27;: 30, &#x27;args&#x27;: [&#x27;&#x27;], &#x27;socket_timeout&#x27;: 5, &#x27;ssl_ca_certificate&#x27;: None, &#x27;scheduler&#x27;: None, &#x27;profiler_filename&#x27;: None, &#x27;ssl_private_key&#x27;: &#x27;&#x27;, &#x27;scheduler_groups&#x27;: None, &#x27;password&#x27;: &#x27;&lt;ask&gt;&#x27;, &#x27;request_queue_size&#x27;: 5, &#x27;ssl_certificate&#x27;: &#x27;&#x27;, &#x27;cronjob&#x27;: False, &#x27;numthreads&#x27;: None, &#x27;quiet&#x27;: False, &#x27;interfaces&#x27;: None, &#x27;import_models&#x27;: False, &#x27;timeout&#x27;: 10, &#x27;plain&#x27;: False, &#x27;nobanner&#x27;: False}&gt;</div></td></tr><tr><td style="font-weight:bold;vertical-align:top">content_length</td><td valign="top">:</td><td><div>445</div></td></tr><tr><td style="font-weight:bold;vertical-align:top">content_type</td><td valign="top">:</td><td><div>multipart/form-data; boundary=---------------------------3867780502144341448798599680</div></td></tr><tr><td style="font-weight:bold;vertical-align:top">db_sessions</td><td valign="top">:</td><td><div>set([])</div></td></tr><tr><td style="font-weight:bold;vertical-align:top">debugging</td><td valign="top">:</td><td><div>True</div></td></tr><tr><td style="font-weight:bold;vertical-align:top">gluon_parent</td><td valign="top">:</td><td><div>/home/baadalvm/Desktop/web2py</div></td></tr><tr><td style="font-weight:bold;vertical-align:top">http_accept</td><td valign="top">:</td><td><div>text/html,application/xhtml+xml,application/xml;q=0.9,*/*;q=0.8</div></td></tr><tr><td style="font-weight:bold;vertical-align:top">http_accept_encoding</td><td valign="top">:</td><td><div>gzip, deflate</div></td></tr><tr><td style="font-weight:bold;vertical-align:top">http_accept_language</td><td valign="top">:</td><td><div>en-US,en;q=0.5</div></td></tr><tr><td style="font-weight:bold;vertical-align:top">http_connection</td><td valign="top">:</td><td><div>keep-alive</div></td></tr><tr><td style="font-weight:bold;vertical-align:top">http_content_length</td><td valign="top">:</td><td><div>445</div></td></tr><tr><td style="font-weight:bold;vertical-align:top">http_content_type</td><td valign="top">:</td><td><div>multipart/form-data; boundary=---------------------------3867780502144341448798599680</div></td></tr><tr><td style="font-weight:bold;vertical-align:top">http_cookie</td><td valign="top">:</td><td><div>session_id_welcome=127.0.0.1-2f9a3b1d-f5f1-4fe6-89c9-79b392f92553; session_id_testapp=127.0.0.1-09a6c6a2-67bb-4b2e-afa5-47a6d2c8b6b0; session_id_admin=127.0.0.1-e60d11ff-2e38-490b-afd5-247129cd840f</div></td></tr><tr><td style="font-weight:bold;vertical-align:top">http_host</td><td valign="top">:</td><td><div>127.0.0.1:8000</div></td></tr><tr><td style="font-weight:bold;vertical-align:top">http_referer</td><td valign="top">:</td><td><div>http://127.0.0.1:8000/testapp/default/integration_testing</div></td></tr><tr><td style="font-weight:bold;vertical-align:top">http_user_agent</td><td valign="top">:</td><td><div>Mozilla/5.0 (X11; Ubuntu; Linux x86_64; rv:20.0) Gecko/20100101 Firefox/20.0</div></td></tr><tr><td style="font-weight:bold;vertical-align:top">is_jython</td><td valign="top">:</td><td><div>False</div></td></tr><tr><td style="font-weight:bold;vertical-align:top">is_pypy</td><td valign="top">:</td><td><div>False</div></td></tr><tr><td style="font-weight:bold;vertical-align:top">local_hosts</td><td valign="top">:</td><td><div><table><tr><td><div>::1</div></td></tr><tr><td><div>127.0.1.1</div></td></tr><tr><td><div>baadalvm</div></td></tr><tr><td><div>::ffff:127.0.0.1</div></td></tr><tr><td><div>127.0.0.1</div></td></tr></table></div></td></tr><tr><td style="font-weight:bold;vertical-align:top">path_info</td><td valign="top">:</td><td><div>/testapp/default/integration_testing</div></td></tr><tr><td style="font-weight:bold;vertical-align:top">query_string</td><td valign="top">:</td><td><div></div></td></tr><tr><td style="font-weight:bold;vertical-align:top">remote_addr</td><td valign="top">:</td><td><div>127.0.0.1</div></td></tr><tr><td style="font-weight:bold;vertical-align:top">remote_port</td><td valign="top">:</td><td><div>52026</div></td></tr><tr><td style="font-weight:bold;vertical-align:top">request_method</td><td valign="top">:</td><td><div>POST</div></td></tr><tr><td style="font-weight:bold;vertical-align:top">request_uri</td><td valign="top">:</td><td><div>/testapp/default/integration_testing</div></td></tr><tr><td style="font-weight:bold;vertical-align:top">script_name</td><td valign="top">:</td><td><div></div></td></tr><tr><td style="font-weight:bold;vertical-align:top">server_name</td><td valign="top">:</td><td><div>baadalvm</div></td></tr><tr><td style="font-weight:bold;vertical-align:top">server_port</td><td valign="top">:</td><td><div>8000</div></td></tr><tr><td style="font-weight:bold;vertical-align:top">server_protocol</td><td valign="top">:</td><td><div>HTTP/1.1</div></td></tr><tr><td style="font-weight:bold;vertical-align:top">server_software</td><td valign="top">:</td><td><div>Rocket 1.2.6</div></td></tr><tr><td style="font-weight:bold;vertical-align:top">web2py_path</td><td valign="top">:</td><td><div>/home/baadalvm/Desktop/web2py</div></td></tr><tr><td style="font-weight:bold;vertical-align:top">web2py_version</td><td valign="top">:</td><td><div>2.5.1-stable+timestamp.2013.06.06.15.39.19</div></td></tr><tr><td style="font-weight:bold;vertical-align:top">wsgi_errors</td><td valign="top">:</td><td><div>&lt;open file &#x27;&lt;stderr&gt;&#x27;, mode &#x27;w&#x27; at 0x7fc7ce8c8270&gt;</div></td></tr><tr><td style="font-weight:bold;vertical-align:top">wsgi_file_wrapper</td><td valign="top">:</td><td><div>&lt;class wsgiref.util.FileWrapper at 0x30ac668&gt;</div></td></tr><tr><td style="font-weight:bold;vertical-align:top">wsgi_input</td><td valign="top">:</td><td><div>&lt;socket._fileobject object at 0x7fc7b82c6a50&gt;</div></td></tr><tr><td style="font-weight:bold;vertical-align:top">wsgi_multiprocess</td><td valign="top">:</td><td><div>False</div></td></tr><tr><td style="font-weight:bold;vertical-align:top">wsgi_multithread</td><td valign="top">:</td><td><div>True</div></td></tr><tr><td style="font-weight:bold;vertical-align:top">wsgi_run_once</td><td valign="top">:</td><td><div>False</div></td></tr><tr><td style="font-weight:bold;vertical-align:top">wsgi_url_scheme</td><td valign="top">:</td><td><div>http</div></td></tr><tr><td style="font-weight:bold;vertical-align:top">wsgi_version</td><td valign="top">:</td><td><div><table><tr><td><div>1</div></td></tr><tr><td><div>0</div></td></tr></table></div></td></tr></table></div></td></tr><tr><td style="font-weight:bold;vertical-align:top">extension</td><td valign="top">:</td><td><div>html</div></td></tr><tr><td style="font-weight:bold;vertical-align:top">folder</td><td valign="top">:</td><td><div>/home/baadalvm/Desktop/web2py/applications/testapp/</div></td></tr><tr><td style="font-weight:bold;vertical-align:top">function</td><td valign="top">:</td><td><div>integration_testing</div></td></tr><tr><td style="font-weight:bold;vertical-align:top">get_vars</td><td valign="top">:</td><td><div><table></table></div></td></tr><tr><td style="font-weight:bold;vertical-align:top">global_settings</td><td valign="top">:</td><td><div><table><tr><td style="font-weight:bold;vertical-align:top">app_folders</td><td valign="top">:</td><td><div>set([&#x27;/home/baadalvm/Desktop/web2py/applications/testapp/&#x27;, &#x27;/home/baadalvm/Desktop/web2py/applications/admin/&#x27;, &#x27;/home/baadalvm/Desktop/web2py/applications/welcome/&#x27;])</div></td></tr><tr><td style="font-weight:bold;vertical-align:top">applications_parent</td><td valign="top">:</td><td><div>/home/baadalvm/Desktop/web2py</div></td></tr><tr><td style="font-weight:bold;vertical-align:top">cmd_args</td><td valign="top">:</td><td><div><table></table></div></td></tr><tr><td style="font-weight:bold;vertical-align:top">cmd_options</td><td valign="top">:</td><td><div>&lt;Values at 0x3129998: {&#x27;verbose&#x27;: False, &#x27;ip&#x27;: &#x27;127.0.0.1&#x27;, &#x27;with_scheduler&#x27;: False, &#x27;ips&#x27;: [&#x27;127.0.1.1&#x27;], &#x27;shutdown_timeout&#x27;: 5, &#x27;taskbar&#x27;: False, &#x27;with_coverage&#x27;: False, &#x27;port&#x27;: 8000, &#x27;maxthreads&#x27;: None, &#x27;softcron&#x27;: False, &#x27;server_name&#x27;: &#x27;baadalvm&#x27;, &#x27;bpython&#x27;: False, &#x27;nogui&#x27;: False, &#x27;pid_filename&#x27;: &#x27;httpserver.pid&#x27;, &#x27;extcron&#x27;: False, &#x27;runcron&#x27;: False, &#x27;run_system_tests&#x27;: False, &#x27;test&#x27;: None, &#x27;folder&#x27;: &#x27;/home/baadalvm/Desktop/web2py&#x27;, &#x27;config&#x27;: &#x27;&#x27;, &#x27;minthreads&#x27;: None, &#x27;winservice&#x27;: &#x27;&#x27;, &#x27;shell&#x27;: None, &#x27;run&#x27;: &#x27;&#x27;, &#x27;log_filename&#x27;: &#x27;httpserver.log&#x27;, &#x27;debuglevel&#x27;: 30, &#x27;args&#x27;: [&#x27;&#x27;], &#x27;socket_timeout&#x27;: 5, &#x27;ssl_ca_certificate&#x27;: None, &#x27;scheduler&#x27;: None, &#x27;profiler_filename&#x27;: None, &#x27;ssl_private_key&#x27;: &#x27;&#x27;, &#x27;scheduler_groups&#x27;: None, &#x27;password&#x27;: &#x27;&lt;ask&gt;&#x27;, &#x27;request_queue_size&#x27;: 5, &#x27;ssl_certificate&#x27;: &#x27;&#x27;, &#x27;cronjob&#x27;: False, &#x27;numthreads&#x27;: None, &#x27;quiet&#x27;: False, &#x27;interfaces&#x27;: None, &#x27;import_models&#x27;: False, &#x27;timeout&#x27;: 10, &#x27;plain&#x27;: False, &#x27;nobanner&#x27;: False}&gt;</div></td></tr><tr><td style="font-weight:bold;vertical-align:top">db_sessions</td><td valign="top">:</td><td><div>set([])</div></td></tr><tr><td style="font-weight:bold;vertical-align:top">debugging</td><td valign="top">:</td><td><div>True</div></td></tr><tr><td style="font-weight:bold;vertical-align:top">gluon_parent</td><td valign="top">:</td><td><div>/home/baadalvm/Desktop/web2py</div></td></tr><tr><td style="font-weight:bold;vertical-align:top">is_jython</td><td valign="top">:</td><td><div>False</div></td></tr><tr><td style="font-weight:bold;vertical-align:top">is_pypy</td><td valign="top">:</td><td><div>False</div></td></tr><tr><td style="font-weight:bold;vertical-align:top">local_hosts</td><td valign="top">:</td><td><div><table><tr><td><div>::1</div></td></tr><tr><td><div>127.0.1.1</div></td></tr><tr><td><div>baadalvm</div></td></tr><tr><td><div>::ffff:127.0.0.1</div></td></tr><tr><td><div>127.0.0.1</div></td></tr></table></div></td></tr><tr><td style="font-weight:bold;vertical-align:top">web2py_version</td><td valign="top">:</td><td><div>2.5.1-stable+timestamp.2013.06.06.15.39.19</div></td></tr></table></div></td></tr><tr><td style="font-weight:bold;vertical-align:top">is_https</td><td valign="top">:</td><td><div>False</div></td></tr><tr><td style="font-weight:bold;vertical-align:top">is_local</td><td valign="top">:</td><td><div>True</div></td></tr><tr><td style="font-weight:bold;vertical-align:top">is_restful</td><td valign="top">:</td><td><div>False</div></td></tr><tr><td style="font-weight:bold;vertical-align:top">now</td><td valign="top">:</td><td><div>datetime.datetime(2013, 10, 7, 17, 33, 14, 486303)</div></td></tr><tr><td style="font-weight:bold;vertical-align:top">post_vars</td><td valign="top">:</td><td><div><table><tr><td style="font-weight:bold;vertical-align:top">testcase58</td><td valign="top">:</td><td><div>58</div></td></tr></table></div></td></tr><tr><td style="font-weight:bold;vertical-align:top">raw_args</td><td valign="top">:</td><td><div></div></td></tr><tr><td style="font-weight:bold;vertical-align:top">raw_extension</td><td valign="top">:</td><td><div>None</div></td></tr><tr><td style="font-weight:bold;vertical-align:top">url</td><td valign="top">:</td><td><div>/testapp/default/integration_testing</div></td></tr><tr><td style="font-weight:bold;vertical-align:top">utcnow</td><td valign="top">:</td><td><div>datetime.datetime(2013, 10, 7, 12, 3, 14, 486339)</div></td></tr><tr><td style="font-weight:bold;vertical-align:top">uuid</td><td valign="top">:</td><td><div>testapp/127.0.0.1.2013-10-07.17-33-14.1ae4bae5-b4c2-4b08-8475-5700576521e3</div></td></tr><tr><td style="font-weight:bold;vertical-align:top">vars</td><td valign="top">:</td><td><div><table><tr><td style="font-weight:bold;vertical-align:top">testcase58</td><td valign="top">:</td><td><div>58</div></td></tr></table></div></td></tr><tr><td style="font-weight:bold;vertical-align:top">wsgi</td><td valign="top">:</td><td><div><table><tr><td style="font-weight:bold;vertical-align:top">environ</td><td valign="top">:</td><td><div><table><tr><td style="font-weight:bold;vertical-align:top">CONTENT_LENGTH</td><td valign="top">:</td><td><div>445</div></td></tr><tr><td style="font-weight:bold;vertical-align:top">CONTENT_TYPE</td><td valign="top">:</td><td><div>multipart/form-data; boundary=---------------------------3867780502144341448798599680</div></td></tr><tr><td style="font-weight:bold;vertical-align:top">HTTP_ACCEPT</td><td valign="top">:</td><td><div>text/html,application/xhtml+xml,application/xml;q=0.9,*/*;q=0.8</div></td></tr><tr><td style="font-weight:bold;vertical-align:top">HTTP_ACCEPT_ENCODING</td><td valign="top">:</td><td><div>gzip, deflate</div></td></tr><tr><td style="font-weight:bold;vertical-align:top">HTTP_ACCEPT_LANGUAGE</td><td valign="top">:</td><td><div>en-US,en;q=0.5</div></td></tr><tr><td style="font-weight:bold;vertical-align:top">HTTP_CONNECTION</td><td valign="top">:</td><td><div>keep-alive</div></td></tr><tr><td style="font-weight:bold;vertical-align:top">HTTP_CONTENT_LENGTH</td><td valign="top">:</td><td><div>445</div></td></tr><tr><td style="font-weight:bold;vertical-align:top">HTTP_CONTENT_TYPE</td><td valign="top">:</td><td><div>multipart/form-data; boundary=---------------------------3867780502144341448798599680</div></td></tr><tr><td style="font-weight:bold;vertical-align:top">HTTP_COOKIE</td><td valign="top">:</td><td><div>session_id_welcome=127.0.0.1-2f9a3b1d-f5f1-4fe6-89c9-79b392f92553; session_id_testapp=127.0.0.1-09a6c6a2-67bb-4b2e-afa5-47a6d2c8b6b0; session_id_admin=127.0.0.1-e60d11ff-2e38-490b-afd5-247129cd840f</div></td></tr><tr><td style="font-weight:bold;vertical-align:top">HTTP_HOST</td><td valign="top">:</td><td><div>127.0.0.1:8000</div></td></tr><tr><td style="font-weight:bold;vertical-align:top">HTTP_REFERER</td><td valign="top">:</td><td><div>http://127.0.0.1:8000/testapp/default/integration_testing</div></td></tr><tr><td style="font-weight:bold;vertical-align:top">HTTP_USER_AGENT</td><td valign="top">:</td><td><div>Mozilla/5.0 (X11; Ubuntu; Linux x86_64; rv:20.0) Gecko/20100101 Firefox/20.0</div></td></tr><tr><td style="font-weight:bold;vertical-align:top">PATH_INFO</td><td valign="top">:</td><td><div>/testapp/default/integration_testing</div></td></tr><tr><td style="font-weight:bold;vertical-align:top">QUERY_STRING</td><td valign="top">:</td><td><div></div></td></tr><tr><td style="font-weight:bold;vertical-align:top">REMOTE_ADDR</td><td valign="top">:</td><td><div>127.0.0.1</div></td></tr><tr><td style="font-weight:bold;vertical-align:top">REMOTE_PORT</td><td valign="top">:</td><td><div>52026</div></td></tr><tr><td style="font-weight:bold;vertical-align:top">REQUEST_METHOD</td><td valign="top">:</td><td><div>POST</div></td></tr><tr><td style="font-weight:bold;vertical-align:top">REQUEST_URI</td><td valign="top">:</td><td><div>/testapp/default/integration_testing</div></td></tr><tr><td style="font-weight:bold;vertical-align:top">SCRIPT_NAME</td><td valign="top">:</td><td><div></div></td></tr><tr><td style="font-weight:bold;vertical-align:top">SERVER_NAME</td><td valign="top">:</td><td><div>baadalvm</div></td></tr><tr><td style="font-weight:bold;vertical-align:top">SERVER_PORT</td><td valign="top">:</td><td><div>8000</div></td></tr><tr><td style="font-weight:bold;vertical-align:top">SERVER_PROTOCOL</td><td valign="top">:</td><td><div>HTTP/1.1</div></td></tr><tr><td style="font-weight:bold;vertical-align:top">SERVER_SOFTWARE</td><td valign="top">:</td><td><div>Rocket 1.2.6</div></td></tr><tr><td style="font-weight:bold;vertical-align:top">wsgi.errors</td><td valign="top">:</td><td><div>&lt;open file &#x27;&lt;stderr&gt;&#x27;, mode &#x27;w&#x27; at 0x7fc7ce8c8270&gt;</div></td></tr><tr><td style="font-weight:bold;vertical-align:top">wsgi.file_wrapper</td><td valign="top">:</td><td><div>&lt;class wsgiref.util.FileWrapper at 0x30ac668&gt;</div></td></tr><tr><td style="font-weight:bold;vertical-align:top">wsgi.input</td><td valign="top">:</td><td><div>&lt;open file &#x27;&lt;fdopen&gt;&#x27;, mode &#x27;w+b&#x27; at 0x7fc7b01d5a50&gt;</div></td></tr><tr><td style="font-weight:bold;vertical-align:top">wsgi.multiprocess</td><td valign="top">:</td><td><div>False</div></td></tr><tr><td style="font-weight:bold;vertical-align:top">wsgi.multithread</td><td valign="top">:</td><td><div>True</div></td></tr><tr><td style="font-weight:bold;vertical-align:top">wsgi.run_once</td><td valign="top">:</td><td><div>False</div></td></tr><tr><td style="font-weight:bold;vertical-align:top">wsgi.url_scheme</td><td valign="top">:</td><td><div>http</div></td></tr><tr><td style="font-weight:bold;vertical-align:top">wsgi.version</td><td valign="top">:</td><td><div>1</div></td></tr></table></div></td></tr></table></div></td></tr></table></div>'
tRp64
sS'frames'
p65
(lp66
(dp67
S'file'
p68
S'/home/baadalvm/Desktop/web2py/gluon/restricted.py'
p69
sS'dump'
p70
(dp71
S'environment'
p72
S"{'A': <class 'gluon.html.A'>, 'ANY_OF': <class 'gluon.validators.ANY_OF'>, 'Auth': <class 'gluon.tools.Auth'>, 'B': <class 'gluon.html.B'>, 'BEAUTIFY': <class 'gluon.html.BEAUTIFY'>, 'BODY': <class 'gluon.html.BODY'>, 'BR': <class 'gluon.html.BR'>, 'BUTTON': <class 'gluon.html.BUTTON'>, 'CAT': <class 'gluon.html.CAT'>, 'CENTER': <class 'gluon.html.CENTER'>, ...}"
p73
sS'ccode'
p74
S'<code object <module> at 0x7fc7bc3106b0, file "/...cations/testapp/controllers/default.py", line 11>'
p75
ssS'lnum'
p76
I212
sS'lines'
p77
(dp78
I207
S'    try:'
p79
sI208
S'        if isinstance(code, types.CodeType):'
p80
sI209
S'            ccode = code'
p81
sI210
S'        else:'
p82
sI211
S'            ccode = compile2(code, layer)'
p83
sI212
S'        exec ccode in environment'
p84
sI213
S'    except HTTP:'
p85
sI214
S'        raise'
p86
sI215
S'    except RestrictedError:'
p87
sI216
S'        # do not encapsulate (obfuscate) the original RestrictedError'
p88
ssS'call'
p89
S"(code='# -*- coding: utf-8 -*-\\n# this file is released ...onse._vars=response._caller(integration_testing)\\n', environment={'A': <class 'gluon.html.A'>, 'ANY_OF': <class 'gluon.validators.ANY_OF'>, 'Auth': <class 'gluon.tools.Auth'>, 'B': <class 'gluon.html.B'>, 'BEAUTIFY': <class 'gluon.html.BEAUTIFY'>, 'BODY': <class 'gluon.html.BODY'>, 'BR': <class 'gluon.html.BR'>, 'BUTTON': <class 'gluon.html.BUTTON'>, 'CAT': <class 'gluon.html.CAT'>, 'CENTER': <class 'gluon.html.CENTER'>, ...}, layer='/home/baadalvm/Desktop/web2py/applications/testapp/controllers/default.py')"
p90
sS'func'
p91
S'restricted'
p92
sa(dp93
g68
S'/home/baadalvm/Desktop/web2py/applications/testapp/controllers/default.py'
p94
sg70
(dp95
sg76
I232
sg77
(dp96
I224
S'            if test_case_no!=None:'
p97
sI225
S'                test_script(test_case_no)'
p98
sI226
S'    elif form.errors:'
p99
sI227
S"        response.flash = 'form has errors'"
p100
sI228
S'    else:'
p101
sI229
S"        response.flash = 'please fill the form'"
p102
sI230
S'    return dict(form=form)'
p103
sI221
S'    if form.process().accepted:'
p104
sI222
S'        for i in range(52,70):'
p105
sI223
S"            test_case_no=request.vars['testcase'+str(i)]"
p106
ssg89
S'()'
p107
sg91
S'<module>'
p108
sa(dp109
g68
S'/home/baadalvm/Desktop/web2py/gluon/globals.py'
p110
sg70
(dp111
S'self'
p112
S'undefined'
p113
sS'f'
S'<function integration_testing>'
p114
ssg76
I194
sg77
(dp115
I192
S"        self.delimiters = ('{{', '}}')"
p116
sI193
S'        self._vars = None'
p117
sI194
S'        self._caller = lambda f: f()'
p118
sI195
S'        self._view_environment = None'
p119
sI196
S'        self._custom_commit = None'
p120
sI197
S'        self._custom_rollback = None'
p121
sI198
S''
sI189
S'        self.menu = []             # used by the default view layout'
p122
sI190
S'        self.files = []            # used by web2py_ajax.html'
p123
sI191
S'        self.generic_patterns = []  # patterns to allow generic views'
p124
ssg89
S'(f=<function integration_testing>)'
p125
sg91
S'<lambda>'
p126
sa(dp127
g68
S'/home/baadalvm/Desktop/web2py/applications/testapp/controllers/default.py'
p128
sg70
(dp129
S'test_case_no'
p130
S"'58'"
p131
sS'global test_script'
p132
S'<function test_script>'
p133
ssg76
I225
sg77
(dp134
I224
S'            if test_case_no!=None:'
p135
sI225
S'                test_script(test_case_no)'
p136
sI226
S'    elif form.errors:'
p137
sI227
S"        response.flash = 'form has errors'"
p138
sI228
S'    else:'
p139
sI229
S"        response.flash = 'please fill the form'"
p140
sI220
S'              )'
p141
sI221
S'    if form.process().accepted:'
p142
sI222
S'        for i in range(52,70):'
p143
sI223
S"            test_case_no=request.vars['testcase'+str(i)]"
p144
ssg89
S'()'
p145
sg91
S'integration_testing'
p146
sa(dp147
g68
S'/home/baadalvm/Desktop/web2py/applications/testapp/models/test.py'
p148
sg70
(dp149
S'global isImage'
p150
S'<function isImage>'
p151
sS'table_path'
p152
S'"//div[@class=\'TABLE\']/table/tbody/tr/td"'
p153
sS'xml_sub_child'
p154
S"<Element 'setting'>"
p155
sS'driver'
p156
S'<selenium.webdriver.firefox.webdriver.WebDriver object>'
p157
sS'vm_name2'
p158
g113
sS'xml_child'
p159
S"<Element 'test_case1'>"
p160
ssg76
I168
sg77
(dp161
I163
S'                elif field_type=="table":'
p162
sI164
S'                    isTable(driver,xml_parent,xml_child,xml_sub_child)#checking for data in table'
p163
sI165
S''
sI166
S'                elif field_type=="img":#checking for setting image'
p164
sI167
S'                    table_path=xml_sub_child.get("path")'
p165
sI168
S'                    vm_name2=isImage(driver,xml_child,xml_sub_child,table_path)'
p166
sI169
S''
sI170
S'                elif field_type=="check_tables":#cheking for host table'
p167
sI171
S'                    isCheckTable(driver,xml_parent,xml_child,xml_sub_child)'
p168
sI172
S''
ssg89
S"(test_case_no='58')"
p169
sg91
S'test_script'
p170
sa(dp171
g68
S'/home/baadalvm/Desktop/web2py/applications/testapp/models/test.py'
p172
sg70
(dp173
S'xml_sub_child.get'
p174
S"<bound method Element.get of <Element 'setting'>>"
p175
sS'xml_sub_child'
p176
S"<Element 'setting'>"
p177
ssg76
I773
sg77
(dp178
I768
S'\tdriver.find_element_by_xpath(xml_sub_child.text).click()'
p179
sI769
S'\treturn'
p180
sI770
S''
sI771
S'def isImage(driver,xml_child,xml_sub_child,a):'
p181
sI772
S'    if isElementPresent(driver,xml_child,a):'
p182
sI773
S'        if xml_sub_child.get("name") in {"vm_running_Setting","vm_running_Setting_intgrtn"}:'
p183
sI774
S'            vm_running(xml_child,xml_sub_child,driver)'
p184
sI775
S'        elif xml_sub_child.get("name")=="vm_paused_Setting":'
p185
sI776
S'            vm_paused(xml_child,xml_sub_child,driver)'
p186
sI777
S'        elif xml_sub_child.get("name")=="vm_shutdown_Setting":'
p187
ssg89
S'(driver=<selenium.webdriver.firefox.webdriver.WebDriver object>, xml_child=<Element \'test_case1\'>, xml_sub_child=<Element \'setting\'>, a="//div[@class=\'TABLE\']/table/tbody/tr/td")'
p188
sg91
S'isImage'
p189
sa(dp190
g68
S'/home/baadalvm/Desktop/web2py/applications/testapp/models/test.py'
p191
sg70
(dp192
S'vm_name'
p193
S"'ms_test'"
p194
sS'xml_sub_child'
p195
S"<Element 'setting'>"
p196
sS'driver'
p197
S'<selenium.webdriver.firefox.webdriver.WebDriver object>'
p198
sS'xml_child'
p199
S"<Element 'test_case1'>"
p200
sS'vm_id'
p201
S'51L'
p202
sS'global check_operation'
p203
S'<function check_operation>'
p204
ssg76
I460
sg77
(dp205
I455
S'            print length'
p206
sI456
S'            click_on_setting(driver,xml_sub_child,xml_child,vm_name,vm_id)'
p207
sI457
S'            check_snapshot(vm_name,driver,xml_child,xml_sub_child)'
p208
sI458
S'            check_user(driver,xml_child,xml_sub_child,vm_name)'
p209
sI459
S'            check_vm_configuration(driver,xml_child,xml_sub_child,vm_name)'
p210
sI460
S'            check_operation(driver,xml_child,xml_sub_child,vm_name,vm_id)'
p211
sI461
S'            break'
p212
sI462
S'        if (status==7) | (status==6):'
p213
sI463
S'            if (row_count-1)==count:'
p214
sI464
S'                logger.debug("No VM exist which is in running state,So Please Run a VM before doing this testing")'
p215
ssg89
S"(xml_child=<Element 'test_case1'>, xml_sub_child=<Element 'setting'>, driver=<selenium.webdriver.firefox.webdriver.WebDriver object>)"
p216
sg91
S'vm_running'
p217
sa(dp218
g68
S'/home/baadalvm/Desktop/web2py/applications/testapp/models/test.py'
p219
sg70
(dp220
S'vm_name'
p221
S"'ms_test'"
p222
sS'xml_sub_child'
p223
S"<Element 'setting'>"
p224
sS'driver'
p225
S'<selenium.webdriver.firefox.webdriver.WebDriver object>'
p226
sS'xml_child'
p227
S"<Element 'test_case1'>"
p228
sS'global click_on_operation'
p229
S'<function click_on_operation>'
p230
sS'vm_id'
p231
S'51L'
p232
ssg76
I329
sg77
(dp233
I324
S'    if xml_sub_child.get("op")=="snapshot":'
p234
sI325
S'        max_snap(driver,xml_sub_child,xml_child,vm_name)'
p235
sI326
S'        click_on_operation(driver,xml_sub_child,xml_child,vm_name,vm_id)'
p236
sI327
S''
sI328
S'    else:'
p237
sI329
S'        click_on_operation(driver,xml_sub_child,xml_child,vm_name,vm_id)'
p238
sI330
S'    return'
p239
sI331
S''
sI332
S''
sI333
S''
ssg89
S"(driver=<selenium.webdriver.firefox.webdriver.WebDriver object>, xml_child=<Element 'test_case1'>, xml_sub_child=<Element 'setting'>, vm_name='ms_test', vm_id=51L)"
p240
sg91
S'check_operation'
p241
sa(dp242
g68
S'/home/baadalvm/Desktop/web2py/applications/testapp/models/test.py'
p243
sg70
(dp244
S'vm_name'
p245
S"'ms_test'"
p246
sS'xml_sub_child'
p247
S"<Element 'setting'>"
p248
sS'driver'
p249
S'<selenium.webdriver.firefox.webdriver.WebDriver object>'
p250
sS'xml_child'
p251
S"<Element 'test_case1'>"
p252
sS'global check_vm_task'
p253
S'<function check_vm_task>'
p254
sS'operation_name'
p255
S"'Stop VM'"
p256
ssg76
I430
sg77
(dp257
I425
S'    elif op_name=="edit_vmconfig":'
p258
sI426
S'        driver.find_element_by_xpath("//*[@href=\'/baadal/admin/"+ str(op_name) +"/"+ str(vm_id) +"\']").click()'
p259
sI427
S'    else:'
p260
sI428
S'        driver.find_element_by_xpath("//*[@href=\'/baadal/user/"+ str(op_name) +"/"+ str(vm_id) +"\']").click()'
p261
sI429
S'        if xml_sub_child.get("name")=="vm_running_Setting_intgrtn":'
p262
sI430
S'            check_vm_task(driver,xml_sub_child,xml_child,vm_name,operation_name)'
p263
sI431
S'    return'
p264
sI432
S''
sI433
S''
sI434
S'def max_snap(driver,xml_sub_child,xml_child,vm_name):'
p265
ssg89
S"(driver=<selenium.webdriver.firefox.webdriver.WebDriver object>, xml_sub_child=<Element 'setting'>, xml_child=<Element 'test_case1'>, vm_name='ms_test', vm_id=51L)"
p266
sg91
S'click_on_operation'
p267
sa(dp268
g68
S'/home/baadalvm/Desktop/web2py/applications/testapp/models/test.py'
p269
sg70
(dp270
sg76
I607
sg77
(dp271
I608
S'                    vm_in_failed=check_vm_in_failed_task(driver,xml_sub_child,xml_child,vm_name,operation_name,task_start_time)'
p272
sI609
S'                    print "gfgfklgfjklgfjklfdjklgfjkf"'
p273
sI610
S'                    print vm_in_failed'
p274
sI611
S'                    if(vm_in_failed==1):'
p275
sI602
S'                print vm_in_complted'
p276
sI603
S'                if(vm_in_complted==1):'
p277
sI604
S'                    logger.debug("VM is in Completed Task Table!!!")'
p278
sI605
S'                    count=0'
p279
sI606
S'                    break'
p280
sI607
S'                else:'
p281
ssg89
S"(driver=<selenium.webdriver.firefox.webdriver.WebDriver object>, xml_sub_child=<Element 'setting'>, xml_child=<Element 'test_case1'>, vm_name='ms_test', operation_name='Stop VM')"
p282
sg91
S'check_vm_task'
p283
sa(dp284
g68
S'/home/baadalvm/Desktop/web2py/applications/testapp/models/test.py'
p285
sg70
(dp286
S'driver.find_element_by_partial_link_text'
p287
S'<bound method WebDriver.find_element_by_partial_...um.webdriver.firefox.webdriver.WebDriver object>>'
p288
sS').click'
p289
g113
sS'driver'
p290
S'<selenium.webdriver.firefox.webdriver.WebDriver object>'
p291
ssg76
I682
sg77
(dp292
I677
S'        logger.debug("Collaborator Username is not valid")'
p293
sI678
S'    else:'
p294
sI679
S'        logger.debug("Collaborator added")'
p295
sI680
S''
sI681
S'def check_vm_in_failed_task(driver,xml_sub_child,xml_child,vm_name,operation_name,task_start_time):'
p296
sI682
S'    driver.find_element_by_partial_link_text("Failed Tasks").click()'
p297
sI683
S'    field=driver.find_elements_by_xpath("//table[@id=\'failedtasks\']/tbody/tr")'
p298
sI684
S'    print "faild"'
p299
sI685
S'    vm_in_failed=0'
p300
sI686
S'    for x in field:'
p301
ssg89
S"(driver=<selenium.webdriver.firefox.webdriver.WebDriver object>, xml_sub_child=<Element 'setting'>, xml_child=<Element 'test_case1'>, vm_name='ms_test', operation_name='Stop VM', task_start_time='2013-10-07 17:24:17')"
p302
sg91
S'check_vm_in_failed_task'
p303
sa(dp304
g68
S'/usr/local/lib/python2.7/dist-packages/selenium/webdriver/remote/webdriver.py'
p305
sg70
(dp306
S'xpath'
p307
S'"//table[@id=\'failedtasks\']/tbody/tr"'
p308
sS'self.find_elements'
p309
S'<bound method WebDriver.find_elements of <selenium.webdriver.firefox.webdriver.WebDriver object>>'
p310
sS'self'
p311
S'<selenium.webdriver.firefox.webdriver.WebDriver object>'
p312
sS'value'
p313
g113
sS'By.XPATH'
p314
S"'xpath'"
p315
sS'global By'
p316
S"<class 'selenium.webdriver.common.by.By'>"
p317
sS'by'
p318
g113
ssg76
I234
sg77
(dp319
I229
S'         - xpath - The xpath locator of the elements to be found.'
p320
sI230
S''
sI231
S'        :Usage:'
p321
sI232
S'            driver.find_elements_by_xpath("//div[contains(@class, \'foo\')]")'
p322
sI233
S'        """'
p323
sI234
S'        return self.find_elements(by=By.XPATH, value=xpath)'
p324
sI235
S''
sI236
S'    def find_element_by_link_text(self, link_text):'
p325
sI237
S'        """'
p326
sI238
S'        Finds an element by link text.'
p327
ssg89
S'(self=<selenium.webdriver.firefox.webdriver.WebDriver object>, xpath="//table[@id=\'failedtasks\']/tbody/tr")'
p328
sg91
S'find_elements_by_xpath'
p329
sa(dp330
g68
S'/usr/local/lib/python2.7/dist-packages/selenium/webdriver/remote/webdriver.py'
p331
sg70
(dp332
S'by'
p333
S"'xpath'"
p334
sS'value'
p335
S'"//table[@id=\'failedtasks\']/tbody/tr"'
p336
ssg76
I693
sg77
(dp337
I688
S'        """'
p338
sI689
S'        if isinstance(by, tuple) or isinstance(value, int) or value==None:'
p339
sI690
S'            raise InvalidSelectorException("Invalid locator values passed in")'
p340
sI691
S''
sI692
S'        return self.execute(Command.FIND_ELEMENTS,'
p341
sI693
S"                             {'using': by, 'value': value})['value']"
p342
sI694
S'    @property'
p343
sI695
S'    def desired_capabilities(self):'
p344
sI696
S'        """'
p345
sI697
S'        returns the drivers current desired capabilities being used'
p346
ssg89
S'(self=<selenium.webdriver.firefox.webdriver.WebDriver object>, by=\'xpath\', value="//table[@id=\'failedtasks\']/tbody/tr")'
p347
sg91
S'find_elements'
p348
sa(dp349
g68
S'/usr/local/lib/python2.7/dist-packages/selenium/webdriver/remote/webdriver.py'
p350
sg70
(dp351
S'self.command_executor'
p352
S'<selenium.webdriver.firefox.extension_connection.ExtensionConnection object>'
p353
sS'self'
p354
S'<selenium.webdriver.firefox.webdriver.WebDriver object>'
p355
sS'params'
p356
S'{\'sessionId\': u\'0c6a95ad-e618-4d67-bec4-ff0015f1601a\', \'using\': \'xpath\', \'value\': "//table[@id=\'failedtasks\']/tbody/tr"}'
p357
sS'self.command_executor.execute'
p358
S'<bound method ExtensionConnection.execute of <se...extension_connection.ExtensionConnection object>>'
p359
sS'response'
p360
g113
sS'driver_command'
p361
S"'findElements'"
p362
ssg76
I163
sg77
(dp363
I160
S"            params['sessionId'] = self.session_id"
p364
sI161
S''
sI162
S'        params = self._wrap_value(params)'
p365
sI163
S'        response = self.command_executor.execute(driver_command, params)'
p366
sI164
S'        if response:'
p367
sI165
S'            self.error_handler.check_response(response)'
p368
sI166
S"            response['value'] = self._unwrap_value("
p369
sI167
S"                response.get('value', None))"
p370
sI158
S"            params = {'sessionId': self.session_id}"
p371
sI159
S"        elif 'sessionId' not in params:"
p372
ssg89
S'(self=<selenium.webdriver.firefox.webdriver.WebDriver object>, driver_command=\'findElements\', params={\'sessionId\': u\'0c6a95ad-e618-4d67-bec4-ff0015f1601a\', \'using\': \'xpath\', \'value\': "//table[@id=\'failedtasks\']/tbody/tr"})'
p373
sg91
S'execute'
p374
sa(dp375
g68
S'/usr/local/lib/python2.7/dist-packages/selenium/webdriver/remote/remote_connection.py'
p376
sg70
(dp377
S'url'
p378
S"u'http://127.0.0.1:53321/hub/session/0c6a95ad-e618-4d67-bec4-ff0015f1601a/elements'"
p379
sS'self'
p380
S'<selenium.webdriver.firefox.extension_connection.ExtensionConnection object>'
p381
sS'command_info'
p382
S"('POST', '/session/$sessionId/elements')"
p383
sS'self._request'
p384
S'<bound method ExtensionConnection._request of <s...extension_connection.ExtensionConnection object>>'
p385
sS'data'
p386
S'\'{"using": "xpath", "sessionId": "0c6a95ad-e618-4..., "value": "//table[@id=\\\'failedtasks\\\']/tbody/tr"}\''
p387
sS'method'
p388
g113
ssg76
I349
sg77
(dp389
I352
S'        """'
p390
sI353
S'        Send an HTTP request to the remote server.'
p391
sI344
S'        command_info = self._commands[command]'
p392
sI345
S"        assert command_info is not None, 'Unrecognised command %s' % command"
p393
sI346
S'        data = utils.dump_json(params)'
p394
sI347
S'        path = string.Template(command_info[1]).substitute(params)'
p395
sI348
S"        url = '%s%s' % (self._url, path)"
p396
sI349
S'        return self._request(url, method=command_info[0], data=data)'
p397
sI350
S''
sI351
S'    def _request(self, url, data=None, method=None):'
p398
ssg89
S'(self=<selenium.webdriver.firefox.extension_connection.ExtensionConnection object>, command=\'findElements\', params={\'sessionId\': u\'0c6a95ad-e618-4d67-bec4-ff0015f1601a\', \'using\': \'xpath\', \'value\': "//table[@id=\'failedtasks\']/tbody/tr"})'
p399
sg91
g374
sa(dp400
g68
S'/usr/local/lib/python2.7/dist-packages/selenium/webdriver/remote/remote_connection.py'
p401
sg70
(dp402
S'opener'
p403
S'<urllib2.OpenerDirector instance>'
p404
sS'request'
p405
S'<selenium.webdriver.remote.remote_connection.Request instance>'
p406
sS'response'
p407
g113
sS'opener.open'
p408
S'<bound method OpenerDirector.open of <urllib2.OpenerDirector instance>>'
p409
ssg76
I396
sg77
(dp410
I391
S'                                          HttpErrorHandler(),'
p411
sI392
S'                                          url_request.HTTPBasicAuthHandler(password_manager))'
p412
sI393
S'        else:'
p413
sI394
S'            opener = url_request.build_opener(url_request.HTTPRedirectHandler(),'
p414
sI395
S'                                          HttpErrorHandler())'
p415
sI396
S'        response = opener.open(request)'
p416
sI397
S'        try:'
p417
sI398
S'            if response.code > 399 and response.code < 500:'
p418
sI399
S"                return {'status': response.code, 'value': response.read()}"
p419
sI400
S"            body = response.read().decode('utf-8').replace('\\x00', '').strip()"
p420
ssg89
S'(self=<selenium.webdriver.firefox.extension_connection.ExtensionConnection object>, url=u\'http://127.0.0.1:53321/hub/session/0c6a95ad-e618-4d67-bec4-ff0015f1601a/elements\', data=\'{"using": "xpath", "sessionId": "0c6a95ad-e618-4..., "value": "//table[@id=\\\'failedtasks\\\']/tbody/tr"}\', method=\'POST\')'
p421
sg91
S'_request'
p422
sa(dp423
g68
S'/usr/lib/python2.7/urllib2.py'
p424
sg70
(dp425
S'self'
p426
S'<urllib2.OpenerDirector instance>'
p427
sS'req'
p428
S'<selenium.webdriver.remote.remote_connection.Request instance>'
p429
sS'data'
p430
S'None'
p431
sS'response'
p432
g113
sS'self._open'
p433
S'<bound method OpenerDirector._open of <urllib2.OpenerDirector instance>>'
p434
ssg76
I400
sg77
(dp435
I395
S'        meth_name = protocol+"_request"'
p436
sI396
S'        for processor in self.process_request.get(protocol, []):'
p437
sI397
S'            meth = getattr(processor, meth_name)'
p438
sI398
S'            req = meth(req)'
p439
sI399
S''
sI400
S'        response = self._open(req, data)'
p440
sI401
S''
sI402
S'        # post-process response'
p441
sI403
S'        meth_name = protocol+"_response"'
p442
sI404
S'        for processor in self.process_response.get(protocol, []):'
p443
ssg89
S'(self=<urllib2.OpenerDirector instance>, fullurl=<selenium.webdriver.remote.remote_connection.Request instance>, data=None, timeout=<object object>)'
p444
sg91
S'open'
p445
sa(dp446
g68
S'/usr/lib/python2.7/urllib2.py'
p447
sg70
(dp448
S'req'
p449
S'<selenium.webdriver.remote.remote_connection.Request instance>'
p450
ssg76
I418
sg77
(dp451
I416
S'        protocol = req.get_type()'
p452
sI417
S'        result = self._call_chain(self.handle_open, protocol, protocol +'
p453
sI418
S"                                  '_open', req)"
p454
sI419
S'        if result:'
p455
sI420
S'            return result'
p456
sI421
S''
sI422
S"        return self._call_chain(self.handle_open, 'unknown',"
p457
sI413
S'        if result:'
p458
sI414
S'            return result'
p459
sI415
S''
ssg89
S'(self=<urllib2.OpenerDirector instance>, req=<selenium.webdriver.remote.remote_connection.Request instance>, data=None)'
p460
sg91
S'_open'
p461
sa(dp462
g68
S'/usr/lib/python2.7/urllib2.py'
p463
sg70
(dp464
S'args'
p465
S'(<selenium.webdriver.remote.remote_connection.Request instance>,)'
p466
sS'result'
p467
g113
sS'func'
p468
S'<bound method HTTPHandler.http_open of <urllib2.HTTPHandler instance>>'
p469
ssg76
I378
sg77
(dp470
I373
S'        # could.  Otherwise, they return the response.'
p471
sI374
S'        handlers = chain.get(kind, ())'
p472
sI375
S'        for handler in handlers:'
p473
sI376
S'            func = getattr(handler, meth_name)'
p474
sI377
S''
sI378
S'            result = func(*args)'
p475
sI379
S'            if result is not None:'
p476
sI380
S'                return result'
p477
sI381
S''
sI382
S'    def open(self, fullurl, data=None, timeout=socket._GLOBAL_DEFAULT_TIMEOUT):'
p478
ssg89
S"(self=<urllib2.OpenerDirector instance>, chain={'file': [<urllib2.FileHandler instance>], 'ftp': [<urllib2.FTPHandler instance>], 'http': [<urllib2.HTTPHandler instance>], 'https': [<urllib2.HTTPSHandler instance>], 'unknown': [<urllib2.UnknownHandler instance>]}, kind=u'http', meth_name=u'http_open', *args=(<selenium.webdriver.remote.remote_connection.Request instance>,))"
p479
sg91
S'_call_chain'
p480
sa(dp481
g68
S'/usr/lib/python2.7/urllib2.py'
p482
sg70
(dp483
S'self'
p484
S'<urllib2.HTTPHandler instance>'
p485
sS'req'
p486
S'<selenium.webdriver.remote.remote_connection.Request instance>'
p487
sS'global httplib'
p488
S"<module 'httplib' from '/usr/lib/python2.7/httplib.pyc'>"
p489
sS'self.do_open'
p490
S'<bound method HTTPHandler.do_open of <urllib2.HTTPHandler instance>>'
p491
sS'httplib.HTTPConnection'
p492
S'<class httplib.HTTPConnection>'
p493
ssg76
I1207
sg77
(dp494
I1202
S''
sI1203
S''
sI1204
S'class HTTPHandler(AbstractHTTPHandler):'
p495
sI1205
S''
sI1206
S'    def http_open(self, req):'
p496
sI1207
S'        return self.do_open(httplib.HTTPConnection, req)'
p497
sI1208
S''
sI1209
S'    http_request = AbstractHTTPHandler.do_request_'
p498
sI1210
S''
sI1211
S"if hasattr(httplib, 'HTTPS'):"
p499
ssg89
S'(self=<urllib2.HTTPHandler instance>, req=<selenium.webdriver.remote.remote_connection.Request instance>)'
p500
sg91
S'http_open'
p501
sa(dp502
g68
S'/usr/lib/python2.7/urllib2.py'
p503
sg70
(dp504
S'h'
S'<httplib.HTTPConnection instance>'
p505
sS'buffering'
p506
g113
sS'r'
g113
sS'builtinTrue'
p507
S'True'
p508
sS'h.getresponse'
p509
S'<bound method HTTPConnection.getresponse of <httplib.HTTPConnection instance>>'
p510
ssg76
I1180
sg77
(dp511
I1184
S'        # Pick apart the HTTPResponse object to get the addinfourl'
p512
sI1175
S'        except socket.error, err: # XXX what error?'
p513
sI1176
S'            h.close()'
p514
sI1177
S'            raise URLError(err)'
p515
sI1178
S'        else:'
p516
sI1179
S'            try:'
p517
sI1180
S'                r = h.getresponse(buffering=True)'
p518
sI1181
S'            except TypeError: # buffering kw not supported'
p519
sI1182
S'                r = h.getresponse()'
p520
sI1183
S''
ssg89
S'(self=<urllib2.HTTPHandler instance>, http_class=<class httplib.HTTPConnection>, req=<selenium.webdriver.remote.remote_connection.Request instance>)'
p521
sg91
S'do_open'
p522
sa(dp523
g68
S'/usr/lib/python2.7/httplib.py'
p524
sg70
(dp525
S'response.begin'
p526
S'<bound method HTTPResponse.begin of <httplib.HTTPResponse instance>>'
p527
sS'response'
p528
S'<httplib.HTTPResponse instance>'
p529
ssg76
I1030
sg77
(dp530
I1025
S'            #only add this keyword if non-default, for compatibility with'
p531
sI1026
S'            #other response_classes.'
p532
sI1027
S'            kwds["buffering"] = True;'
p533
sI1028
S'        response = self.response_class(*args, **kwds)'
p534
sI1029
S''
sI1030
S'        response.begin()'
p535
sI1031
S'        assert response.will_close != _UNKNOWN'
p536
sI1032
S'        self.__state = _CS_IDLE'
p537
sI1033
S''
sI1034
S'        if response.will_close:'
p538
ssg89
S'(self=<httplib.HTTPConnection instance>, buffering=True)'
p539
sg91
S'getresponse'
p540
sa(dp541
g68
S'/usr/lib/python2.7/httplib.py'
p542
sg70
(dp543
S'status'
p544
g113
sS'reason'
p545
g113
sS'version'
p546
g113
sS'self'
p547
S'<httplib.HTTPResponse instance>'
p548
sS'self._read_status'
p549
S'<bound method HTTPResponse._read_status of <httplib.HTTPResponse instance>>'
p550
ssg76
I407
sg77
(dp551
I402
S"            # we've already started reading the response"
p552
sI403
S'            return'
p553
sI404
S''
sI405
S'        # read until we get a non-100 response'
p554
sI406
S'        while True:'
p555
sI407
S'            version, status, reason = self._read_status()'
p556
sI408
S'            if status != CONTINUE:'
p557
sI409
S'                break'
p558
sI410
S'            # skip the header from the 100 response'
p559
sI411
S'            while True:'
p560
ssg89
S'(self=<httplib.HTTPResponse instance>)'
p561
sg91
S'begin'
p562
sa(dp563
g68
S'/usr/lib/python2.7/httplib.py'
p564
sg70
(dp565
S'line'
p566
S"''"
p567
sS'global BadStatusLine'
p568
S"<class 'httplib.BadStatusLine'>"
p569
ssg76
I371
sg77
(dp570
I366
S'        if self.debuglevel > 0:'
p571
sI367
S'            print "reply:", repr(line)'
p572
sI368
S'        if not line:'
p573
sI369
S'            # Presumably, the server closed the connection before'
p574
sI370
S'            # sending a valid response.'
p575
sI371
S'            raise BadStatusLine(line)'
p576
sI372
S'        try:'
p577
sI373
S'            [version, status, reason] = line.split(None, 2)'
p578
sI374
S'        except ValueError:'
p579
sI375
S'            try:'
p580
ssg89
S'(self=<httplib.HTTPResponse instance>)'
p581
sg91
S'_read_status'
p582
sasS'pyver'
p583
S'Python 2.7.3: /usr/bin/python (prefix: /usr)'
p584
sS'session'
p585
g63
(S's\x1a\x00\x00\x00<div><table></table></div>'
tRp586
sS'etype'
p587
S"<class 'httplib.BadStatusLine'>"
p588
sS'date'
p589
S'Mon Oct  7 17:35:55 2013'
p590
sS'response'
p591
g63
(S's\xc1,\x00\x00<div><table><tr><td style="font-weight:bold;vertical-align:top">body</td><td valign="top">:</td><td><div>&lt;cStringIO.StringO object at 0x7fc7bc47e228&gt;</div></td></tr><tr><td style="font-weight:bold;vertical-align:top">cookies</td><td valign="top">:</td><td><div><table><tr><td style="font-weight:bold;vertical-align:top">session_id_testapp</td><td valign="top">:</td><td><div>127.0.0.1-09a6c6a2-67bb-4b2e-afa5-47a6d2c8b6b0<table><tr><td style="font-weight:bold;vertical-align:top">comment</td><td valign="top">:</td><td><div></div></td></tr><tr><td style="font-weight:bold;vertical-align:top">domain</td><td valign="top">:</td><td><div></div></td></tr><tr><td style="font-weight:bold;vertical-align:top">expires</td><td valign="top">:</td><td><div></div></td></tr><tr><td style="font-weight:bold;vertical-align:top">httponly</td><td valign="top">:</td><td><div></div></td></tr><tr><td style="font-weight:bold;vertical-align:top">max-age</td><td valign="top">:</td><td><div></div></td></tr><tr><td style="font-weight:bold;vertical-align:top">path</td><td valign="top">:</td><td><div>/</div></td></tr><tr><td style="font-weight:bold;vertical-align:top">secure</td><td valign="top">:</td><td><div></div></td></tr><tr><td style="font-weight:bold;vertical-align:top">version</td><td valign="top">:</td><td><div></div></td></tr></table></div></td></tr></table></div></td></tr><tr><td style="font-weight:bold;vertical-align:top">delimiters</td><td valign="top">:</td><td><div><table><tr><td><div>{{</div></td></tr><tr><td><div>}}</div></td></tr></table></div></td></tr><tr><td style="font-weight:bold;vertical-align:top">files</td><td valign="top">:</td><td><div><table></table></div></td></tr><tr><td style="font-weight:bold;vertical-align:top">flash</td><td valign="top">:</td><td><div>Success!</div></td></tr><tr><td style="font-weight:bold;vertical-align:top">generic_patterns</td><td valign="top">:</td><td><div><table></table></div></td></tr><tr><td style="font-weight:bold;vertical-align:top">google_analytics_id</td><td valign="top">:</td><td><div>None</div></td></tr><tr><td style="font-weight:bold;vertical-align:top">headers</td><td valign="top">:</td><td><div><table><tr><td style="font-weight:bold;vertical-align:top">X-Powered-By</td><td valign="top">:</td><td><div>web2py</div></td></tr></table></div></td></tr><tr><td style="font-weight:bold;vertical-align:top">logo</td><td valign="top">:</td><td><div><a class="brand" href="http://www.web2py.com/"><b>web<span>2</span>py</b>&trade;&nbsp;</a></div></td></tr><tr><td style="font-weight:bold;vertical-align:top">menu</td><td valign="top">:</td><td><div><table><tr><td><div><table><tr><td><div>Home</div></td></tr><tr><td><div>False</div></td></tr><tr><td><div>/testapp/default/index</div></td></tr><tr><td><div><table></table></div></td></tr></table></div></td></tr><tr><td><div><table><tr><td><div><span class="highlighted">web2py</span></div></td></tr><tr><td><div>False</div></td></tr><tr><td><div>http://web2py.com</div></td></tr><tr><td><div><table><tr><td><div><table><tr><td><div>My Sites</div></td></tr><tr><td><div>False</div></td></tr><tr><td><div>/admin/default/site</div></td></tr></table></div></td></tr><tr><td><div><table><tr><td><div>This App</div></td></tr><tr><td><div>False</div></td></tr><tr><td><div>/admin/default/design/testapp</div></td></tr><tr><td><div>[(&lt;lazyT &#x27;Controller&#x27;&gt;, False, &#x27;/admin/default/edit/testapp/controllers/default.py&#x27;), (&lt;lazyT &#x27;View&#x27;&gt;, False, &#x27;/admin/default/edit/testapp/views/default/integration_testing.html&#x27;), (&lt;lazyT &#x27;Layout&#x27;&gt;, False, &#x27;/admin/default/edit/testapp/views/layout.html&#x27;), (&lt;lazyT &#x27;Stylesheet&#x27;&gt;, False, &#x27;/admin/default/edit/testapp/static/css/web2py.css&#x27;), (&lt;lazyT &#x27;DB Model&#x27;&gt;, False, &#x27;/admin/default/edit/testapp/models/db.py&#x27;), (&lt;lazyT &#x27;Menu Model&#x27;&gt;, False, &#x27;/admin/default/edit/testapp/models/menu.py&#x27;), (&lt;lazyT &#x27;Database&#x27;&gt;, False, &#x27;/testapp/appadmin/index&#x27;), (&lt;lazyT &#x27;Errors&#x27;&gt;, False, &#x27;/admin/default/errors/testapp&#x27;), (&lt;lazyT &#x27;About&#x27;&gt;, False, &#x27;/admin/default/about/testapp&#x27;)]</div></td></tr></table></div></td></tr><tr><td><div><table><tr><td><div>web2py.com</div></td></tr><tr><td><div>False</div></td></tr><tr><td><div>http://www.web2py.com</div></td></tr><tr><td><div>[(&lt;lazyT &#x27;Download&#x27;&gt;, False, &#x27;http://www.web2py.com/examples/default/download&#x27;), (&lt;lazyT &#x27;Support&#x27;&gt;, False, &#x27;http://www.web2py.com/examples/default/support&#x27;), (&lt;lazyT &#x27;Demo&#x27;&gt;, False, &#x27;http://web2py.com/demo_admin&#x27;), (&lt;lazyT &#x27;Quick Examples&#x27;&gt;, False, &#x27;http://web2py.com/examples/default/examples&#x27;), (&lt;lazyT &#x27;FAQ&#x27;&gt;, False, &#x27;http://web2py.com/AlterEgo&#x27;), (&lt;lazyT &#x27;Videos&#x27;&gt;, False, &#x27;http://www.web2py.com/examples/default/videos/&#x27;), (&lt;lazyT &#x27;Free Applications&#x27;&gt;, False, &#x27;http://web2py.com/appliances&#x27;), (&lt;lazyT &#x27;Plugins&#x27;&gt;, False, &#x27;http://web2py.com/plugins&#x27;), (&lt;lazyT &#x27;Layouts&#x27;&gt;, False, &#x27;http://web2py.com/layouts&#x27;), (&lt;lazyT &#x27;Recipes&#x27;&gt;, False, &#x27;http://web2pyslices.com/&#x27;), (&lt;lazyT &#x27;Semantic&#x27;&gt;, False, &#x27;http://web2py.com/semantic&#x27;)]</div></td></tr></table></div></td></tr><tr><td><div><table><tr><td><div>Documentation</div></td></tr><tr><td><div>False</div></td></tr><tr><td><div>http://www.web2py.com/book</div></td></tr><tr><td><div>[(&lt;lazyT &#x27;Preface&#x27;&gt;, False, &#x27;http://www.web2py.com/book/default/chapter/00&#x27;), (&lt;lazyT &#x27;Introduction&#x27;&gt;, False, &#x27;http://www.web2py.com/book/default/chapter/01&#x27;), (&lt;lazyT &#x27;Python&#x27;&gt;, False, &#x27;http://www.web2py.com/book/default/chapter/02&#x27;), (&lt;lazyT &#x27;Overview&#x27;&gt;, False, &#x27;http://www.web2py.com/book/default/chapter/03&#x27;), (&lt;lazyT &#x27;The Core&#x27;&gt;, False, &#x27;http://www.web2py.com/book/default/chapter/04&#x27;), (&lt;lazyT &#x27;The Views&#x27;&gt;, False, &#x27;http://www.web2py.com/book/default/chapter/05&#x27;), (&lt;lazyT &#x27;Database&#x27;&gt;, False, &#x27;http://www.web2py.com/book/default/chapter/06&#x27;), (&lt;lazyT &#x27;Forms and Validators&#x27;&gt;, False, &#x27;http://www.web2py.com/book/default/chapter/07&#x27;), (&lt;lazyT &#x27;Email and SMS&#x27;&gt;, False, &#x27;http://www.web2py.com/book/default/chapter/08&#x27;), (&lt;lazyT &#x27;Access Control&#x27;&gt;, False, &#x27;http://www.web2py.com/book/default/chapter/09&#x27;), (&lt;lazyT &#x27;Services&#x27;&gt;, False, &#x27;http://www.web2py.com/book/default/chapter/10&#x27;), (&lt;lazyT &#x27;Ajax Recipes&#x27;&gt;, False, &#x27;http://www.web2py.com/book/default/chapter/11&#x27;), (&lt;lazyT &#x27;Components and Plugins&#x27;&gt;, False, &#x27;http://www.web2py.com/book/default/chapter/12&#x27;), (&lt;lazyT &#x27;Deployment Recipes&#x27;&gt;, False, &#x27;http://www.web2py.com/book/default/chapter/13&#x27;), (&lt;lazyT &#x27;Other Recipes&#x27;&gt;, False, &#x27;http://www.web2py.com/book/default/chapter/14&#x27;), (&lt;lazyT &#x27;Buy this book&#x27;&gt;, False, &#x27;http://stores.lulu.com/web2py&#x27;)]</div></td></tr></table></div></td></tr><tr><td><div><table><tr><td><div>Community</div></td></tr><tr><td><div>False</div></td></tr><tr><td><div>None</div></td></tr><tr><td><div>[(&lt;lazyT &#x27;Groups&#x27;&gt;, False, &#x27;http://www.web2py.com/examples/default/usergroups&#x27;), (&lt;lazyT &#x27;Twitter&#x27;&gt;, False, &#x27;http://twitter.com/web2py&#x27;), (&lt;lazyT &#x27;Live Chat&#x27;&gt;, False, &#x27;http://webchat.freenode.net/?channels=web2py&#x27;)]</div></td></tr></table></div></td></tr><tr><td><div><table><tr><td><div>Plugins</div></td></tr><tr><td><div>False</div></td></tr><tr><td><div>None</div></td></tr><tr><td><div>[(&#x27;plugin_wiki&#x27;, False, &#x27;http://web2py.com/examples/default/download&#x27;), (&lt;lazyT &#x27;Other Plugins&#x27;&gt;, False, &#x27;http://web2py.com/plugins&#x27;), (&lt;lazyT &#x27;Layout Plugins&#x27;&gt;, False, &#x27;http://web2py.com/layouts&#x27;)]</div></td></tr></table></div></td></tr></table></div></td></tr></table></div></td></tr></table></div></td></tr><tr><td style="font-weight:bold;vertical-align:top">meta</td><td valign="top">:</td><td><div><table><tr><td style="font-weight:bold;vertical-align:top">author</td><td valign="top">:</td><td><div>Your Name &lt;you@example.com&gt;</div></td></tr><tr><td style="font-weight:bold;vertical-align:top">description</td><td valign="top">:</td><td><div>a cool new app</div></td></tr><tr><td style="font-weight:bold;vertical-align:top">generator</td><td valign="top">:</td><td><div>Web2py Web Framework</div></td></tr><tr><td style="font-weight:bold;vertical-align:top">keywords</td><td valign="top">:</td><td><div>web2py, python, framework</div></td></tr></table></div></td></tr><tr><td style="font-weight:bold;vertical-align:top">models_to_run</td><td valign="top">:</td><td><div><table><tr><td><div>^\\w+\\.py$</div></td></tr><tr><td><div>^default/\\w+\\.py$</div></td></tr><tr><td><div>^default/integration_testing/\\w+\\.py$</div></td></tr></table></div></td></tr><tr><td style="font-weight:bold;vertical-align:top">postprocessing</td><td valign="top">:</td><td><div><table></table></div></td></tr><tr><td style="font-weight:bold;vertical-align:top">session_cookie_expires</td><td valign="top">:</td><td><div>None</div></td></tr><tr><td style="font-weight:bold;vertical-align:top">session_data_name</td><td valign="top">:</td><td><div>session_data_testapp</div></td></tr><tr><td style="font-weight:bold;vertical-align:top">session_file</td><td valign="top">:</td><td><div>&lt;open file &#x27;/home/baadalvm/Desktop/web2py/applications/testapp/sessions/127.0.0.1-09a6c6a2-67bb-4b2e-afa5-47a6d2c8b6b0&#x27;, mode &#x27;rb+&#x27; at 0x7fc7b81838a0&gt;</div></td></tr><tr><td style="font-weight:bold;vertical-align:top">session_filename</td><td valign="top">:</td><td><div>/home/baadalvm/Desktop/web2py/applications/testapp/sessions/127.0.0.1-09a6c6a2-67bb-4b2e-afa5-47a6d2c8b6b0</div></td></tr><tr><td style="font-weight:bold;vertical-align:top">session_id</td><td valign="top">:</td><td><div>127.0.0.1-09a6c6a2-67bb-4b2e-afa5-47a6d2c8b6b0</div></td></tr><tr><td style="font-weight:bold;vertical-align:top">session_id_name</td><td valign="top">:</td><td><div>session_id_testapp</div></td></tr><tr><td style="font-weight:bold;vertical-align:top">session_locked</td><td valign="top">:</td><td><div>True</div></td></tr><tr><td style="font-weight:bold;vertical-align:top">session_new</td><td valign="top">:</td><td><div>False</div></td></tr><tr><td style="font-weight:bold;vertical-align:top">session_storage_type</td><td valign="top">:</td><td><div>file</div></td></tr><tr><td style="font-weight:bold;vertical-align:top">status</td><td valign="top">:</td><td><div>200</div></td></tr><tr><td style="font-weight:bold;vertical-align:top">subtitle</td><td valign="top">:</td><td><div>customize me!</div></td></tr><tr><td style="font-weight:bold;vertical-align:top">title</td><td valign="top">:</td><td><div>Testapp</div></td></tr><tr><td style="font-weight:bold;vertical-align:top">view</td><td valign="top">:</td><td><div>default/integration_testing.html</div></td></tr></table></div>'
tRp592
sS'locals'
p593
(dp594
S'self'
p595
S'<httplib.HTTPResponse instance>'
p596
sg50
S"''"
p597
sssS'traceback'
p598
S'Traceback (most recent call last):\n  File "/home/baadalvm/Desktop/web2py/gluon/restricted.py", line 212, in restricted\n    exec ccode in environment\n  File "/home/baadalvm/Desktop/web2py/applications/testapp/controllers/default.py", line 232, in <module>\n  File "/home/baadalvm/Desktop/web2py/gluon/globals.py", line 194, in <lambda>\n    self._caller = lambda f: f()\n  File "/home/baadalvm/Desktop/web2py/applications/testapp/controllers/default.py", line 225, in integration_testing\n    test_script(test_case_no)\n  File "/home/baadalvm/Desktop/web2py/applications/testapp/models/test.py", line 168, in test_script\n    vm_name2=isImage(driver,xml_child,xml_sub_child,table_path)\n  File "/home/baadalvm/Desktop/web2py/applications/testapp/models/test.py", line 773, in isImage\n    if xml_sub_child.get("name") in {"vm_running_Setting","vm_running_Setting_intgrtn"}:\n  File "/home/baadalvm/Desktop/web2py/applications/testapp/models/test.py", line 460, in vm_running\n    check_operation(driver,xml_child,xml_sub_child,vm_name,vm_id)\n  File "/home/baadalvm/Desktop/web2py/applications/testapp/models/test.py", line 329, in check_operation\n    click_on_operation(driver,xml_sub_child,xml_child,vm_name,vm_id)\n  File "/home/baadalvm/Desktop/web2py/applications/testapp/models/test.py", line 430, in click_on_operation\n    check_vm_task(driver,xml_sub_child,xml_child,vm_name,operation_name)\n  File "/home/baadalvm/Desktop/web2py/applications/testapp/models/test.py", line 607, in check_vm_task\n    else:\n  File "/home/baadalvm/Desktop/web2py/applications/testapp/models/test.py", line 682, in check_vm_in_failed_task\n    driver.find_element_by_partial_link_text("Failed Tasks").click()\n  File "/usr/local/lib/python2.7/dist-packages/selenium/webdriver/remote/webdriver.py", line 234, in find_elements_by_xpath\n    return self.find_elements(by=By.XPATH, value=xpath)\n  File "/usr/local/lib/python2.7/dist-packages/selenium/webdriver/remote/webdriver.py", line 693, in find_elements\n    {\'using\': by, \'value\': value})[\'value\']\n  File "/usr/local/lib/python2.7/dist-packages/selenium/webdriver/remote/webdriver.py", line 163, in execute\n    response = self.command_executor.execute(driver_command, params)\n  File "/usr/local/lib/python2.7/dist-packages/selenium/webdriver/remote/remote_connection.py", line 349, in execute\n    return self._request(url, method=command_info[0], data=data)\n  File "/usr/local/lib/python2.7/dist-packages/selenium/webdriver/remote/remote_connection.py", line 396, in _request\n    response = opener.open(request)\n  File "/usr/lib/python2.7/urllib2.py", line 400, in open\n    response = self._open(req, data)\n  File "/usr/lib/python2.7/urllib2.py", line 418, in _open\n    \'_open\', req)\n  File "/usr/lib/python2.7/urllib2.py", line 378, in _call_chain\n    result = func(*args)\n  File "/usr/lib/python2.7/urllib2.py", line 1207, in http_open\n    return self.do_open(httplib.HTTPConnection, req)\n  File "/usr/lib/python2.7/urllib2.py", line 1180, in do_open\n    r = h.getresponse(buffering=True)\n  File "/usr/lib/python2.7/httplib.py", line 1030, in getresponse\n    response.begin()\n  File "/usr/lib/python2.7/httplib.py", line 407, in begin\n    version, status, reason = self._read_status()\n  File "/usr/lib/python2.7/httplib.py", line 371, in _read_status\n    raise BadStatusLine(line)\nBadStatusLine: \'\'\n'
p599
s.