(dp1
S'output'
p2
S'<class \'selenium.common.exceptions.NoSuchElementException\'> Message: u\'Unable to locate element: {"method":"xpath","selector":"//*[@href=\\\'/baadal/admin/reject_request/53\\\']"}\' ; Stacktrace: \n    at FirefoxDriver.prototype.findElementInternal_ (file:///tmp/tmpnyoS_F/extensions/fxdriver@googlecode.com/components/driver_component.js:8444)\n    at fxdriver.Timer.prototype.setTimeout/<.notify (file:///tmp/tmpnyoS_F/extensions/fxdriver@googlecode.com/components/driver_component.js:386) '
p3
sS'layer'
p4
S'/home/baadalvm/Desktop/web2py/applications/testapp/controllers/default.py'
p5
sS'code'
p6
S'# -*- coding: utf-8 -*-\n# this file is released under public domain and you can use without limitations\n\n#########################################################################\n## This is a sample controller\n## - index is the default action of any application\n## - user is required for authentication and authorization\n## - download is for downloading files uploaded in the db (does streaming)\n## - call exposes all registered services (none by default)\n#########################################################################\ndef user():\n    """\n    exposes:\n    http://..../[app]/default/user/login\n    http://..../[app]/default/user/logout\n    http://..../[app]/default/user/register\n    http://..../[app]/default/user/profile\n    http://..../[app]/default/user/retrieve_password\n    http://..../[app]/default/user/change_password\n    http://..../[app]/default/user/manage_users (requires membership in \n    use @auth.requires_login()\n        @auth.requires_membership(\'group name\')\n        @auth.requires_permission(\'read\',\'table name\',record_id)\n    to decorate functions that need access control\n    """\n    return dict(form=auth())\n\n#@cache.action()\ndef download():\n    """\n    allows downloading of uploaded files\n    http://..../[app]/default/download/[filename]\n    """\n    return response.download(request, db)\n\n\ndef call():\n    """\n    exposes services. for example:\n    http://..../[app]/default/call/jsonrpc\n    decorate with @services.jsonrpc the functions to expose\n    supports xml, json, xmlrpc, jsonrpc, amfrpc, rss, csv\n    """\n    return service()\n\n\n@auth.requires_signature()\ndef data():\n    """\n    http://..../[app]/default/data/tables\n    http://..../[app]/default/data/create/[table]\n    http://..../[app]/default/data/read/[table]/[id]\n    http://..../[app]/default/data/update/[table]/[id]\n    http://..../[app]/default/data/delete/[table]/[id]\n    http://..../[app]/default/data/select/[table]\n    http://..../[app]/default/data/search/[table]\n    but URLs must be signed, i.e. linked with\n      A(\'table\',_href=URL(\'data/tables\',user_signature=True))\n    or with the signed load operator\n      LOAD(\'default\',\'data.load\',args=\'tables\',ajax=True,user_signature=True)\n    """\n    return dict(form=crud())\n    \n    \n    \ndef unit_testing():\n    import commands\n    form = FORM(  TABLE\n         ( \n            TR(INPUT(_name=\'testcase1\', _type=\'checkbox\', _value="1"),\'Login\'),\n            TR(INPUT(_name=\'testcase2\', _type=\'checkbox\', _value="2"),\'Request VM\'),\n            TR(INPUT(_name=\'testcase3\', _type=\'checkbox\', _value="3"),\'My Pending VMs\'),\n            TR(INPUT(_name=\'testcase46\', _type=\'checkbox\', _value="46"),\'My VMs\'),\n            TR(INPUT(_name=\'testcase4\', _type=\'checkbox\', _value="4"),\'My Pending Tasks\'),\n            TR(INPUT(_name=\'testcase5\', _type=\'checkbox\', _value="5"),\'My Completed Tasks\'),\n            TR(INPUT(_name=\'testcase6\', _type=\'checkbox\', _value="6"),\'My Failed Taskss\'),\n            TR(INPUT(_name=\'testcase7\', _type=\'checkbox\', _value="7"),\'Pending Faculty-Level VM Approvals\'),\n            TR(INPUT(_name=\'testcase8\', _type=\'checkbox\', _value="8"),\'Pending Org-Level VM Approvals\'),\n           TR(INPUT(_name=\'testcase9\', _type=\'checkbox\', _value="9"),\'List All Org-Level VMs\',),\n           TR(INPUT(_name=\'testcase10\', _type=\'checkbox\', _value="10"),\'All VMs\'),\n            TR(INPUT(_name=\'testcase50\', _type=\'checkbox\', _value="50"),\'Pending VM Requests\'),\n           TR(INPUT(_name=\'testcase11\', _type=\'checkbox\', _value="11"),\'Host and VMs\',),\n           TR(INPUT(_name=\'testcase12\', _type=\'checkbox\', _value="12"),\'Pending Tasks\'),\n           TR(INPUT(_name=\'testcase13\', _type=\'checkbox\', _value="13"),\'Completed Tasks\'),\n           TR(INPUT(_name=\'testcase14\', _type=\'checkbox\', _value="14"),\'Failed Tasks\'),\n           TR(INPUT(_name=\'testcase15\', _type=\'checkbox\', _value="15"),\'Configure System: Add Host\'),\n           TR(INPUT(_name=\'testcase16\', _type=\'checkbox\', _value="16"),\'Configure System: Add Template\'),\n           TR(INPUT(_name=\'testcase17\', _type=\'checkbox\', _value="17"),\'Configure System: Add Datastore\'),\n           TR(INPUT(_name=\'testcase18\', _type=\'checkbox\', _value="18"),\'Take VM snapshot    (Running )\'),\n           \n           TR(INPUT(_name=\'testcase19\', _type=\'checkbox\', _value="19"),\'Check VM performance   (Running )\'),\n           TR(INPUT(_name=\'testcase20\', _type=\'checkbox\', _value="20"),\'Pause VM    (Running )\'),\n           \n           TR(INPUT(_name=\'testcase21\', _type=\'checkbox\', _value="21"),\'Add User to VM   (Running )\'),\n           \n           TR(INPUT(_name=\'testcase22\', _type=\'checkbox\', _value="22"),\'Delete VM    (Running)\'),\n           TR(INPUT(_name=\'testcase23\', _type=\'checkbox\', _value="23"),\'Gracefully shut down VM    (Running )\'),\n           TR(INPUT(_name=\'testcase24\', _type=\'checkbox\', _value="24"),\'Forcefully power off VM   (Running )\'),\n            TR(INPUT(_name=\'testcase25\', _type=\'checkbox\', _value="25"),\'Attach Extra Disk to VM   (Running )\'),\n          \n           TR(INPUT(_name=\'testcase26\', _type=\'checkbox\', _value="26"),\'Take VM snapshot   (Paused )\'),\n           TR(INPUT(_name=\'testcase27\', _type=\'checkbox\', _value="27"),\'Check VM performance   (Paused )\'),\n           TR(INPUT(_name=\'testcase28\', _type=\'checkbox\', _value="28"),\'Unpause VM   (Paused )\'),\n           TR(INPUT(_name=\'testcase29\', _type=\'checkbox\', _value="29"),\'Add User to VM  (Paused )\'),\n           TR(INPUT(_name=\'testcase30\', _type=\'checkbox\', _value="30"),\'Delete VM   (Paused )\'),\n           TR(INPUT(_name=\'testcase31\', _type=\'checkbox\', _value="31"),\'Adjust VM Resources Utilization   (Paused )\'),\n           TR(INPUT(_name=\'testcase32\', _type=\'checkbox\', _value="32"),\'Forcefully power off VM   (Paused)\'),\n           TR(INPUT(_name=\'testcase33\', _type=\'checkbox\', _value="33"),\'Delete Addtional User   (Paused )\'), \n           TR(INPUT(_name=\'testcase49\', _type=\'checkbox\', _value="49"),\'Revert Snapshot    (Paused )\'),\n           TR(INPUT(_name=\'testcase42\', _type=\'checkbox\', _value="42"),\'Delete Snapshot    (Paused )\'),\n           TR(INPUT(_name=\'testcase34\', _type=\'checkbox\', _value="34"),\'Check VM performance   (Shutdown )\'),\n           TR(INPUT(_name=\'testcase35\', _type=\'checkbox\', _value="35"),\'Turn on VM   (Shutdown )\'),\n           TR(INPUT(_name=\'testcase36\', _type=\'checkbox\', _value="36"),\'Add User to VM  (Shutdown)\'),\n           TR(INPUT(_name=\'testcase37\', _type=\'checkbox\', _value="37"),\'Delete VM   (Shutdown )\'),\n           TR(INPUT(_name=\'testcase38\', _type=\'checkbox\', _value="38"),\'Attach Extra Disk  (Shutdown )\'),\n           TR(INPUT(_name=\'testcase39\', _type=\'checkbox\', _value="39"),\'Request Clone VM   (Shutdown )\'),\n            TR(INPUT(_name=\'testcase40\', _type=\'checkbox\', _value="40"),\'Edit VM Config   (Shutdown )\'),\n           TR(INPUT(_name=\'testcase41\', _type=\'checkbox\', _value="41"),\'Assign VNC   (Shutdown )\'),\n           \n           TR(INPUT(_name=\'testcase43\', _type=\'checkbox\', _value="43"),\'Take VM snapshot   (Shutdown )\'),\n\n            TR(INPUT(_name=\'testcase44\', _type=\'checkbox\', _value="44"),\'Configure System: Host Setting\'),\n           TR(INPUT(_name=\'testcase45\', _type=\'checkbox\', _value="45"),\'Configure System: Host table\'),  \n           TR(INPUT(_name=\'testcase47\', _type=\'checkbox\', _value="47"),\'Approve VM\'),\n           TR(INPUT(_name=\'testcase48\', _type=\'checkbox\', _value="48"),\'Reject VM\'),\n           \n           BR(),\n           TR(INPUT(_type=\'submit\',_value=\'submit\'))\n          )\n      )\n    if form.process().accepted:\n        for i in range(1,52):\n            test_case_no=request.vars[\'testcase\'+str(i)]\n            if test_case_no!=None:\n                test_script(test_case_no)\n    elif form.errors:\n        response.flash = \'form has errors\'\n    else:\n        response.flash = \'please fill the form\'\n    return dict(form=form)\n    \n\ndef index():\n    try:\n        import commands\n        form = FORM( TABLE\n                  (  TR(INPUT(_name=\'testcase1\', _type=\'radio\', _value="1"),\'Unit Testing\'),\n                     TR(INPUT(_name=\'testcase2\', _type=\'radio\', _value="2"),\'Integration Testing\'),\n                     TR(INPUT(_name=\'testcase3\', _type=\'radio\', _value="3"),\'Stress Testing\'),\n                     BR(),\n                     TR(INPUT(_type=\'submit\',_value=\'submit\'))\n                  )\n                )        \n        if form.process().accepted:\n            if request.vars[\'testcase1\']!=None:\n                redirect(URL(\'unit_testing\'))\n            if request.vars[\'testcase2\']!=None:\n                redirect(URL(\'integration_testing\')) \n            if request.vars[\'testcase3\']!=None:\n                redirect(URL(\'stress_testing\'))          \n        elif form.errors:\n            response.flash = \'form has errors\'\n        else:\n            response.flash = \'please fill the form\'\n        return dict(form=form)\n    except Exception as e:\n        print e\n\n\ndef stress_testing(): \n\n    import commands\n    form = FORM(  TABLE\n        (   TR(INPUT(_name=\'testcase0\', _type=\'checkbox\', _value="0"),\'All\'), \n            BR(),\n            TR(INPUT(_type=\'submit\',_value=\'submit\'))\n        )\n        )\n              \n    if form.process().accepted:\n        test_case_no=request.vars[\'testcase0\']\n        if test_case_no!=None:\n            stress_test_script()\n    elif form.errors:\n        response.flash = \'form has errors\'\n    else:\n        response.flash = \'please fill the form\'\n    return dict(form=form)\n    \n   \ndef integration_testing(): \n    import commands\n    form = FORM(  TABLE\n                  (   \n                       TR(INPUT(_name=\'testcase52\', _type=\'checkbox\', _value="52"),\'Take VM snapshot    (Running )\'),\n           \n           TR(INPUT(_name=\'testcase53\', _type=\'checkbox\', _value="53"),\'Check VM performance   (Running )\'),\n           TR(INPUT(_name=\'testcase54\', _type=\'checkbox\', _value="54"),\'Pause VM    (Running )\'),\n           \n           TR(INPUT(_name=\'testcase55\', _type=\'checkbox\', _value="55"),\'Add User to VM   (Running )\'),\n           \n           TR(INPUT(_name=\'testcase56\', _type=\'checkbox\', _value="56"),\'Delete VM    (Running)\'),\n           TR(INPUT(_name=\'testcase57\', _type=\'checkbox\', _value="57"),\'Gracefully shut down VM    (Running )\'),\n           TR(INPUT(_name=\'testcase58\', _type=\'checkbox\', _value="58"),\'Forcefully power off VM   (Running )\'),\n            TR(INPUT(_name=\'testcase59\', _type=\'checkbox\', _value="59"),\'Attach Extra Disk to VM   (Running )\'),\n                      TR(INPUT(_name=\'testcase60\', _type=\'checkbox\', _value="60"),\'Take VM snapshot   (Paused )\'),\n                      TR(INPUT(_name=\'testcase61\', _type=\'checkbox\', _value="61"),\'Unpause VM   (Paused )\'),\n                      TR(INPUT(_name=\'testcase62\', _type=\'checkbox\', _value="62"),\'Add User to VM  (Paused )\'),\n                      TR(INPUT(_name=\'testcase63\', _type=\'checkbox\', _value="63"),\'Delete VM   (Paused )\'),\n                      TR(INPUT(_name=\'testcase64\', _type=\'checkbox\', _value="64"),\'Adjust VM Resources Utilization   (Paused )\'),\n                      TR(INPUT(_name=\'testcase65\', _type=\'checkbox\', _value="65"),\'Forcefully power off VM   (Paused)\'),\n                      TR(INPUT(_name=\'testcase66\', _type=\'checkbox\', _value="66"),\'Faculty Request VM(Approved by org-admin)\'),\n                      TR(INPUT(_name=\'testcase67\', _type=\'checkbox\', _value="67"),\'Turn on VM   (Shutdown )\'),\n                      TR(INPUT(_name=\'testcase68\', _type=\'checkbox\', _value="68"),\'Add User to VM  (Shutdown)\'),\n                      TR(INPUT(_name=\'testcase69\', _type=\'checkbox\', _value="69"),\'Delete VM   (Shutdown )\'),\n                      TR(INPUT(_name=\'testcase70\', _type=\'checkbox\', _value="70"),\'Attach Extra Disk  (Shutdown )\'),\n                       TR(INPUT(_name=\'testcase71\', _type=\'checkbox\', _value="71"),\'Request Clone VM   (Shutdown )\'),\n                       TR(INPUT(_name=\'testcase72\', _type=\'checkbox\', _value="72"),\'Edit VM Config   (Shutdown )\'),\n                       TR(INPUT(_name=\'testcase73\', _type=\'checkbox\', _value="73"),\'Assign VNC   (Shutdown )\'),\n                       TR(INPUT(_name=\'testcase74\', _type=\'checkbox\', _value="74"),\'Delete VM snapshot   (Shutdown )\'),\n                       TR(INPUT(_name=\'testcase75\', _type=\'checkbox\', _value="75"),\'Take VM snapshot   (Shutdown )\'),\n                       TR(INPUT(_name=\'testcase85\', _type=\'checkbox\', _value="85"),\'Faculty Request VM(Rejected by org-admin)\'),\n                       TR(INPUT(_name=\'testcase86\', _type=\'checkbox\', _value="86"),\'Admin Request VM(Approved by org-admin)\'),\n                       TR(INPUT(_name=\'testcase78\', _type=\'checkbox\', _value="78"), \'Admin Request VM(Rejected by org-admin)\'),\n                       TR(INPUT(_name=\'testcase79\', _type=\'checkbox\', _value="79"),\'User Request VM(Approved by Faculty and org-admin)\'),\n                       TR(INPUT(_name=\'testcase80\', _type=\'checkbox\', _value="80"),\'User Request VM(Rejected by Faculty)\'),\n                       TR(INPUT(_name=\'testcase81\', _type=\'checkbox\', _value="81"),\'User Request VM(Approved by Faculty and Rejected by org-admin)\'),\n                       TR(INPUT(_name=\'testcase82\', _type=\'checkbox\', _value="82"),\'Configure Template\'),\n                       TR(INPUT(_name=\'testcase83\', _type=\'checkbox\', _value="83"),\'Configure Host\'),\n                        TR(INPUT(_name=\'testcase84\', _type=\'checkbox\', _value="84"),\'Configure Datastore\'),\n                       TR(INPUT(_name=\'testcase76\', _type=\'checkbox\', _value="76"),\'Reject Attach Disk\'),\n           \n                       TR(INPUT(_name=\'testcase77\', _type=\'checkbox\', _value="77"),\'Reject Clone VM\'),\n                      BR(),\n                      TR(INPUT(_type=\'submit\',_value=\'submit\'))\n            )\n     )\n    if form.process().accepted:\n        for i in range(52,87):\n            test_case_no=request.vars[\'testcase\'+str(i)]\n            if test_case_no!=None:\n                test_script(test_case_no)\n    elif form.errors:\n        response.flash = \'form has errors\'\n    else:\n        response.flash = \'please fill the form\'\n    return dict(form=form)\n\nresponse._vars=response._caller(integration_testing)\n'
p7
sS'snapshot'
p8
(dp9
S'exception'
p10
(dp11
S'stacktrace'
p12
S"[u'    at FirefoxDriver.prototype.findElementInte...glecode.com/components/driver_component.js:8444)', u'    at fxdriver.Timer.prototype.setTimeout/<.n...oglecode.com/components/driver_component.js:386)']"
p13
sS'__module__'
p14
S"'selenium.common.exceptions'"
p15
sS'__getslice__'
p16
S"<method-wrapper '__getslice__' of NoSuchElementException object>"
p17
sS'__str__'
p18
S'<bound method NoSuchElementException.__str__ of NoSuchElementException()>'
p19
sS'__reduce__'
p20
S'<built-in method __reduce__ of NoSuchElementException object>'
p21
sS'__dict__'
p22
S'{\'msg\': u\'Unable to locate element: {"method":"xpath","s...//*[@href=\\\'/baadal/admin/reject_request/53\\\']"}\', \'screen\': None, \'stacktrace\': [u\'    at FirefoxDriver.prototype.findElementInte...glecode.com/components/driver_component.js:8444)\', u\'    at fxdriver.Timer.prototype.setTimeout/<.n...oglecode.com/components/driver_component.js:386)\']}'
p23
sS'__sizeof__'
p24
S'<built-in method __sizeof__ of NoSuchElementException object>'
p25
sS'__weakref__'
p26
S'None'
p27
sS'__init__'
p28
S'<bound method NoSuchElementException.__init__ of NoSuchElementException()>'
p29
sS'__setattr__'
p30
S"<method-wrapper '__setattr__' of NoSuchElementException object>"
p31
sS'__reduce_ex__'
p32
S'<built-in method __reduce_ex__ of NoSuchElementException object>'
p33
sS'__new__'
p34
S'<built-in method __new__ of type object>'
p35
sS'__format__'
p36
S'<built-in method __format__ of NoSuchElementException object>'
p37
sS'__class__'
p38
S"<class 'selenium.common.exceptions.NoSuchElementException'>"
p39
sS'msg'
p40
S'u\'Unable to locate element: {"method":"xpath","s...//*[@href=\\\'/baadal/admin/reject_request/53\\\']"}\''
p41
sS'__doc__'
p42
S'"find_element_by_* can\'t find the element."'
p43
sS'__getitem__'
p44
S"<method-wrapper '__getitem__' of NoSuchElementException object>"
p45
sS'__setstate__'
p46
S'<built-in method __setstate__ of NoSuchElementException object>'
p47
sS'__getattribute__'
p48
S"<method-wrapper '__getattribute__' of NoSuchElementException object>"
p49
sS'screen'
p50
S'None'
p51
sS'args'
p52
S'()'
p53
sS'__subclasshook__'
p54
S'<built-in method __subclasshook__ of type object>'
p55
sS'__unicode__'
p56
S'<built-in method __unicode__ of NoSuchElementException object>'
p57
sS'__delattr__'
p58
S"<method-wrapper '__delattr__' of NoSuchElementException object>"
p59
sS'__repr__'
p60
S"<method-wrapper '__repr__' of NoSuchElementException object>"
p61
sS'__hash__'
p62
S"<method-wrapper '__hash__' of NoSuchElementException object>"
p63
ssS'evalue'
p64
S'Message: u\'Unable to locate element: {"method":"xpath","selector":"//*[@href=\\\'/baadal/admin/reject_request/53\\\']"}\' ; Stacktrace: \n    at FirefoxDriver.prototype.findElementInternal_ (file:///tmp/tmpnyoS_F/extensions/fxdriver@googlecode.com/components/driver_component.js:8444)\n    at fxdriver.Timer.prototype.setTimeout/<.notify (file:///tmp/tmpnyoS_F/extensions/fxdriver@googlecode.com/components/driver_component.js:386) '
p65
sS'request'
p66
cgluon.html
XML_unpickle
p67
(S's\xbaZ\x00\x00<div><table><tr><td style="font-weight:bold;vertical-align:top">ajax</td><td valign="top">:</td><td><div>False</div></td></tr><tr><td style="font-weight:bold;vertical-align:top">application</td><td valign="top">:</td><td><div>testapp</div></td></tr><tr><td style="font-weight:bold;vertical-align:top">args</td><td valign="top">:</td><td><div><table></table></div></td></tr><tr><td style="font-weight:bold;vertical-align:top">body</td><td valign="top">:</td><td><div>&lt;open file &#x27;&lt;fdopen&gt;&#x27;, mode &#x27;w+b&#x27; at 0x7fc7d41bc420&gt;</div></td></tr><tr><td style="font-weight:bold;vertical-align:top">cid</td><td valign="top">:</td><td><div>None</div></td></tr><tr><td style="font-weight:bold;vertical-align:top">client</td><td valign="top">:</td><td><div>127.0.0.1</div></td></tr><tr><td style="font-weight:bold;vertical-align:top">controller</td><td valign="top">:</td><td><div>default</div></td></tr><tr><td style="font-weight:bold;vertical-align:top">cookies</td><td valign="top">:</td><td><div><table><tr><td style="font-weight:bold;vertical-align:top">session_id_admin</td><td valign="top">:</td><td><div>127.0.0.1-0e21cf8f-3af5-4c89-8cd5-02684e767d98<table><tr><td style="font-weight:bold;vertical-align:top">comment</td><td valign="top">:</td><td><div></div></td></tr><tr><td style="font-weight:bold;vertical-align:top">domain</td><td valign="top">:</td><td><div></div></td></tr><tr><td style="font-weight:bold;vertical-align:top">expires</td><td valign="top">:</td><td><div></div></td></tr><tr><td style="font-weight:bold;vertical-align:top">httponly</td><td valign="top">:</td><td><div></div></td></tr><tr><td style="font-weight:bold;vertical-align:top">max-age</td><td valign="top">:</td><td><div></div></td></tr><tr><td style="font-weight:bold;vertical-align:top">path</td><td valign="top">:</td><td><div></div></td></tr><tr><td style="font-weight:bold;vertical-align:top">secure</td><td valign="top">:</td><td><div></div></td></tr><tr><td style="font-weight:bold;vertical-align:top">version</td><td valign="top">:</td><td><div></div></td></tr></table></div></td></tr><tr><td style="font-weight:bold;vertical-align:top">session_id_testapp</td><td valign="top">:</td><td><div>127.0.0.1-99066bcf-9228-4750-94dd-766d89ab36a6<table><tr><td style="font-weight:bold;vertical-align:top">comment</td><td valign="top">:</td><td><div></div></td></tr><tr><td style="font-weight:bold;vertical-align:top">domain</td><td valign="top">:</td><td><div></div></td></tr><tr><td style="font-weight:bold;vertical-align:top">expires</td><td valign="top">:</td><td><div></div></td></tr><tr><td style="font-weight:bold;vertical-align:top">httponly</td><td valign="top">:</td><td><div></div></td></tr><tr><td style="font-weight:bold;vertical-align:top">max-age</td><td valign="top">:</td><td><div></div></td></tr><tr><td style="font-weight:bold;vertical-align:top">path</td><td valign="top">:</td><td><div></div></td></tr><tr><td style="font-weight:bold;vertical-align:top">secure</td><td valign="top">:</td><td><div></div></td></tr><tr><td style="font-weight:bold;vertical-align:top">version</td><td valign="top">:</td><td><div></div></td></tr></table></div></td></tr><tr><td style="font-weight:bold;vertical-align:top">session_id_welcome</td><td valign="top">:</td><td><div>127.0.0.1-13dd9a29-f5b7-42fb-8cbd-f3574f3fa971<table><tr><td style="font-weight:bold;vertical-align:top">comment</td><td valign="top">:</td><td><div></div></td></tr><tr><td style="font-weight:bold;vertical-align:top">domain</td><td valign="top">:</td><td><div></div></td></tr><tr><td style="font-weight:bold;vertical-align:top">expires</td><td valign="top">:</td><td><div></div></td></tr><tr><td style="font-weight:bold;vertical-align:top">httponly</td><td valign="top">:</td><td><div></div></td></tr><tr><td style="font-weight:bold;vertical-align:top">max-age</td><td valign="top">:</td><td><div></div></td></tr><tr><td style="font-weight:bold;vertical-align:top">path</td><td valign="top">:</td><td><div></div></td></tr><tr><td style="font-weight:bold;vertical-align:top">secure</td><td valign="top">:</td><td><div></div></td></tr><tr><td style="font-weight:bold;vertical-align:top">version</td><td valign="top">:</td><td><div></div></td></tr></table></div></td></tr></table></div></td></tr><tr><td style="font-weight:bold;vertical-align:top">env</td><td valign="top">:</td><td><div><table><tr><td style="font-weight:bold;vertical-align:top">app_folders</td><td valign="top">:</td><td><div>set([&#x27;/home/baadalvm/Desktop/web2py/applications/testapp/&#x27;, &#x27;/home/baadalvm/Desktop/web2py/applications/admin/&#x27;, &#x27;/home/baadalvm/Desktop/web2py/applications/welcome/&#x27;])</div></td></tr><tr><td style="font-weight:bold;vertical-align:top">applications_parent</td><td valign="top">:</td><td><div>/home/baadalvm/Desktop/web2py</div></td></tr><tr><td style="font-weight:bold;vertical-align:top">cmd_args</td><td valign="top">:</td><td><div><table></table></div></td></tr><tr><td style="font-weight:bold;vertical-align:top">cmd_options</td><td valign="top">:</td><td><div>&lt;Values at 0x2875998: {&#x27;verbose&#x27;: False, &#x27;ip&#x27;: &#x27;127.0.0.1&#x27;, &#x27;with_scheduler&#x27;: False, &#x27;ips&#x27;: [&#x27;127.0.1.1&#x27;], &#x27;shutdown_timeout&#x27;: 5, &#x27;taskbar&#x27;: False, &#x27;with_coverage&#x27;: False, &#x27;port&#x27;: 8000, &#x27;maxthreads&#x27;: None, &#x27;softcron&#x27;: False, &#x27;server_name&#x27;: &#x27;baadalvm&#x27;, &#x27;bpython&#x27;: False, &#x27;nogui&#x27;: False, &#x27;pid_filename&#x27;: &#x27;httpserver.pid&#x27;, &#x27;extcron&#x27;: False, &#x27;runcron&#x27;: False, &#x27;run_system_tests&#x27;: False, &#x27;test&#x27;: None, &#x27;folder&#x27;: &#x27;/home/baadalvm/Desktop/web2py&#x27;, &#x27;config&#x27;: &#x27;&#x27;, &#x27;minthreads&#x27;: None, &#x27;winservice&#x27;: &#x27;&#x27;, &#x27;shell&#x27;: None, &#x27;run&#x27;: &#x27;&#x27;, &#x27;log_filename&#x27;: &#x27;httpserver.log&#x27;, &#x27;debuglevel&#x27;: 30, &#x27;args&#x27;: [&#x27;&#x27;], &#x27;socket_timeout&#x27;: 5, &#x27;ssl_ca_certificate&#x27;: None, &#x27;scheduler&#x27;: None, &#x27;profiler_filename&#x27;: None, &#x27;ssl_private_key&#x27;: &#x27;&#x27;, &#x27;scheduler_groups&#x27;: None, &#x27;password&#x27;: &#x27;&lt;ask&gt;&#x27;, &#x27;request_queue_size&#x27;: 5, &#x27;ssl_certificate&#x27;: &#x27;&#x27;, &#x27;cronjob&#x27;: False, &#x27;numthreads&#x27;: None, &#x27;quiet&#x27;: False, &#x27;interfaces&#x27;: None, &#x27;import_models&#x27;: False, &#x27;timeout&#x27;: 10, &#x27;plain&#x27;: False, &#x27;nobanner&#x27;: False}&gt;</div></td></tr><tr><td style="font-weight:bold;vertical-align:top">content_length</td><td valign="top">:</td><td><div>441</div></td></tr><tr><td style="font-weight:bold;vertical-align:top">content_type</td><td valign="top">:</td><td><div>multipart/form-data; boundary=---------------------------208458692442877508584007882</div></td></tr><tr><td style="font-weight:bold;vertical-align:top">db_sessions</td><td valign="top">:</td><td><div>set([])</div></td></tr><tr><td style="font-weight:bold;vertical-align:top">debugging</td><td valign="top">:</td><td><div>True</div></td></tr><tr><td style="font-weight:bold;vertical-align:top">gluon_parent</td><td valign="top">:</td><td><div>/home/baadalvm/Desktop/web2py</div></td></tr><tr><td style="font-weight:bold;vertical-align:top">http_accept</td><td valign="top">:</td><td><div>text/html,application/xhtml+xml,application/xml;q=0.9,*/*;q=0.8</div></td></tr><tr><td style="font-weight:bold;vertical-align:top">http_accept_encoding</td><td valign="top">:</td><td><div>gzip, deflate</div></td></tr><tr><td style="font-weight:bold;vertical-align:top">http_accept_language</td><td valign="top">:</td><td><div>en-US,en;q=0.5</div></td></tr><tr><td style="font-weight:bold;vertical-align:top">http_connection</td><td valign="top">:</td><td><div>keep-alive</div></td></tr><tr><td style="font-weight:bold;vertical-align:top">http_content_length</td><td valign="top">:</td><td><div>441</div></td></tr><tr><td style="font-weight:bold;vertical-align:top">http_content_type</td><td valign="top">:</td><td><div>multipart/form-data; boundary=---------------------------208458692442877508584007882</div></td></tr><tr><td style="font-weight:bold;vertical-align:top">http_cookie</td><td valign="top">:</td><td><div>session_id_welcome=127.0.0.1-13dd9a29-f5b7-42fb-8cbd-f3574f3fa971; session_id_testapp=127.0.0.1-99066bcf-9228-4750-94dd-766d89ab36a6; session_id_admin=127.0.0.1-0e21cf8f-3af5-4c89-8cd5-02684e767d98</div></td></tr><tr><td style="font-weight:bold;vertical-align:top">http_host</td><td valign="top">:</td><td><div>127.0.0.1:8000</div></td></tr><tr><td style="font-weight:bold;vertical-align:top">http_referer</td><td valign="top">:</td><td><div>http://127.0.0.1:8000/testapp/default/integration_testing</div></td></tr><tr><td style="font-weight:bold;vertical-align:top">http_user_agent</td><td valign="top">:</td><td><div>Mozilla/5.0 (X11; Ubuntu; Linux x86_64; rv:20.0) Gecko/20100101 Firefox/20.0</div></td></tr><tr><td style="font-weight:bold;vertical-align:top">is_jython</td><td valign="top">:</td><td><div>False</div></td></tr><tr><td style="font-weight:bold;vertical-align:top">is_pypy</td><td valign="top">:</td><td><div>False</div></td></tr><tr><td style="font-weight:bold;vertical-align:top">local_hosts</td><td valign="top">:</td><td><div><table><tr><td><div>::1</div></td></tr><tr><td><div>127.0.1.1</div></td></tr><tr><td><div>baadalvm</div></td></tr><tr><td><div>::ffff:127.0.0.1</div></td></tr><tr><td><div>127.0.0.1</div></td></tr></table></div></td></tr><tr><td style="font-weight:bold;vertical-align:top">path_info</td><td valign="top">:</td><td><div>/testapp/default/integration_testing</div></td></tr><tr><td style="font-weight:bold;vertical-align:top">query_string</td><td valign="top">:</td><td><div></div></td></tr><tr><td style="font-weight:bold;vertical-align:top">remote_addr</td><td valign="top">:</td><td><div>127.0.0.1</div></td></tr><tr><td style="font-weight:bold;vertical-align:top">remote_port</td><td valign="top">:</td><td><div>48755</div></td></tr><tr><td style="font-weight:bold;vertical-align:top">request_method</td><td valign="top">:</td><td><div>POST</div></td></tr><tr><td style="font-weight:bold;vertical-align:top">request_uri</td><td valign="top">:</td><td><div>/testapp/default/integration_testing</div></td></tr><tr><td style="font-weight:bold;vertical-align:top">script_name</td><td valign="top">:</td><td><div></div></td></tr><tr><td style="font-weight:bold;vertical-align:top">server_name</td><td valign="top">:</td><td><div>baadalvm</div></td></tr><tr><td style="font-weight:bold;vertical-align:top">server_port</td><td valign="top">:</td><td><div>8000</div></td></tr><tr><td style="font-weight:bold;vertical-align:top">server_protocol</td><td valign="top">:</td><td><div>HTTP/1.1</div></td></tr><tr><td style="font-weight:bold;vertical-align:top">server_software</td><td valign="top">:</td><td><div>Rocket 1.2.6</div></td></tr><tr><td style="font-weight:bold;vertical-align:top">web2py_path</td><td valign="top">:</td><td><div>/home/baadalvm/Desktop/web2py</div></td></tr><tr><td style="font-weight:bold;vertical-align:top">web2py_version</td><td valign="top">:</td><td><div>2.5.1-stable+timestamp.2013.06.06.15.39.19</div></td></tr><tr><td style="font-weight:bold;vertical-align:top">wsgi_errors</td><td valign="top">:</td><td><div>&lt;open file &#x27;&lt;stderr&gt;&#x27;, mode &#x27;w&#x27; at 0x7fc7f1fd9270&gt;</div></td></tr><tr><td style="font-weight:bold;vertical-align:top">wsgi_file_wrapper</td><td valign="top">:</td><td><div>&lt;class wsgiref.util.FileWrapper at 0x27f8668&gt;</div></td></tr><tr><td style="font-weight:bold;vertical-align:top">wsgi_input</td><td valign="top">:</td><td><div>&lt;socket._fileobject object at 0x7fc7bc2d3bd0&gt;</div></td></tr><tr><td style="font-weight:bold;vertical-align:top">wsgi_multiprocess</td><td valign="top">:</td><td><div>False</div></td></tr><tr><td style="font-weight:bold;vertical-align:top">wsgi_multithread</td><td valign="top">:</td><td><div>True</div></td></tr><tr><td style="font-weight:bold;vertical-align:top">wsgi_run_once</td><td valign="top">:</td><td><div>False</div></td></tr><tr><td style="font-weight:bold;vertical-align:top">wsgi_url_scheme</td><td valign="top">:</td><td><div>http</div></td></tr><tr><td style="font-weight:bold;vertical-align:top">wsgi_version</td><td valign="top">:</td><td><div><table><tr><td><div>1</div></td></tr><tr><td><div>0</div></td></tr></table></div></td></tr></table></div></td></tr><tr><td style="font-weight:bold;vertical-align:top">extension</td><td valign="top">:</td><td><div>html</div></td></tr><tr><td style="font-weight:bold;vertical-align:top">folder</td><td valign="top">:</td><td><div>/home/baadalvm/Desktop/web2py/applications/testapp/</div></td></tr><tr><td style="font-weight:bold;vertical-align:top">function</td><td valign="top">:</td><td><div>integration_testing</div></td></tr><tr><td style="font-weight:bold;vertical-align:top">get_vars</td><td valign="top">:</td><td><div><table></table></div></td></tr><tr><td style="font-weight:bold;vertical-align:top">global_settings</td><td valign="top">:</td><td><div><table><tr><td style="font-weight:bold;vertical-align:top">app_folders</td><td valign="top">:</td><td><div>set([&#x27;/home/baadalvm/Desktop/web2py/applications/testapp/&#x27;, &#x27;/home/baadalvm/Desktop/web2py/applications/admin/&#x27;, &#x27;/home/baadalvm/Desktop/web2py/applications/welcome/&#x27;])</div></td></tr><tr><td style="font-weight:bold;vertical-align:top">applications_parent</td><td valign="top">:</td><td><div>/home/baadalvm/Desktop/web2py</div></td></tr><tr><td style="font-weight:bold;vertical-align:top">cmd_args</td><td valign="top">:</td><td><div><table></table></div></td></tr><tr><td style="font-weight:bold;vertical-align:top">cmd_options</td><td valign="top">:</td><td><div>&lt;Values at 0x2875998: {&#x27;verbose&#x27;: False, &#x27;ip&#x27;: &#x27;127.0.0.1&#x27;, &#x27;with_scheduler&#x27;: False, &#x27;ips&#x27;: [&#x27;127.0.1.1&#x27;], &#x27;shutdown_timeout&#x27;: 5, &#x27;taskbar&#x27;: False, &#x27;with_coverage&#x27;: False, &#x27;port&#x27;: 8000, &#x27;maxthreads&#x27;: None, &#x27;softcron&#x27;: False, &#x27;server_name&#x27;: &#x27;baadalvm&#x27;, &#x27;bpython&#x27;: False, &#x27;nogui&#x27;: False, &#x27;pid_filename&#x27;: &#x27;httpserver.pid&#x27;, &#x27;extcron&#x27;: False, &#x27;runcron&#x27;: False, &#x27;run_system_tests&#x27;: False, &#x27;test&#x27;: None, &#x27;folder&#x27;: &#x27;/home/baadalvm/Desktop/web2py&#x27;, &#x27;config&#x27;: &#x27;&#x27;, &#x27;minthreads&#x27;: None, &#x27;winservice&#x27;: &#x27;&#x27;, &#x27;shell&#x27;: None, &#x27;run&#x27;: &#x27;&#x27;, &#x27;log_filename&#x27;: &#x27;httpserver.log&#x27;, &#x27;debuglevel&#x27;: 30, &#x27;args&#x27;: [&#x27;&#x27;], &#x27;socket_timeout&#x27;: 5, &#x27;ssl_ca_certificate&#x27;: None, &#x27;scheduler&#x27;: None, &#x27;profiler_filename&#x27;: None, &#x27;ssl_private_key&#x27;: &#x27;&#x27;, &#x27;scheduler_groups&#x27;: None, &#x27;password&#x27;: &#x27;&lt;ask&gt;&#x27;, &#x27;request_queue_size&#x27;: 5, &#x27;ssl_certificate&#x27;: &#x27;&#x27;, &#x27;cronjob&#x27;: False, &#x27;numthreads&#x27;: None, &#x27;quiet&#x27;: False, &#x27;interfaces&#x27;: None, &#x27;import_models&#x27;: False, &#x27;timeout&#x27;: 10, &#x27;plain&#x27;: False, &#x27;nobanner&#x27;: False}&gt;</div></td></tr><tr><td style="font-weight:bold;vertical-align:top">db_sessions</td><td valign="top">:</td><td><div>set([])</div></td></tr><tr><td style="font-weight:bold;vertical-align:top">debugging</td><td valign="top">:</td><td><div>True</div></td></tr><tr><td style="font-weight:bold;vertical-align:top">gluon_parent</td><td valign="top">:</td><td><div>/home/baadalvm/Desktop/web2py</div></td></tr><tr><td style="font-weight:bold;vertical-align:top">is_jython</td><td valign="top">:</td><td><div>False</div></td></tr><tr><td style="font-weight:bold;vertical-align:top">is_pypy</td><td valign="top">:</td><td><div>False</div></td></tr><tr><td style="font-weight:bold;vertical-align:top">local_hosts</td><td valign="top">:</td><td><div><table><tr><td><div>::1</div></td></tr><tr><td><div>127.0.1.1</div></td></tr><tr><td><div>baadalvm</div></td></tr><tr><td><div>::ffff:127.0.0.1</div></td></tr><tr><td><div>127.0.0.1</div></td></tr></table></div></td></tr><tr><td style="font-weight:bold;vertical-align:top">web2py_version</td><td valign="top">:</td><td><div>2.5.1-stable+timestamp.2013.06.06.15.39.19</div></td></tr></table></div></td></tr><tr><td style="font-weight:bold;vertical-align:top">is_https</td><td valign="top">:</td><td><div>False</div></td></tr><tr><td style="font-weight:bold;vertical-align:top">is_local</td><td valign="top">:</td><td><div>True</div></td></tr><tr><td style="font-weight:bold;vertical-align:top">is_restful</td><td valign="top">:</td><td><div>False</div></td></tr><tr><td style="font-weight:bold;vertical-align:top">now</td><td valign="top">:</td><td><div>datetime.datetime(2013, 10, 8, 15, 26, 36, 631862)</div></td></tr><tr><td style="font-weight:bold;vertical-align:top">post_vars</td><td valign="top">:</td><td><div><table><tr><td style="font-weight:bold;vertical-align:top">testcase76</td><td valign="top">:</td><td><div>76</div></td></tr></table></div></td></tr><tr><td style="font-weight:bold;vertical-align:top">raw_args</td><td valign="top">:</td><td><div></div></td></tr><tr><td style="font-weight:bold;vertical-align:top">raw_extension</td><td valign="top">:</td><td><div>None</div></td></tr><tr><td style="font-weight:bold;vertical-align:top">url</td><td valign="top">:</td><td><div>/testapp/default/integration_testing</div></td></tr><tr><td style="font-weight:bold;vertical-align:top">utcnow</td><td valign="top">:</td><td><div>datetime.datetime(2013, 10, 8, 9, 56, 36, 631903)</div></td></tr><tr><td style="font-weight:bold;vertical-align:top">uuid</td><td valign="top">:</td><td><div>testapp/127.0.0.1.2013-10-08.15-26-36.188356af-e5ee-4cac-804d-73f76712c79b</div></td></tr><tr><td style="font-weight:bold;vertical-align:top">vars</td><td valign="top">:</td><td><div><table><tr><td style="font-weight:bold;vertical-align:top">testcase76</td><td valign="top">:</td><td><div>76</div></td></tr></table></div></td></tr><tr><td style="font-weight:bold;vertical-align:top">wsgi</td><td valign="top">:</td><td><div><table><tr><td style="font-weight:bold;vertical-align:top">environ</td><td valign="top">:</td><td><div><table><tr><td style="font-weight:bold;vertical-align:top">CONTENT_LENGTH</td><td valign="top">:</td><td><div>441</div></td></tr><tr><td style="font-weight:bold;vertical-align:top">CONTENT_TYPE</td><td valign="top">:</td><td><div>multipart/form-data; boundary=---------------------------208458692442877508584007882</div></td></tr><tr><td style="font-weight:bold;vertical-align:top">HTTP_ACCEPT</td><td valign="top">:</td><td><div>text/html,application/xhtml+xml,application/xml;q=0.9,*/*;q=0.8</div></td></tr><tr><td style="font-weight:bold;vertical-align:top">HTTP_ACCEPT_ENCODING</td><td valign="top">:</td><td><div>gzip, deflate</div></td></tr><tr><td style="font-weight:bold;vertical-align:top">HTTP_ACCEPT_LANGUAGE</td><td valign="top">:</td><td><div>en-US,en;q=0.5</div></td></tr><tr><td style="font-weight:bold;vertical-align:top">HTTP_CONNECTION</td><td valign="top">:</td><td><div>keep-alive</div></td></tr><tr><td style="font-weight:bold;vertical-align:top">HTTP_CONTENT_LENGTH</td><td valign="top">:</td><td><div>441</div></td></tr><tr><td style="font-weight:bold;vertical-align:top">HTTP_CONTENT_TYPE</td><td valign="top">:</td><td><div>multipart/form-data; boundary=---------------------------208458692442877508584007882</div></td></tr><tr><td style="font-weight:bold;vertical-align:top">HTTP_COOKIE</td><td valign="top">:</td><td><div>session_id_welcome=127.0.0.1-13dd9a29-f5b7-42fb-8cbd-f3574f3fa971; session_id_testapp=127.0.0.1-99066bcf-9228-4750-94dd-766d89ab36a6; session_id_admin=127.0.0.1-0e21cf8f-3af5-4c89-8cd5-02684e767d98</div></td></tr><tr><td style="font-weight:bold;vertical-align:top">HTTP_HOST</td><td valign="top">:</td><td><div>127.0.0.1:8000</div></td></tr><tr><td style="font-weight:bold;vertical-align:top">HTTP_REFERER</td><td valign="top">:</td><td><div>http://127.0.0.1:8000/testapp/default/integration_testing</div></td></tr><tr><td style="font-weight:bold;vertical-align:top">HTTP_USER_AGENT</td><td valign="top">:</td><td><div>Mozilla/5.0 (X11; Ubuntu; Linux x86_64; rv:20.0) Gecko/20100101 Firefox/20.0</div></td></tr><tr><td style="font-weight:bold;vertical-align:top">PATH_INFO</td><td valign="top">:</td><td><div>/testapp/default/integration_testing</div></td></tr><tr><td style="font-weight:bold;vertical-align:top">QUERY_STRING</td><td valign="top">:</td><td><div></div></td></tr><tr><td style="font-weight:bold;vertical-align:top">REMOTE_ADDR</td><td valign="top">:</td><td><div>127.0.0.1</div></td></tr><tr><td style="font-weight:bold;vertical-align:top">REMOTE_PORT</td><td valign="top">:</td><td><div>48755</div></td></tr><tr><td style="font-weight:bold;vertical-align:top">REQUEST_METHOD</td><td valign="top">:</td><td><div>POST</div></td></tr><tr><td style="font-weight:bold;vertical-align:top">REQUEST_URI</td><td valign="top">:</td><td><div>/testapp/default/integration_testing</div></td></tr><tr><td style="font-weight:bold;vertical-align:top">SCRIPT_NAME</td><td valign="top">:</td><td><div></div></td></tr><tr><td style="font-weight:bold;vertical-align:top">SERVER_NAME</td><td valign="top">:</td><td><div>baadalvm</div></td></tr><tr><td style="font-weight:bold;vertical-align:top">SERVER_PORT</td><td valign="top">:</td><td><div>8000</div></td></tr><tr><td style="font-weight:bold;vertical-align:top">SERVER_PROTOCOL</td><td valign="top">:</td><td><div>HTTP/1.1</div></td></tr><tr><td style="font-weight:bold;vertical-align:top">SERVER_SOFTWARE</td><td valign="top">:</td><td><div>Rocket 1.2.6</div></td></tr><tr><td style="font-weight:bold;vertical-align:top">wsgi.errors</td><td valign="top">:</td><td><div>&lt;open file &#x27;&lt;stderr&gt;&#x27;, mode &#x27;w&#x27; at 0x7fc7f1fd9270&gt;</div></td></tr><tr><td style="font-weight:bold;vertical-align:top">wsgi.file_wrapper</td><td valign="top">:</td><td><div>&lt;class wsgiref.util.FileWrapper at 0x27f8668&gt;</div></td></tr><tr><td style="font-weight:bold;vertical-align:top">wsgi.input</td><td valign="top">:</td><td><div>&lt;open file &#x27;&lt;fdopen&gt;&#x27;, mode &#x27;w+b&#x27; at 0x7fc7d41bc420&gt;</div></td></tr><tr><td style="font-weight:bold;vertical-align:top">wsgi.multiprocess</td><td valign="top">:</td><td><div>False</div></td></tr><tr><td style="font-weight:bold;vertical-align:top">wsgi.multithread</td><td valign="top">:</td><td><div>True</div></td></tr><tr><td style="font-weight:bold;vertical-align:top">wsgi.run_once</td><td valign="top">:</td><td><div>False</div></td></tr><tr><td style="font-weight:bold;vertical-align:top">wsgi.url_scheme</td><td valign="top">:</td><td><div>http</div></td></tr><tr><td style="font-weight:bold;vertical-align:top">wsgi.version</td><td valign="top">:</td><td><div>1</div></td></tr></table></div></td></tr></table></div></td></tr></table></div>'
tRp68
sS'frames'
p69
(lp70
(dp71
S'file'
p72
S'/home/baadalvm/Desktop/web2py/gluon/restricted.py'
p73
sS'dump'
p74
(dp75
S'environment'
p76
S"{'A': <class 'gluon.html.A'>, 'ANY_OF': <class 'gluon.validators.ANY_OF'>, 'Auth': <class 'gluon.tools.Auth'>, 'B': <class 'gluon.html.B'>, 'BEAUTIFY': <class 'gluon.html.BEAUTIFY'>, 'BODY': <class 'gluon.html.BODY'>, 'BR': <class 'gluon.html.BR'>, 'BUTTON': <class 'gluon.html.BUTTON'>, 'CAT': <class 'gluon.html.CAT'>, 'CENTER': <class 'gluon.html.CENTER'>, ...}"
p77
sS'ccode'
p78
S'<code object <module> at 0x7fc7c033d9b0, file "/...cations/testapp/controllers/default.py", line 11>'
p79
ssS'lnum'
p80
I212
sS'lines'
p81
(dp82
I207
S'    try:'
p83
sI208
S'        if isinstance(code, types.CodeType):'
p84
sI209
S'            ccode = code'
p85
sI210
S'        else:'
p86
sI211
S'            ccode = compile2(code, layer)'
p87
sI212
S'        exec ccode in environment'
p88
sI213
S'    except HTTP:'
p89
sI214
S'        raise'
p90
sI215
S'    except RestrictedError:'
p91
sI216
S'        # do not encapsulate (obfuscate) the original RestrictedError'
p92
ssS'call'
p93
S"(code='# -*- coding: utf-8 -*-\\n# this file is released ...onse._vars=response._caller(integration_testing)\\n', environment={'A': <class 'gluon.html.A'>, 'ANY_OF': <class 'gluon.validators.ANY_OF'>, 'Auth': <class 'gluon.tools.Auth'>, 'B': <class 'gluon.html.B'>, 'BEAUTIFY': <class 'gluon.html.BEAUTIFY'>, 'BODY': <class 'gluon.html.BODY'>, 'BR': <class 'gluon.html.BR'>, 'BUTTON': <class 'gluon.html.BUTTON'>, 'CAT': <class 'gluon.html.CAT'>, 'CENTER': <class 'gluon.html.CENTER'>, ...}, layer='/home/baadalvm/Desktop/web2py/applications/testapp/controllers/default.py')"
p94
sS'func'
p95
S'restricted'
p96
sa(dp97
g72
S'/home/baadalvm/Desktop/web2py/applications/testapp/controllers/default.py'
p98
sg74
(dp99
sg80
I249
sg81
(dp100
I238
S'    if form.process().accepted:'
p101
sI239
S'        for i in range(52,87):'
p102
sI240
S"            test_case_no=request.vars['testcase'+str(i)]"
p103
sI241
S'            if test_case_no!=None:'
p104
sI242
S'                test_script(test_case_no)'
p105
sI243
S'    elif form.errors:'
p106
sI244
S"        response.flash = 'form has errors'"
p107
sI245
S'    else:'
p108
sI246
S"        response.flash = 'please fill the form'"
p109
sI247
S'    return dict(form=form)'
p110
ssg93
S'()'
p111
sg95
S'<module>'
p112
sa(dp113
g72
S'/home/baadalvm/Desktop/web2py/gluon/globals.py'
p114
sg74
(dp115
S'self'
p116
S'undefined'
p117
sS'f'
S'<function integration_testing>'
p118
ssg80
I194
sg81
(dp119
I192
S"        self.delimiters = ('{{', '}}')"
p120
sI193
S'        self._vars = None'
p121
sI194
S'        self._caller = lambda f: f()'
p122
sI195
S'        self._view_environment = None'
p123
sI196
S'        self._custom_commit = None'
p124
sI197
S'        self._custom_rollback = None'
p125
sI198
S''
sI189
S'        self.menu = []             # used by the default view layout'
p126
sI190
S'        self.files = []            # used by web2py_ajax.html'
p127
sI191
S'        self.generic_patterns = []  # patterns to allow generic views'
p128
ssg93
S'(f=<function integration_testing>)'
p129
sg95
S'<lambda>'
p130
sa(dp131
g72
S'/home/baadalvm/Desktop/web2py/applications/testapp/controllers/default.py'
p132
sg74
(dp133
S'test_case_no'
p134
S"'76'"
p135
sS'global test_script'
p136
S'<function test_script>'
p137
ssg80
I242
sg81
(dp138
I237
S'     )'
p139
sI238
S'    if form.process().accepted:'
p140
sI239
S'        for i in range(52,87):'
p141
sI240
S"            test_case_no=request.vars['testcase'+str(i)]"
p142
sI241
S'            if test_case_no!=None:'
p143
sI242
S'                test_script(test_case_no)'
p144
sI243
S'    elif form.errors:'
p145
sI244
S"        response.flash = 'form has errors'"
p146
sI245
S'    else:'
p147
sI246
S"        response.flash = 'please fill the form'"
p148
ssg93
S'()'
p149
sg95
S'integration_testing'
p150
sa(dp151
g72
S'/home/baadalvm/Desktop/web2py/applications/testapp/models/test.py'
p152
sg74
(dp153
S'global isImage'
p154
S'<function isImage>'
p155
sS'table_path'
p156
S'"//div[@class=\'TABLE\']/table/tbody/tr/td"'
p157
sS'xml_sub_child'
p158
S"<Element 'setting'>"
p159
sS'driver'
p160
S'<selenium.webdriver.firefox.webdriver.WebDriver object>'
p161
sS'vm_name2'
p162
g117
sS'xml_child'
p163
S"<Element 'test_case1'>"
p164
ssg80
I168
sg81
(dp165
I163
S'                elif field_type=="table":'
p166
sI164
S'                    isTable(driver,xml_parent,xml_child,xml_sub_child)#checking for data in table'
p167
sI165
S''
sI166
S'                elif field_type=="img":#checking for setting image'
p168
sI167
S'                    table_path=xml_sub_child.get("path")'
p169
sI168
S'                    vm_name2=isImage(driver,xml_child,xml_sub_child,table_path)'
p170
sI169
S''
sI170
S'                elif field_type=="check_tables":#cheking for host table'
p171
sI171
S'                    isCheckTable(driver,xml_parent,xml_child,xml_sub_child)'
p172
sI172
S''
ssg93
S"(test_case_no='76')"
p173
sg95
S'test_script'
p174
sa(dp175
g72
S'/home/baadalvm/Desktop/web2py/applications/testapp/models/test.py'
p176
sg74
(dp177
S'xml_child'
p178
S"<Element 'test_case1'>"
p179
sS'xml_sub_child'
p180
S"<Element 'setting'>"
p181
sS'driver'
p182
S'<selenium.webdriver.firefox.webdriver.WebDriver object>'
p183
sS'global vm_shutdown'
p184
S'<function vm_shutdown>'
p185
ssg80
I776
sg81
(dp186
I771
S'            vm_running(xml_child,xml_sub_child,driver)'
p187
sI772
S'        elif xml_sub_child.get("name") in {"vm_paused_Setting","vm_paused_Setting_integrtn"}:'
p188
sI773
S'            vm_paused(xml_child,xml_sub_child,driver)'
p189
sI774
S'        elif xml_sub_child.get("name") in {"vm_shutdown_Setting","vm_shutdown_Setting_integrtn"}:'
p190
sI775
S'            print "in"'
p191
sI776
S'            vm_shutdown(xml_child,xml_sub_child,driver)'
p192
sI777
S'        else :'
p193
sI778
S'            logger.debug("Error")'
p194
sI779
S'    return'
p195
sI780
S''
ssg93
S'(driver=<selenium.webdriver.firefox.webdriver.WebDriver object>, xml_child=<Element \'test_case1\'>, xml_sub_child=<Element \'setting\'>, a="//div[@class=\'TABLE\']/table/tbody/tr/td")'
p196
sg95
S'isImage'
p197
sa(dp198
g72
S'/home/baadalvm/Desktop/web2py/applications/testapp/models/test.py'
p199
sg74
(dp200
S'vm_name'
p201
S"'ms_test12'"
p202
sS'xml_sub_child'
p203
S"<Element 'setting'>"
p204
sS'driver'
p205
S'<selenium.webdriver.firefox.webdriver.WebDriver object>'
p206
sS'xml_child'
p207
S"<Element 'test_case1'>"
p208
sS'vm_id'
p209
S'53L'
p210
sS'global check_operation'
p211
S'<function check_operation>'
p212
ssg80
I528
sg81
(dp213
I523
S'            id=xml_sub_child.get("id")'
p214
sI524
S'            vm_name=query_result[length][0]'
p215
sI525
S'            vm_id=query_result[length][1]'
p216
sI526
S'            driver.find_element_by_xpath("//*[@href=\'/baadal/user/"+ str(id) +"/"+ str(vm_id) +"\']").click()'
p217
sI527
S'            logger.debug(xml_child.get("value") +\': Result:Setting button works properly\')'
p218
sI528
S'            check_operation(driver,xml_child,xml_sub_child,vm_name,vm_id)'
p219
sI529
S'            break'
p220
sI530
S'        if (status==5) | (status==6):'
p221
sI531
S'            if count==(row_count-1):'
p222
sI532
S'                logger.debug("No VM exist which is in shutdown mode,So Please Shutdown a VM before doing this testing")'
p223
ssg93
S"(xml_child=<Element 'test_case1'>, xml_sub_child=<Element 'setting'>, driver=<selenium.webdriver.firefox.webdriver.WebDriver object>)"
p224
sg95
S'vm_shutdown'
p225
sa(dp226
g72
S'/home/baadalvm/Desktop/web2py/applications/testapp/models/test.py'
p227
sg74
(dp228
S'vm_name'
p229
S"'ms_test12'"
p230
sS'xml_sub_child'
p231
S"<Element 'setting'>"
p232
sS'driver'
p233
S'<selenium.webdriver.firefox.webdriver.WebDriver object>'
p234
sS'xml_child'
p235
S"<Element 'test_case1'>"
p236
sS'global click_on_operation'
p237
S'<function click_on_operation>'
p238
sS'vm_id'
p239
S'53L'
p240
ssg80
I329
sg81
(dp241
I324
S'    if xml_sub_child.get("op")=="snapshot":'
p242
sI325
S'        max_snap(driver,xml_sub_child,xml_child,vm_name)'
p243
sI326
S'        click_on_operation(driver,xml_sub_child,xml_child,vm_name,vm_id)'
p244
sI327
S''
sI328
S'    else:'
p245
sI329
S'        click_on_operation(driver,xml_sub_child,xml_child,vm_name,vm_id)'
p246
sI330
S'    return'
p247
sI331
S''
sI332
S''
sI333
S''
ssg93
S"(driver=<selenium.webdriver.firefox.webdriver.WebDriver object>, xml_child=<Element 'test_case1'>, xml_sub_child=<Element 'setting'>, vm_name='ms_test12', vm_id=53L)"
p248
sg95
S'check_operation'
p249
sa(dp250
g72
S'/home/baadalvm/Desktop/web2py/applications/testapp/models/test.py'
p251
sg74
(dp252
S'vm_name'
p253
S"'ms_test12'"
p254
sS'xml_sub_child'
p255
S"<Element 'setting'>"
p256
sS'driver'
p257
S'<selenium.webdriver.firefox.webdriver.WebDriver object>'
p258
sS'xml_child'
p259
S"<Element 'test_case1'>"
p260
sS'global check_attach_disk'
p261
S'<function check_attach_disk>'
p262
sS'vm_id'
p263
S'53L'
p264
sS'operation_name'
p265
S"'Attach Disk'"
p266
ssg80
I440
sg81
(dp267
I435
S'        driver.find_element_by_xpath("//*[@href=\'/baadal/user/"+ str(op_name) +"/"+ str(vm_id) +"\']").click()'
p268
sI436
S'        add_extra_disk(driver,xml_sub_child,xml_child,vm_name,vm_id)'
p269
sI437
S'        print "why?????????"'
p270
sI438
S'        if xml_sub_child.get("name")=="vm_shutdown_Setting_integrtn":'
p271
sI439
S'            print "12345678"'
p272
sI440
S'            check_attach_disk(driver,xml_sub_child,xml_child,vm_name,vm_id,operation_name)'
p273
sI441
S'    elif op_name=="edit_vmconfig":'
p274
sI442
S'        driver.find_element_by_xpath("//*[@href=\'/baadal/admin/"+ str(op_name) +"/"+ str(vm_id) +"\']").click()'
p275
sI443
S'    else:'
p276
sI444
S'        driver.find_element_by_xpath("//*[@href=\'/baadal/user/"+ str(op_name) +"/"+ str(vm_id) +"\']").click()'
p277
ssg93
S"(driver=<selenium.webdriver.firefox.webdriver.WebDriver object>, xml_sub_child=<Element 'setting'>, xml_child=<Element 'test_case1'>, vm_name='ms_test12', vm_id=53L)"
p278
sg95
S'click_on_operation'
p279
sa(dp280
g72
S'/home/baadalvm/Desktop/web2py/applications/testapp/models/test.py'
p281
sg74
(dp282
S'builtinstr'
p283
S"<type 'str'>"
p284
sS'driver.find_element_by_xpath'
p285
S'<bound method WebDriver.find_element_by_xpath of...um.webdriver.firefox.webdriver.WebDriver object>>'
p286
sS').click'
p287
g117
sS'vm_id'
p288
S'53L'
p289
sS'driver'
p290
S'<selenium.webdriver.firefox.webdriver.WebDriver object>'
p291
ssg80
I405
sg81
(dp292
I400
S'        driver.find_element_by_xpath("//*[@href=\'/baadal/admin/approve_request/"+ str(vm_id) +"\']").click()'
p293
sI401
S''
sI402
S'        check_vm_task(driver,xml_sub_child,xml_child,vm_name,operation_name)'
p294
sI403
S'    else:'
p295
sI404
S'        print "reject"'
p296
sI405
S'        driver.find_element_by_xpath("//*[@href=\'/baadal/admin/reject_request/"+ str(vm_id) +"\']").click()'
p297
sI406
S'        print "done Yehhh"'
p298
sI407
S'    return'
p299
sI408
S''
sI409
S''
ssg93
S"(driver=<selenium.webdriver.firefox.webdriver.WebDriver object>, xml_sub_child=<Element 'setting'>, xml_child=<Element 'test_case1'>, vm_name='ms_test12', vm_id=53L, operation_name='Attach Disk')"
p300
sg95
S'check_attach_disk'
p301
sa(dp302
g72
S'/usr/local/lib/python2.7/dist-packages/selenium/webdriver/remote/webdriver.py'
p303
sg74
(dp304
S'xpath'
p305
S'"//*[@href=\'/baadal/admin/reject_request/53\']"'
p306
sS'self.find_element'
p307
S'<bound method WebDriver.find_element of <selenium.webdriver.firefox.webdriver.WebDriver object>>'
p308
sS'self'
p309
S'<selenium.webdriver.firefox.webdriver.WebDriver object>'
p310
sS'value'
p311
g117
sS'By.XPATH'
p312
S"'xpath'"
p313
sS'global By'
p314
S"<class 'selenium.webdriver.common.by.By'>"
p315
sS'by'
p316
g117
ssg80
I222
sg81
(dp317
I224
S'    def find_elements_by_xpath(self, xpath):'
p318
sI225
S'        """'
p319
sI226
S'        Finds multiple elements by xpath.'
p320
sI217
S'         - xpath - The xpath locator of the element to find.'
p321
sI218
S''
sI219
S'        :Usage:'
p322
sI220
S"            driver.find_element_by_xpath('//div/td[1]')"
p323
sI221
S'        """'
p324
sI222
S'        return self.find_element(by=By.XPATH, value=xpath)'
p325
sI223
S''
ssg93
S'(self=<selenium.webdriver.firefox.webdriver.WebDriver object>, xpath="//*[@href=\'/baadal/admin/reject_request/53\']")'
p326
sg95
S'find_element_by_xpath'
p327
sa(dp328
g72
S'/usr/local/lib/python2.7/dist-packages/selenium/webdriver/remote/webdriver.py'
p329
sg74
(dp330
S'by'
p331
S"'xpath'"
p332
sS'value'
p333
S'"//*[@href=\'/baadal/admin/reject_request/53\']"'
p334
ssg80
I680
sg81
(dp335
I675
S'        """'
p336
sI676
S'        if isinstance(by, tuple) or isinstance(value, int) or value==None:'
p337
sI677
S'            raise InvalidSelectorException("Invalid locator values passed in")'
p338
sI678
S''
sI679
S'        return self.execute(Command.FIND_ELEMENT,'
p339
sI680
S"                             {'using': by, 'value': value})['value']"
p340
sI681
S''
sI682
S'    def find_elements(self, by=By.ID, value=None):'
p341
sI683
S'        """'
p342
sI684
S"        'Private' method used by the find_elements_by_* methods."
p343
ssg93
S'(self=<selenium.webdriver.firefox.webdriver.WebDriver object>, by=\'xpath\', value="//*[@href=\'/baadal/admin/reject_request/53\']")'
p344
sg95
S'find_element'
p345
sa(dp346
g72
S'/usr/local/lib/python2.7/dist-packages/selenium/webdriver/remote/webdriver.py'
p347
sg74
(dp348
S'self.error_handler'
p349
S'<selenium.webdriver.remote.errorhandler.ErrorHandler object>'
p350
sS'self'
p351
S'<selenium.webdriver.firefox.webdriver.WebDriver object>'
p352
sS'self.error_handler.check_response'
p353
S'<bound method ErrorHandler.check_response of <se...bdriver.remote.errorhandler.ErrorHandler object>>'
p354
sS'response'
p355
S'{u\'name\': u\'findElement\', u\'sessionId\': u\'2ca1fdd1-58a2-49da-88a4-9e278998a74c\', u\'status\': 7, u\'value\': {u\'message\': u\'Unable to locate element: {"method":"xpath","s...//*[@href=\\\'/baadal/admin/reject_request/53\\\']"}\', u\'stackTrace\': [{u\'fileName\': u\'file:///tmp/tmpnyoS_F/extensions/fxdriver@googlecode.com/components/driver_component.js\', u\'lineNumber\': 8444, u\'methodName\': u\'FirefoxDriver.prototype.findElementInternal_\'}, {u\'fileName\': u\'file:///tmp/tmpnyoS_F/extensions/fxdriver@googlecode.com/components/driver_component.js\', u\'lineNumber\': 386, u\'methodName\': u\'fxdriver.Timer.prototype.setTimeout/<.notify\'}]}}'
p356
ssg80
I165
sg81
(dp357
I160
S"            params['sessionId'] = self.session_id"
p358
sI161
S''
sI162
S'        params = self._wrap_value(params)'
p359
sI163
S'        response = self.command_executor.execute(driver_command, params)'
p360
sI164
S'        if response:'
p361
sI165
S'            self.error_handler.check_response(response)'
p362
sI166
S"            response['value'] = self._unwrap_value("
p363
sI167
S"                response.get('value', None))"
p364
sI168
S'            return response'
p365
sI169
S"        # If the server doesn't send a response, assume the command was"
p366
ssg93
S'(self=<selenium.webdriver.firefox.webdriver.WebDriver object>, driver_command=\'findElement\', params={\'sessionId\': u\'2ca1fdd1-58a2-49da-88a4-9e278998a74c\', \'using\': \'xpath\', \'value\': "//*[@href=\'/baadal/admin/reject_request/53\']"})'
p367
sg95
S'execute'
p368
sa(dp369
g72
S'/usr/local/lib/python2.7/dist-packages/selenium/webdriver/remote/errorhandler.py'
p370
sg74
(dp371
S'exception_class'
p372
S"<class 'selenium.common.exceptions.NoSuchElementException'>"
p373
sS'message'
p374
S'u\'Unable to locate element: {"method":"xpath","s...//*[@href=\\\'/baadal/admin/reject_request/53\\\']"}\''
p375
sS'screen'
p376
S'None'
p377
sS'stacktrace'
p378
S"[u'    at FirefoxDriver.prototype.findElementInte...glecode.com/components/driver_component.js:8444)', u'    at fxdriver.Timer.prototype.setTimeout/<.n...oglecode.com/components/driver_component.js:386)']"
p379
ssg80
I158
sg81
(dp380
I160
S'    def _value_or_default(self, obj, key, default):'
p381
sI161
S'      return obj[key] if key in obj else default'
p382
sI152
S'                    msg = msg % (meth, file)'
p383
sI153
S'                    stacktrace.append(msg)'
p384
sI154
S'            except TypeError:'
p385
sI155
S'                pass'
p386
sI156
S'        if exception_class == ErrorInResponseException:'
p387
sI157
S'            raise exception_class(response, message)'
p388
sI158
S'        raise exception_class(message, screen, stacktrace)'
p389
sI159
S''
ssg93
S'(self=<selenium.webdriver.remote.errorhandler.ErrorHandler object>, response={u\'name\': u\'findElement\', u\'sessionId\': u\'2ca1fdd1-58a2-49da-88a4-9e278998a74c\', u\'status\': 7, u\'value\': {u\'message\': u\'Unable to locate element: {"method":"xpath","s...//*[@href=\\\'/baadal/admin/reject_request/53\\\']"}\', u\'stackTrace\': [{u\'fileName\': u\'file:///tmp/tmpnyoS_F/extensions/fxdriver@googlecode.com/components/driver_component.js\', u\'lineNumber\': 8444, u\'methodName\': u\'FirefoxDriver.prototype.findElementInternal_\'}, {u\'fileName\': u\'file:///tmp/tmpnyoS_F/extensions/fxdriver@googlecode.com/components/driver_component.js\', u\'lineNumber\': 386, u\'methodName\': u\'fxdriver.Timer.prototype.setTimeout/<.notify\'}]}})'
p390
sg95
S'check_response'
p391
sasS'pyver'
p392
S'Python 2.7.3: /usr/bin/python (prefix: /usr)'
p393
sS'session'
p394
g67
(S's\x1a\x00\x00\x00<div><table></table></div>'
tRp395
sS'etype'
p396
S"<class 'selenium.common.exceptions.NoSuchElementException'>"
p397
sS'date'
p398
S'Tue Oct  8 15:27:18 2013'
p399
sS'response'
p400
g67
(S's\xc1,\x00\x00<div><table><tr><td style="font-weight:bold;vertical-align:top">body</td><td valign="top">:</td><td><div>&lt;cStringIO.StringO object at 0x7fc7c033f1b8&gt;</div></td></tr><tr><td style="font-weight:bold;vertical-align:top">cookies</td><td valign="top">:</td><td><div><table><tr><td style="font-weight:bold;vertical-align:top">session_id_testapp</td><td valign="top">:</td><td><div>127.0.0.1-99066bcf-9228-4750-94dd-766d89ab36a6<table><tr><td style="font-weight:bold;vertical-align:top">comment</td><td valign="top">:</td><td><div></div></td></tr><tr><td style="font-weight:bold;vertical-align:top">domain</td><td valign="top">:</td><td><div></div></td></tr><tr><td style="font-weight:bold;vertical-align:top">expires</td><td valign="top">:</td><td><div></div></td></tr><tr><td style="font-weight:bold;vertical-align:top">httponly</td><td valign="top">:</td><td><div></div></td></tr><tr><td style="font-weight:bold;vertical-align:top">max-age</td><td valign="top">:</td><td><div></div></td></tr><tr><td style="font-weight:bold;vertical-align:top">path</td><td valign="top">:</td><td><div>/</div></td></tr><tr><td style="font-weight:bold;vertical-align:top">secure</td><td valign="top">:</td><td><div></div></td></tr><tr><td style="font-weight:bold;vertical-align:top">version</td><td valign="top">:</td><td><div></div></td></tr></table></div></td></tr></table></div></td></tr><tr><td style="font-weight:bold;vertical-align:top">delimiters</td><td valign="top">:</td><td><div><table><tr><td><div>{{</div></td></tr><tr><td><div>}}</div></td></tr></table></div></td></tr><tr><td style="font-weight:bold;vertical-align:top">files</td><td valign="top">:</td><td><div><table></table></div></td></tr><tr><td style="font-weight:bold;vertical-align:top">flash</td><td valign="top">:</td><td><div>Success!</div></td></tr><tr><td style="font-weight:bold;vertical-align:top">generic_patterns</td><td valign="top">:</td><td><div><table></table></div></td></tr><tr><td style="font-weight:bold;vertical-align:top">google_analytics_id</td><td valign="top">:</td><td><div>None</div></td></tr><tr><td style="font-weight:bold;vertical-align:top">headers</td><td valign="top">:</td><td><div><table><tr><td style="font-weight:bold;vertical-align:top">X-Powered-By</td><td valign="top">:</td><td><div>web2py</div></td></tr></table></div></td></tr><tr><td style="font-weight:bold;vertical-align:top">logo</td><td valign="top">:</td><td><div><a class="brand" href="http://www.web2py.com/"><b>web<span>2</span>py</b>&trade;&nbsp;</a></div></td></tr><tr><td style="font-weight:bold;vertical-align:top">menu</td><td valign="top">:</td><td><div><table><tr><td><div><table><tr><td><div>Home</div></td></tr><tr><td><div>False</div></td></tr><tr><td><div>/testapp/default/index</div></td></tr><tr><td><div><table></table></div></td></tr></table></div></td></tr><tr><td><div><table><tr><td><div><span class="highlighted">web2py</span></div></td></tr><tr><td><div>False</div></td></tr><tr><td><div>http://web2py.com</div></td></tr><tr><td><div><table><tr><td><div><table><tr><td><div>My Sites</div></td></tr><tr><td><div>False</div></td></tr><tr><td><div>/admin/default/site</div></td></tr></table></div></td></tr><tr><td><div><table><tr><td><div>This App</div></td></tr><tr><td><div>False</div></td></tr><tr><td><div>/admin/default/design/testapp</div></td></tr><tr><td><div>[(&lt;lazyT &#x27;Controller&#x27;&gt;, False, &#x27;/admin/default/edit/testapp/controllers/default.py&#x27;), (&lt;lazyT &#x27;View&#x27;&gt;, False, &#x27;/admin/default/edit/testapp/views/default/integration_testing.html&#x27;), (&lt;lazyT &#x27;Layout&#x27;&gt;, False, &#x27;/admin/default/edit/testapp/views/layout.html&#x27;), (&lt;lazyT &#x27;Stylesheet&#x27;&gt;, False, &#x27;/admin/default/edit/testapp/static/css/web2py.css&#x27;), (&lt;lazyT &#x27;DB Model&#x27;&gt;, False, &#x27;/admin/default/edit/testapp/models/db.py&#x27;), (&lt;lazyT &#x27;Menu Model&#x27;&gt;, False, &#x27;/admin/default/edit/testapp/models/menu.py&#x27;), (&lt;lazyT &#x27;Database&#x27;&gt;, False, &#x27;/testapp/appadmin/index&#x27;), (&lt;lazyT &#x27;Errors&#x27;&gt;, False, &#x27;/admin/default/errors/testapp&#x27;), (&lt;lazyT &#x27;About&#x27;&gt;, False, &#x27;/admin/default/about/testapp&#x27;)]</div></td></tr></table></div></td></tr><tr><td><div><table><tr><td><div>web2py.com</div></td></tr><tr><td><div>False</div></td></tr><tr><td><div>http://www.web2py.com</div></td></tr><tr><td><div>[(&lt;lazyT &#x27;Download&#x27;&gt;, False, &#x27;http://www.web2py.com/examples/default/download&#x27;), (&lt;lazyT &#x27;Support&#x27;&gt;, False, &#x27;http://www.web2py.com/examples/default/support&#x27;), (&lt;lazyT &#x27;Demo&#x27;&gt;, False, &#x27;http://web2py.com/demo_admin&#x27;), (&lt;lazyT &#x27;Quick Examples&#x27;&gt;, False, &#x27;http://web2py.com/examples/default/examples&#x27;), (&lt;lazyT &#x27;FAQ&#x27;&gt;, False, &#x27;http://web2py.com/AlterEgo&#x27;), (&lt;lazyT &#x27;Videos&#x27;&gt;, False, &#x27;http://www.web2py.com/examples/default/videos/&#x27;), (&lt;lazyT &#x27;Free Applications&#x27;&gt;, False, &#x27;http://web2py.com/appliances&#x27;), (&lt;lazyT &#x27;Plugins&#x27;&gt;, False, &#x27;http://web2py.com/plugins&#x27;), (&lt;lazyT &#x27;Layouts&#x27;&gt;, False, &#x27;http://web2py.com/layouts&#x27;), (&lt;lazyT &#x27;Recipes&#x27;&gt;, False, &#x27;http://web2pyslices.com/&#x27;), (&lt;lazyT &#x27;Semantic&#x27;&gt;, False, &#x27;http://web2py.com/semantic&#x27;)]</div></td></tr></table></div></td></tr><tr><td><div><table><tr><td><div>Documentation</div></td></tr><tr><td><div>False</div></td></tr><tr><td><div>http://www.web2py.com/book</div></td></tr><tr><td><div>[(&lt;lazyT &#x27;Preface&#x27;&gt;, False, &#x27;http://www.web2py.com/book/default/chapter/00&#x27;), (&lt;lazyT &#x27;Introduction&#x27;&gt;, False, &#x27;http://www.web2py.com/book/default/chapter/01&#x27;), (&lt;lazyT &#x27;Python&#x27;&gt;, False, &#x27;http://www.web2py.com/book/default/chapter/02&#x27;), (&lt;lazyT &#x27;Overview&#x27;&gt;, False, &#x27;http://www.web2py.com/book/default/chapter/03&#x27;), (&lt;lazyT &#x27;The Core&#x27;&gt;, False, &#x27;http://www.web2py.com/book/default/chapter/04&#x27;), (&lt;lazyT &#x27;The Views&#x27;&gt;, False, &#x27;http://www.web2py.com/book/default/chapter/05&#x27;), (&lt;lazyT &#x27;Database&#x27;&gt;, False, &#x27;http://www.web2py.com/book/default/chapter/06&#x27;), (&lt;lazyT &#x27;Forms and Validators&#x27;&gt;, False, &#x27;http://www.web2py.com/book/default/chapter/07&#x27;), (&lt;lazyT &#x27;Email and SMS&#x27;&gt;, False, &#x27;http://www.web2py.com/book/default/chapter/08&#x27;), (&lt;lazyT &#x27;Access Control&#x27;&gt;, False, &#x27;http://www.web2py.com/book/default/chapter/09&#x27;), (&lt;lazyT &#x27;Services&#x27;&gt;, False, &#x27;http://www.web2py.com/book/default/chapter/10&#x27;), (&lt;lazyT &#x27;Ajax Recipes&#x27;&gt;, False, &#x27;http://www.web2py.com/book/default/chapter/11&#x27;), (&lt;lazyT &#x27;Components and Plugins&#x27;&gt;, False, &#x27;http://www.web2py.com/book/default/chapter/12&#x27;), (&lt;lazyT &#x27;Deployment Recipes&#x27;&gt;, False, &#x27;http://www.web2py.com/book/default/chapter/13&#x27;), (&lt;lazyT &#x27;Other Recipes&#x27;&gt;, False, &#x27;http://www.web2py.com/book/default/chapter/14&#x27;), (&lt;lazyT &#x27;Buy this book&#x27;&gt;, False, &#x27;http://stores.lulu.com/web2py&#x27;)]</div></td></tr></table></div></td></tr><tr><td><div><table><tr><td><div>Community</div></td></tr><tr><td><div>False</div></td></tr><tr><td><div>None</div></td></tr><tr><td><div>[(&lt;lazyT &#x27;Groups&#x27;&gt;, False, &#x27;http://www.web2py.com/examples/default/usergroups&#x27;), (&lt;lazyT &#x27;Twitter&#x27;&gt;, False, &#x27;http://twitter.com/web2py&#x27;), (&lt;lazyT &#x27;Live Chat&#x27;&gt;, False, &#x27;http://webchat.freenode.net/?channels=web2py&#x27;)]</div></td></tr></table></div></td></tr><tr><td><div><table><tr><td><div>Plugins</div></td></tr><tr><td><div>False</div></td></tr><tr><td><div>None</div></td></tr><tr><td><div>[(&#x27;plugin_wiki&#x27;, False, &#x27;http://web2py.com/examples/default/download&#x27;), (&lt;lazyT &#x27;Other Plugins&#x27;&gt;, False, &#x27;http://web2py.com/plugins&#x27;), (&lt;lazyT &#x27;Layout Plugins&#x27;&gt;, False, &#x27;http://web2py.com/layouts&#x27;)]</div></td></tr></table></div></td></tr></table></div></td></tr></table></div></td></tr></table></div></td></tr><tr><td style="font-weight:bold;vertical-align:top">meta</td><td valign="top">:</td><td><div><table><tr><td style="font-weight:bold;vertical-align:top">author</td><td valign="top">:</td><td><div>Your Name &lt;you@example.com&gt;</div></td></tr><tr><td style="font-weight:bold;vertical-align:top">description</td><td valign="top">:</td><td><div>a cool new app</div></td></tr><tr><td style="font-weight:bold;vertical-align:top">generator</td><td valign="top">:</td><td><div>Web2py Web Framework</div></td></tr><tr><td style="font-weight:bold;vertical-align:top">keywords</td><td valign="top">:</td><td><div>web2py, python, framework</div></td></tr></table></div></td></tr><tr><td style="font-weight:bold;vertical-align:top">models_to_run</td><td valign="top">:</td><td><div><table><tr><td><div>^\\w+\\.py$</div></td></tr><tr><td><div>^default/\\w+\\.py$</div></td></tr><tr><td><div>^default/integration_testing/\\w+\\.py$</div></td></tr></table></div></td></tr><tr><td style="font-weight:bold;vertical-align:top">postprocessing</td><td valign="top">:</td><td><div><table></table></div></td></tr><tr><td style="font-weight:bold;vertical-align:top">session_cookie_expires</td><td valign="top">:</td><td><div>None</div></td></tr><tr><td style="font-weight:bold;vertical-align:top">session_data_name</td><td valign="top">:</td><td><div>session_data_testapp</div></td></tr><tr><td style="font-weight:bold;vertical-align:top">session_file</td><td valign="top">:</td><td><div>&lt;open file &#x27;/home/baadalvm/Desktop/web2py/applications/testapp/sessions/127.0.0.1-99066bcf-9228-4750-94dd-766d89ab36a6&#x27;, mode &#x27;rb+&#x27; at 0x7fc7d41bced0&gt;</div></td></tr><tr><td style="font-weight:bold;vertical-align:top">session_filename</td><td valign="top">:</td><td><div>/home/baadalvm/Desktop/web2py/applications/testapp/sessions/127.0.0.1-99066bcf-9228-4750-94dd-766d89ab36a6</div></td></tr><tr><td style="font-weight:bold;vertical-align:top">session_id</td><td valign="top">:</td><td><div>127.0.0.1-99066bcf-9228-4750-94dd-766d89ab36a6</div></td></tr><tr><td style="font-weight:bold;vertical-align:top">session_id_name</td><td valign="top">:</td><td><div>session_id_testapp</div></td></tr><tr><td style="font-weight:bold;vertical-align:top">session_locked</td><td valign="top">:</td><td><div>True</div></td></tr><tr><td style="font-weight:bold;vertical-align:top">session_new</td><td valign="top">:</td><td><div>False</div></td></tr><tr><td style="font-weight:bold;vertical-align:top">session_storage_type</td><td valign="top">:</td><td><div>file</div></td></tr><tr><td style="font-weight:bold;vertical-align:top">status</td><td valign="top">:</td><td><div>200</div></td></tr><tr><td style="font-weight:bold;vertical-align:top">subtitle</td><td valign="top">:</td><td><div>customize me!</div></td></tr><tr><td style="font-weight:bold;vertical-align:top">title</td><td valign="top">:</td><td><div>Testapp</div></td></tr><tr><td style="font-weight:bold;vertical-align:top">view</td><td valign="top">:</td><td><div>default/integration_testing.html</div></td></tr></table></div>'
tRp401
sS'locals'
p402
(dp403
S'status'
p404
S'7'
sg12
S"[u'    at FirefoxDriver.prototype.findElementInte...glecode.com/components/driver_component.js:8444)', u'    at fxdriver.Timer.prototype.setTimeout/<.n...oglecode.com/components/driver_component.js:386)']"
p405
sS'frame'
p406
S"{u'fileName': u'file:///tmp/tmpnyoS_F/extensions/fxdriver@googlecode.com/components/driver_component.js', u'lineNumber': 386, u'methodName': u'fxdriver.Timer.prototype.setTimeout/<.notify'}"
p407
sS'line'
p408
S'386'
p409
sS'value'
p410
S'{u\'message\': u\'Unable to locate element: {"method":"xpath","s...//*[@href=\\\'/baadal/admin/reject_request/53\\\']"}\', u\'stackTrace\': [{u\'fileName\': u\'file:///tmp/tmpnyoS_F/extensions/fxdriver@googlecode.com/components/driver_component.js\', u\'lineNumber\': 8444, u\'methodName\': u\'FirefoxDriver.prototype.findElementInternal_\'}, {u\'fileName\': u\'file:///tmp/tmpnyoS_F/extensions/fxdriver@googlecode.com/components/driver_component.js\', u\'lineNumber\': 386, u\'methodName\': u\'fxdriver.Timer.prototype.setTimeout/<.notify\'}]}'
p411
sS'self'
p412
S'<selenium.webdriver.remote.errorhandler.ErrorHandler object>'
p413
sS'exception_class'
p414
S"<class 'selenium.common.exceptions.NoSuchElementException'>"
p415
sg72
S"u'file:///tmp/tmpnyoS_F/extensions/fxdriver@googlecode.com/components/driver_component.js:386'"
p416
sg400
S'{u\'name\': u\'findElement\', u\'sessionId\': u\'2ca1fdd1-58a2-49da-88a4-9e278998a74c\', u\'status\': 7, u\'value\': {u\'message\': u\'Unable to locate element: {"method":"xpath","s...//*[@href=\\\'/baadal/admin/reject_request/53\\\']"}\', u\'stackTrace\': [{u\'fileName\': u\'file:///tmp/tmpnyoS_F/extensions/fxdriver@googlecode.com/components/driver_component.js\', u\'lineNumber\': 8444, u\'methodName\': u\'FirefoxDriver.prototype.findElementInternal_\'}, {u\'fileName\': u\'file:///tmp/tmpnyoS_F/extensions/fxdriver@googlecode.com/components/driver_component.js\', u\'lineNumber\': 386, u\'methodName\': u\'fxdriver.Timer.prototype.setTimeout/<.notify\'}]}}'
p417
sg40
S"u'    at fxdriver.Timer.prototype.setTimeout/<.n...oglecode.com/components/driver_component.js:386)'"
p418
sS'meth'
p419
S"u'fxdriver.Timer.prototype.setTimeout/<.notify'"
p420
sg50
S'None'
p421
sS'message'
p422
S'u\'Unable to locate element: {"method":"xpath","s...//*[@href=\\\'/baadal/admin/reject_request/53\\\']"}\''
p423
sssS'traceback'
p424
S'Traceback (most recent call last):\n  File "/home/baadalvm/Desktop/web2py/gluon/restricted.py", line 212, in restricted\n    exec ccode in environment\n  File "/home/baadalvm/Desktop/web2py/applications/testapp/controllers/default.py", line 249, in <module>\n  File "/home/baadalvm/Desktop/web2py/gluon/globals.py", line 194, in <lambda>\n    self._caller = lambda f: f()\n  File "/home/baadalvm/Desktop/web2py/applications/testapp/controllers/default.py", line 242, in integration_testing\n    test_script(test_case_no)\n  File "/home/baadalvm/Desktop/web2py/applications/testapp/models/test.py", line 168, in test_script\n    vm_name2=isImage(driver,xml_child,xml_sub_child,table_path)\n  File "/home/baadalvm/Desktop/web2py/applications/testapp/models/test.py", line 776, in isImage\n    vm_shutdown(xml_child,xml_sub_child,driver)\n  File "/home/baadalvm/Desktop/web2py/applications/testapp/models/test.py", line 528, in vm_shutdown\n    check_operation(driver,xml_child,xml_sub_child,vm_name,vm_id)\n  File "/home/baadalvm/Desktop/web2py/applications/testapp/models/test.py", line 329, in check_operation\n    click_on_operation(driver,xml_sub_child,xml_child,vm_name,vm_id)\n  File "/home/baadalvm/Desktop/web2py/applications/testapp/models/test.py", line 440, in click_on_operation\n    check_attach_disk(driver,xml_sub_child,xml_child,vm_name,vm_id,operation_name)\n  File "/home/baadalvm/Desktop/web2py/applications/testapp/models/test.py", line 405, in check_attach_disk\n    driver.find_element_by_xpath("//*[@href=\'/baadal/admin/reject_request/"+ str(vm_id) +"\']").click()\n  File "/usr/local/lib/python2.7/dist-packages/selenium/webdriver/remote/webdriver.py", line 222, in find_element_by_xpath\n    return self.find_element(by=By.XPATH, value=xpath)\n  File "/usr/local/lib/python2.7/dist-packages/selenium/webdriver/remote/webdriver.py", line 680, in find_element\n    {\'using\': by, \'value\': value})[\'value\']\n  File "/usr/local/lib/python2.7/dist-packages/selenium/webdriver/remote/webdriver.py", line 165, in execute\n    self.error_handler.check_response(response)\n  File "/usr/local/lib/python2.7/dist-packages/selenium/webdriver/remote/errorhandler.py", line 158, in check_response\n    raise exception_class(message, screen, stacktrace)\nNoSuchElementException: Message: u\'Unable to locate element: {"method":"xpath","selector":"//*[@href=\\\'/baadal/admin/reject_request/53\\\']"}\' ; Stacktrace: \n    at FirefoxDriver.prototype.findElementInternal_ (file:///tmp/tmpnyoS_F/extensions/fxdriver@googlecode.com/components/driver_component.js:8444)\n    at fxdriver.Timer.prototype.setTimeout/<.notify (file:///tmp/tmpnyoS_F/extensions/fxdriver@googlecode.com/components/driver_component.js:386) \n'
p425
s.